GAS LISTING C:\Users\PRESID~1\AppData\Local\Temp\ccCA8Smq.s 			page 1


   1              		.file	"os_start_ext_prg_test.c"
   2              		.text
   3              	Ltext0:
   5              	_fprintf:
   6              	LFB0:
   7              		.file 1 "c:/program/mingw/include/stdio.h"
   1:c:/program/mingw/include\stdio.h **** /*
   2:c:/program/mingw/include\stdio.h ****  * stdio.h
   3:c:/program/mingw/include\stdio.h ****  *
   4:c:/program/mingw/include\stdio.h ****  * Definitions of types and prototypes of functions for operations on
   5:c:/program/mingw/include\stdio.h ****  * standard input and standard output streams.
   6:c:/program/mingw/include\stdio.h ****  *
   7:c:/program/mingw/include\stdio.h ****  * $Id: stdio.h,v 45c964eb9184 2019/07/03 20:49:42 keith $
   8:c:/program/mingw/include\stdio.h ****  *
   9:c:/program/mingw/include\stdio.h ****  * Written by Colin Peters <colin@bird.fu.is.saga-u.ac.jp>
  10:c:/program/mingw/include\stdio.h ****  * Copyright (C) 1997-2005, 2007-2010, 2014-2019, MinGW.org Project.
  11:c:/program/mingw/include\stdio.h ****  *
  12:c:/program/mingw/include\stdio.h ****  *
  13:c:/program/mingw/include\stdio.h ****  * Permission is hereby granted, free of charge, to any person obtaining a
  14:c:/program/mingw/include\stdio.h ****  * copy of this software and associated documentation files (the "Software"),
  15:c:/program/mingw/include\stdio.h ****  * to deal in the Software without restriction, including without limitation
  16:c:/program/mingw/include\stdio.h ****  * the rights to use, copy, modify, merge, publish, distribute, sublicense,
  17:c:/program/mingw/include\stdio.h ****  * and/or sell copies of the Software, and to permit persons to whom the
  18:c:/program/mingw/include\stdio.h ****  * Software is furnished to do so, subject to the following conditions:
  19:c:/program/mingw/include\stdio.h ****  *
  20:c:/program/mingw/include\stdio.h ****  * The above copyright notice, this permission notice, and the following
  21:c:/program/mingw/include\stdio.h ****  * disclaimer shall be included in all copies or substantial portions of
  22:c:/program/mingw/include\stdio.h ****  * the Software.
  23:c:/program/mingw/include\stdio.h ****  *
  24:c:/program/mingw/include\stdio.h ****  * THE SOFTWARE IS PROVIDED "AS IS", WITHOUT WARRANTY OF ANY KIND, EXPRESS
  25:c:/program/mingw/include\stdio.h ****  * OR IMPLIED, INCLUDING BUT NOT LIMITED TO THE WARRANTIES OF MERCHANTABILITY,
  26:c:/program/mingw/include\stdio.h ****  * FITNESS FOR A PARTICULAR PURPOSE AND NONINFRINGEMENT.  IN NO EVENT SHALL
  27:c:/program/mingw/include\stdio.h ****  * THE AUTHORS OR COPYRIGHT HOLDERS BE LIABLE FOR ANY CLAIM, DAMAGES OR OTHER
  28:c:/program/mingw/include\stdio.h ****  * LIABILITY, WHETHER IN AN ACTION OF CONTRACT, TORT OR OTHERWISE, ARISING
  29:c:/program/mingw/include\stdio.h ****  * FROM, OUT OF OR IN CONNECTION WITH THE SOFTWARE OR THE USE OF OR OTHER
  30:c:/program/mingw/include\stdio.h ****  * DEALINGS IN THE SOFTWARE.
  31:c:/program/mingw/include\stdio.h ****  *
  32:c:/program/mingw/include\stdio.h ****  * NOTE: The file manipulation functions provided by Microsoft seem to
  33:c:/program/mingw/include\stdio.h ****  * work with either slash (/) or backslash (\) as the directory separator;
  34:c:/program/mingw/include\stdio.h ****  * (this is consistent with Microsoft's own documentation, on MSDN).
  35:c:/program/mingw/include\stdio.h ****  *
  36:c:/program/mingw/include\stdio.h ****  */
  37:c:/program/mingw/include\stdio.h **** #ifndef _STDIO_H
  38:c:/program/mingw/include\stdio.h **** #pragma GCC system_header
  39:c:/program/mingw/include\stdio.h **** 
  40:c:/program/mingw/include\stdio.h **** /* When including <wchar.h>, some of the definitions and declarations
  41:c:/program/mingw/include\stdio.h ****  * which are nominally provided in <stdio.h> must be duplicated.  Rather
  42:c:/program/mingw/include\stdio.h ****  * than require duplicated maintenance effort, we provide for partial
  43:c:/program/mingw/include\stdio.h ****  * inclusion of <stdio.h> by <wchar.h>; only when not included in
  44:c:/program/mingw/include\stdio.h ****  * this partial fashion...
  45:c:/program/mingw/include\stdio.h ****  */
  46:c:/program/mingw/include\stdio.h **** #ifndef __WCHAR_H_SOURCED__
  47:c:/program/mingw/include\stdio.h ****  /* ...which is exclusive to <wchar.h>, do we assert the multiple
  48:c:/program/mingw/include\stdio.h ****   * inclusion guard for <stdio.h> itself.
  49:c:/program/mingw/include\stdio.h ****   */
  50:c:/program/mingw/include\stdio.h **** #define _STDIO_H
  51:c:/program/mingw/include\stdio.h **** #endif
GAS LISTING C:\Users\PRESID~1\AppData\Local\Temp\ccCA8Smq.s 			page 2


  52:c:/program/mingw/include\stdio.h **** 
  53:c:/program/mingw/include\stdio.h **** /* All the headers include this file.
  54:c:/program/mingw/include\stdio.h ****  */
  55:c:/program/mingw/include\stdio.h **** #include <_mingw.h>
  56:c:/program/mingw/include\stdio.h **** 
  57:c:/program/mingw/include\stdio.h **** #ifndef RC_INVOKED
  58:c:/program/mingw/include\stdio.h **** /* POSIX stipulates that the following set of types, (as identified by
  59:c:/program/mingw/include\stdio.h ****  * __need_TYPENAME macros), shall be defined consistently with <stddef.h>;
  60:c:/program/mingw/include\stdio.h ****  * by defining the appropriate __need_TYPENAME macros, we may selectively
  61:c:/program/mingw/include\stdio.h ****  * obtain the required definitions by inclusion of <stddef.h>, WITHOUT
  62:c:/program/mingw/include\stdio.h ****  * automatic exposure of any of its additional content.
  63:c:/program/mingw/include\stdio.h ****  */
  64:c:/program/mingw/include\stdio.h **** #define __need_NULL
  65:c:/program/mingw/include\stdio.h **** #define __need_size_t
  66:c:/program/mingw/include\stdio.h **** #define __need_wchar_t
  67:c:/program/mingw/include\stdio.h **** #define __need_wint_t
  68:c:/program/mingw/include\stdio.h **** #include <stddef.h>
  69:c:/program/mingw/include\stdio.h **** 
  70:c:/program/mingw/include\stdio.h **** #if _POSIX_C_SOURCE >= 200809L
  71:c:/program/mingw/include\stdio.h ****  /* Similarly, for types defined in <sys/types.h>, (which are explicitly
  72:c:/program/mingw/include\stdio.h ****   * dependent on the POSIX.1-2008 feature test)...
  73:c:/program/mingw/include\stdio.h ****   */
  74:c:/program/mingw/include\stdio.h **** # define __need_off_t
  75:c:/program/mingw/include\stdio.h **** # define __need_ssize_t
  76:c:/program/mingw/include\stdio.h **** #endif
  77:c:/program/mingw/include\stdio.h **** 
  78:c:/program/mingw/include\stdio.h **** /* Although non-standard themselves, we also need either one or other
  79:c:/program/mingw/include\stdio.h ****  * of the following pair of data types, from <sys/types.h>, because our
  80:c:/program/mingw/include\stdio.h ****  * standard fpos_t is opaquely defined in terms of...
  81:c:/program/mingw/include\stdio.h ****  */
  82:c:/program/mingw/include\stdio.h **** #ifdef __MSVCRT__
  83:c:/program/mingw/include\stdio.h ****  /* ...an explicitly 64-bit file offset type, for MSVCRT.DLL users...
  84:c:/program/mingw/include\stdio.h ****   */
  85:c:/program/mingw/include\stdio.h **** # define __need___off64_t
  86:c:/program/mingw/include\stdio.h **** #else
  87:c:/program/mingw/include\stdio.h ****  /* ...or a 32-bit equivalent, for pre-MSVCRT.DLL users.
  88:c:/program/mingw/include\stdio.h ****   */
  89:c:/program/mingw/include\stdio.h **** # define __need___off32_t
  90:c:/program/mingw/include\stdio.h **** #endif
  91:c:/program/mingw/include\stdio.h **** 
  92:c:/program/mingw/include\stdio.h **** /* Note the use of the #include "..." form here, to ensure that we get
  93:c:/program/mingw/include\stdio.h ****  * the correct header file, relative to the location of this <stdio.h>
  94:c:/program/mingw/include\stdio.h ****  */
  95:c:/program/mingw/include\stdio.h **** #include "sys/types.h"
  96:c:/program/mingw/include\stdio.h **** 
  97:c:/program/mingw/include\stdio.h **** #ifndef __VALIST
  98:c:/program/mingw/include\stdio.h ****  /* Also similarly, for the va_list type, defined in "stdarg.h"
  99:c:/program/mingw/include\stdio.h ****   */
 100:c:/program/mingw/include\stdio.h **** # if defined __GNUC__ && __GNUC__ >= 3
 101:c:/program/mingw/include\stdio.h **** #  define __need___va_list
 102:c:/program/mingw/include\stdio.h **** #  include "stdarg.h"
 103:c:/program/mingw/include\stdio.h **** #  define __VALIST __builtin_va_list
 104:c:/program/mingw/include\stdio.h **** # else
 105:c:/program/mingw/include\stdio.h **** #  define __VALIST char *
 106:c:/program/mingw/include\stdio.h **** # endif
 107:c:/program/mingw/include\stdio.h **** #endif
 108:c:/program/mingw/include\stdio.h **** #endif	/* ! RC_INVOKED */
GAS LISTING C:\Users\PRESID~1\AppData\Local\Temp\ccCA8Smq.s 			page 3


 109:c:/program/mingw/include\stdio.h **** 
 110:c:/program/mingw/include\stdio.h **** #ifdef _STDIO_H
 111:c:/program/mingw/include\stdio.h **** /* Flags for the iobuf structure
 112:c:/program/mingw/include\stdio.h ****  */
 113:c:/program/mingw/include\stdio.h **** #define _IOREAD 	1	/* currently reading */
 114:c:/program/mingw/include\stdio.h **** #define _IOWRT		2	/* currently writing */
 115:c:/program/mingw/include\stdio.h **** #define _IORW	   0x0080	/* opened as "r+w" */
 116:c:/program/mingw/include\stdio.h **** 
 117:c:/program/mingw/include\stdio.h **** /* The three standard file pointers provided by the run time library.
 118:c:/program/mingw/include\stdio.h ****  * NOTE: These will go to the bit-bucket silently in GUI applications!
 119:c:/program/mingw/include\stdio.h ****  */
 120:c:/program/mingw/include\stdio.h **** #define STDIN_FILENO	0
 121:c:/program/mingw/include\stdio.h **** #define STDOUT_FILENO	1
 122:c:/program/mingw/include\stdio.h **** #define STDERR_FILENO	2
 123:c:/program/mingw/include\stdio.h **** 
 124:c:/program/mingw/include\stdio.h **** /* Returned by various functions on end of file condition or error.
 125:c:/program/mingw/include\stdio.h ****  */
 126:c:/program/mingw/include\stdio.h **** #define EOF	      (-1)
 127:c:/program/mingw/include\stdio.h **** 
 128:c:/program/mingw/include\stdio.h **** #endif	/* _STDIO_H */
 129:c:/program/mingw/include\stdio.h **** 
 130:c:/program/mingw/include\stdio.h **** /* The maximum length of a file name.  It may be better to use the Windows'
 131:c:/program/mingw/include\stdio.h ****  * GetVolumeInformation() function in preference to this constant, but hey,
 132:c:/program/mingw/include\stdio.h ****  * this works!  Note that <io.h> also defines it, but we don't guard it, so
 133:c:/program/mingw/include\stdio.h ****  * that the compiler has a chance to catch inconsistencies.
 134:c:/program/mingw/include\stdio.h ****  *
 135:c:/program/mingw/include\stdio.h ****  * FIXME: Right now, we define this unconditionally for both full <stdio.h>
 136:c:/program/mingw/include\stdio.h ****  * inclusion, and for partial inclusion on behalf of <wchar.h>, (which needs
 137:c:/program/mingw/include\stdio.h ****  * it for some non-ANSI structure declarations).  The conditions under which
 138:c:/program/mingw/include\stdio.h ****  * <wchar.h> needs this require review, because defining it as a consequence
 139:c:/program/mingw/include\stdio.h ****  * of including <wchar.h> alone may violate strict ANSI conformity.
 140:c:/program/mingw/include\stdio.h ****  */
 141:c:/program/mingw/include\stdio.h **** #define FILENAME_MAX  (260)
 142:c:/program/mingw/include\stdio.h **** 
 143:c:/program/mingw/include\stdio.h **** #ifdef _STDIO_H
 144:c:/program/mingw/include\stdio.h **** /* The maximum number of files that may be open at once. I have set this to
 145:c:/program/mingw/include\stdio.h ****  * a conservative number. The actual value may be higher.
 146:c:/program/mingw/include\stdio.h ****  */
 147:c:/program/mingw/include\stdio.h **** #define FOPEN_MAX      (20)
 148:c:/program/mingw/include\stdio.h **** 
 149:c:/program/mingw/include\stdio.h **** /* After creating this many names, tmpnam and tmpfile return NULL
 150:c:/program/mingw/include\stdio.h ****  */
 151:c:/program/mingw/include\stdio.h **** #define TMP_MAX      32767
 152:c:/program/mingw/include\stdio.h **** 
 153:c:/program/mingw/include\stdio.h **** /* Tmpnam, tmpfile and, sometimes, _tempnam try to create
 154:c:/program/mingw/include\stdio.h ****  * temp files in the root directory of the current drive
 155:c:/program/mingw/include\stdio.h ****  * (not in pwd, as suggested by some older MS doc's).
 156:c:/program/mingw/include\stdio.h ****  * Redefining these macros does not effect the CRT functions.
 157:c:/program/mingw/include\stdio.h ****  */
 158:c:/program/mingw/include\stdio.h **** #define _P_tmpdir   "\\"
 159:c:/program/mingw/include\stdio.h **** #ifndef __STRICT_ANSI__
 160:c:/program/mingw/include\stdio.h **** #define P_tmpdir _P_tmpdir
 161:c:/program/mingw/include\stdio.h **** #endif
 162:c:/program/mingw/include\stdio.h **** #define _wP_tmpdir  L"\\"
 163:c:/program/mingw/include\stdio.h **** 
 164:c:/program/mingw/include\stdio.h **** /* The maximum size of name (including NUL) that will be put in the user
 165:c:/program/mingw/include\stdio.h ****  * supplied buffer caName for tmpnam.
GAS LISTING C:\Users\PRESID~1\AppData\Local\Temp\ccCA8Smq.s 			page 4


 166:c:/program/mingw/include\stdio.h ****  * Inferred from the size of the static buffer returned by tmpnam
 167:c:/program/mingw/include\stdio.h ****  * when passed a NULL argument. May actually be smaller.
 168:c:/program/mingw/include\stdio.h ****  */
 169:c:/program/mingw/include\stdio.h **** #define L_tmpnam (16)
 170:c:/program/mingw/include\stdio.h **** 
 171:c:/program/mingw/include\stdio.h **** #define _IOFBF		0x0000	/* full buffered */
 172:c:/program/mingw/include\stdio.h **** #define _IOLBF		0x0040	/* line buffered */
 173:c:/program/mingw/include\stdio.h **** #define _IONBF		0x0004	/* not buffered */
 174:c:/program/mingw/include\stdio.h **** 
 175:c:/program/mingw/include\stdio.h **** #define _IOMYBUF	0x0008	/* stdio malloc()'d buffer */
 176:c:/program/mingw/include\stdio.h **** #define _IOEOF		0x0010	/* EOF reached on read */
 177:c:/program/mingw/include\stdio.h **** #define _IOERR		0x0020	/* I/O error from system */
 178:c:/program/mingw/include\stdio.h **** #define _IOSTRG 	0x0040	/* Strange or no file descriptor */
 179:c:/program/mingw/include\stdio.h **** #ifdef _POSIX_SOURCE
 180:c:/program/mingw/include\stdio.h **** # define _IOAPPEND	0x0200
 181:c:/program/mingw/include\stdio.h **** #endif
 182:c:/program/mingw/include\stdio.h **** 
 183:c:/program/mingw/include\stdio.h **** /* The buffer size as used by setbuf such that it is equivalent to
 184:c:/program/mingw/include\stdio.h ****  * (void) setvbuf(fileSetBuffer, caBuffer, _IOFBF, BUFSIZ).
 185:c:/program/mingw/include\stdio.h ****  */
 186:c:/program/mingw/include\stdio.h **** #define BUFSIZ		   512
 187:c:/program/mingw/include\stdio.h **** 
 188:c:/program/mingw/include\stdio.h **** /* Constants for nOrigin indicating the position relative to which fseek
 189:c:/program/mingw/include\stdio.h ****  * sets the file position.  Defined unconditionally since ISO and POSIX
 190:c:/program/mingw/include\stdio.h ****  * say they are defined here.
 191:c:/program/mingw/include\stdio.h ****  */
 192:c:/program/mingw/include\stdio.h **** #define SEEK_SET	     0
 193:c:/program/mingw/include\stdio.h **** #define SEEK_CUR	     1
 194:c:/program/mingw/include\stdio.h **** #define SEEK_END	     2
 195:c:/program/mingw/include\stdio.h **** 
 196:c:/program/mingw/include\stdio.h **** #endif	/* _STDIO_H */
 197:c:/program/mingw/include\stdio.h **** 
 198:c:/program/mingw/include\stdio.h **** #ifndef RC_INVOKED
 199:c:/program/mingw/include\stdio.h **** #if ! (defined _STDIO_H && defined _WCHAR_H)
 200:c:/program/mingw/include\stdio.h **** /* The structure underlying the FILE type; this should be defined when
 201:c:/program/mingw/include\stdio.h ****  * including either <stdio.h> or <wchar.h>.  If both header include guards
 202:c:/program/mingw/include\stdio.h ****  * are now in place, then we must currently be including <stdio.h> in its
 203:c:/program/mingw/include\stdio.h ****  * own right, having already processed this block during a prior partial
 204:c:/program/mingw/include\stdio.h ****  * inclusion by <wchar.h>; there is no need to process it a second time.
 205:c:/program/mingw/include\stdio.h ****  *
 206:c:/program/mingw/include\stdio.h ****  * Some believe that nobody in their right mind should make use of the
 207:c:/program/mingw/include\stdio.h ****  * internals of this structure. Provided by Pedro A. Aranda Gutiirrez
 208:c:/program/mingw/include\stdio.h ****  * <paag@tid.es>.
 209:c:/program/mingw/include\stdio.h ****  */
 210:c:/program/mingw/include\stdio.h **** typedef struct _iobuf
 211:c:/program/mingw/include\stdio.h **** {
 212:c:/program/mingw/include\stdio.h ****   char	*_ptr;
 213:c:/program/mingw/include\stdio.h ****   int	 _cnt;
 214:c:/program/mingw/include\stdio.h ****   char	*_base;
 215:c:/program/mingw/include\stdio.h ****   int	 _flag;
 216:c:/program/mingw/include\stdio.h ****   int	 _file;
 217:c:/program/mingw/include\stdio.h ****   int	 _charbuf;
 218:c:/program/mingw/include\stdio.h ****   int	 _bufsiz;
 219:c:/program/mingw/include\stdio.h ****   char	*_tmpfname;
 220:c:/program/mingw/include\stdio.h **** } FILE;
 221:c:/program/mingw/include\stdio.h **** 
 222:c:/program/mingw/include\stdio.h **** #endif  /* ! (_STDIO_H && _WCHAR_H) */
GAS LISTING C:\Users\PRESID~1\AppData\Local\Temp\ccCA8Smq.s 			page 5


 223:c:/program/mingw/include\stdio.h **** #ifdef _STDIO_H
 224:c:/program/mingw/include\stdio.h **** /* Content to be exposed only when including <stdio.h> in its own right;
 225:c:/program/mingw/include\stdio.h ****  * these will not be exposed when __WCHAR_H_SOURCE__ is defined, as will
 226:c:/program/mingw/include\stdio.h ****  * be the case when <stdio.h> is included indirectly, by <wchar.h>
 227:c:/program/mingw/include\stdio.h ****  *
 228:c:/program/mingw/include\stdio.h ****  *
 229:c:/program/mingw/include\stdio.h ****  * The standard file handles
 230:c:/program/mingw/include\stdio.h ****  */
 231:c:/program/mingw/include\stdio.h **** #ifndef __DECLSPEC_SUPPORTED
 232:c:/program/mingw/include\stdio.h **** 
 233:c:/program/mingw/include\stdio.h **** extern FILE (*_imp___iob)[];	/* A pointer to an array of FILE */
 234:c:/program/mingw/include\stdio.h **** 
 235:c:/program/mingw/include\stdio.h **** #define _iob (*_imp___iob)	/* An array of FILE */
 236:c:/program/mingw/include\stdio.h **** 
 237:c:/program/mingw/include\stdio.h **** #else /* __DECLSPEC_SUPPORTED */
 238:c:/program/mingw/include\stdio.h **** 
 239:c:/program/mingw/include\stdio.h **** __MINGW_IMPORT FILE _iob[];	/* An array of FILE imported from DLL. */
 240:c:/program/mingw/include\stdio.h **** 
 241:c:/program/mingw/include\stdio.h **** #endif /* __DECLSPEC_SUPPORTED */
 242:c:/program/mingw/include\stdio.h **** 
 243:c:/program/mingw/include\stdio.h **** #define stdin	(&_iob[STDIN_FILENO])
 244:c:/program/mingw/include\stdio.h **** #define stdout	(&_iob[STDOUT_FILENO])
 245:c:/program/mingw/include\stdio.h **** #define stderr	(&_iob[STDERR_FILENO])
 246:c:/program/mingw/include\stdio.h **** 
 247:c:/program/mingw/include\stdio.h **** /* Need to close the current _STDIO_H specific block here...
 248:c:/program/mingw/include\stdio.h ****  */
 249:c:/program/mingw/include\stdio.h **** #endif
 250:c:/program/mingw/include\stdio.h **** /* ...because, we need this regardless of the inclusion mode...
 251:c:/program/mingw/include\stdio.h ****  */
 252:c:/program/mingw/include\stdio.h **** _BEGIN_C_DECLS
 253:c:/program/mingw/include\stdio.h **** 
 254:c:/program/mingw/include\stdio.h **** #ifdef _STDIO_H
 255:c:/program/mingw/include\stdio.h **** /* ...then revert to _STDIO_H specific mode, to declare...
 256:c:/program/mingw/include\stdio.h ****  *
 257:c:/program/mingw/include\stdio.h ****  *
 258:c:/program/mingw/include\stdio.h ****  * File Operations
 259:c:/program/mingw/include\stdio.h ****  */
 260:c:/program/mingw/include\stdio.h **** _CRTIMP __cdecl __MINGW_NOTHROW  FILE * fopen (const char *, const char *);
 261:c:/program/mingw/include\stdio.h **** _CRTIMP __cdecl __MINGW_NOTHROW  FILE * freopen (const char *, const char *, FILE *);
 262:c:/program/mingw/include\stdio.h **** _CRTIMP __cdecl __MINGW_NOTHROW  int    fflush (FILE *);
 263:c:/program/mingw/include\stdio.h **** _CRTIMP __cdecl __MINGW_NOTHROW  int    fclose (FILE *);
 264:c:/program/mingw/include\stdio.h **** 
 265:c:/program/mingw/include\stdio.h **** /* Note: Microsoft also declares remove & rename (but not their wide char
 266:c:/program/mingw/include\stdio.h ****  * variants) in <io.h>; since duplicate prototypes are acceptable, provided
 267:c:/program/mingw/include\stdio.h ****  * they are consistent, we simply declare them here anyway, while allowing
 268:c:/program/mingw/include\stdio.h ****  * the compiler to check consistency as appropriate.
 269:c:/program/mingw/include\stdio.h ****  */
 270:c:/program/mingw/include\stdio.h **** _CRTIMP __cdecl __MINGW_NOTHROW  int    remove (const char *);
 271:c:/program/mingw/include\stdio.h **** _CRTIMP __cdecl __MINGW_NOTHROW  int    rename (const char *, const char *);
 272:c:/program/mingw/include\stdio.h **** _CRTIMP __cdecl __MINGW_NOTHROW  FILE * tmpfile (void);
 273:c:/program/mingw/include\stdio.h **** _CRTIMP __cdecl __MINGW_NOTHROW  char * tmpnam (char *);
 274:c:/program/mingw/include\stdio.h **** 
 275:c:/program/mingw/include\stdio.h **** #ifndef __STRICT_ANSI__
 276:c:/program/mingw/include\stdio.h **** _CRTIMP __cdecl __MINGW_NOTHROW  char *_tempnam (const char *, const char *);
 277:c:/program/mingw/include\stdio.h **** _CRTIMP __cdecl __MINGW_NOTHROW  int   _rmtmp (void);
 278:c:/program/mingw/include\stdio.h **** _CRTIMP __cdecl __MINGW_NOTHROW  int   _unlink (const char *);
 279:c:/program/mingw/include\stdio.h **** 
GAS LISTING C:\Users\PRESID~1\AppData\Local\Temp\ccCA8Smq.s 			page 6


 280:c:/program/mingw/include\stdio.h **** #if __MSVCRT_VERSION__>=__MSVCR80_DLL
 281:c:/program/mingw/include\stdio.h **** /* The following pair of non-ANSI functions require a non-free version of
 282:c:/program/mingw/include\stdio.h ****  * the Microsoft runtime; neither is provided by any MSVCRT.DLL variant.
 283:c:/program/mingw/include\stdio.h ****  */
 284:c:/program/mingw/include\stdio.h **** _CRTIMP __cdecl __MINGW_NOTHROW  void  _lock_file(FILE *);
 285:c:/program/mingw/include\stdio.h **** _CRTIMP __cdecl __MINGW_NOTHROW  void  _unlock_file(FILE *);
 286:c:/program/mingw/include\stdio.h **** #endif
 287:c:/program/mingw/include\stdio.h **** 
 288:c:/program/mingw/include\stdio.h **** #ifndef NO_OLDNAMES
 289:c:/program/mingw/include\stdio.h **** _CRTIMP __cdecl __MINGW_NOTHROW  char * tempnam (const char *, const char *);
 290:c:/program/mingw/include\stdio.h **** _CRTIMP __cdecl __MINGW_NOTHROW  int    rmtmp (void);
 291:c:/program/mingw/include\stdio.h **** _CRTIMP __cdecl __MINGW_NOTHROW  int    unlink (const char *);
 292:c:/program/mingw/include\stdio.h **** #endif
 293:c:/program/mingw/include\stdio.h **** #endif /* __STRICT_ANSI__ */
 294:c:/program/mingw/include\stdio.h **** 
 295:c:/program/mingw/include\stdio.h **** _CRTIMP __cdecl __MINGW_NOTHROW  int    setvbuf (FILE *, char *, int, size_t);
 296:c:/program/mingw/include\stdio.h **** _CRTIMP __cdecl __MINGW_NOTHROW  void   setbuf (FILE *, char *);
 297:c:/program/mingw/include\stdio.h **** 
 298:c:/program/mingw/include\stdio.h **** /* Formatted Output
 299:c:/program/mingw/include\stdio.h ****  *
 300:c:/program/mingw/include\stdio.h ****  * MSVCRT implementations are not ANSI C99 conformant...
 301:c:/program/mingw/include\stdio.h ****  * we offer conforming alternatives from libmingwex.a
 302:c:/program/mingw/include\stdio.h ****  */
 303:c:/program/mingw/include\stdio.h **** #undef  __mingw_stdio_redirect__
 304:c:/program/mingw/include\stdio.h **** #define __mingw_stdio_redirect__(F) __cdecl __MINGW_NOTHROW __Wformat(F)
 305:c:/program/mingw/include\stdio.h **** #define __Wformat_mingw_printf(F,A) __attribute__((__format__(__mingw_printf__,F,A)))
 306:c:/program/mingw/include\stdio.h **** 
 307:c:/program/mingw/include\stdio.h **** #if __GNUC__ >= 6
 308:c:/program/mingw/include\stdio.h **** /* From GCC-6 onwards, we will provide customized -Wformat
 309:c:/program/mingw/include\stdio.h ****  * handling, via our own mingw_printf format category...
 310:c:/program/mingw/include\stdio.h ****  */
 311:c:/program/mingw/include\stdio.h **** #define __Wformat(F)		__Wformat_##F __mingw_##F
 312:c:/program/mingw/include\stdio.h **** 
 313:c:/program/mingw/include\stdio.h **** #else	/* __GNUC__ < 6 */
 314:c:/program/mingw/include\stdio.h **** /* ...whereas, for earlier GCC, we preserve the status quo,
 315:c:/program/mingw/include\stdio.h ****  * offering no -Wformat checking for those functions which
 316:c:/program/mingw/include\stdio.h ****  * replace the MSVCRT.DLL versions...
 317:c:/program/mingw/include\stdio.h ****  */
 318:c:/program/mingw/include\stdio.h **** #define __Wformat(F)		__mingw_##F
 319:c:/program/mingw/include\stdio.h **** 
 320:c:/program/mingw/include\stdio.h **** /* ...while degrading to gnu_printf checking for snprintf()
 321:c:/program/mingw/include\stdio.h ****  * and vsnprintf(), (which are ALWAYS MinGW.org variants).
 322:c:/program/mingw/include\stdio.h ****  */
 323:c:/program/mingw/include\stdio.h **** #define __mingw_printf__	__gnu_printf__
 324:c:/program/mingw/include\stdio.h **** #endif
 325:c:/program/mingw/include\stdio.h **** 
 326:c:/program/mingw/include\stdio.h **** /* The following convenience macros specify the appropriate
 327:c:/program/mingw/include\stdio.h ****  * -Wformat checking for MSVCRT.DLL replacement functions...
 328:c:/program/mingw/include\stdio.h ****  */
 329:c:/program/mingw/include\stdio.h **** #define __Wformat_printf	__Wformat_mingw_printf(1,2)
 330:c:/program/mingw/include\stdio.h **** #define __Wformat_fprintf	__Wformat_mingw_printf(2,3)
 331:c:/program/mingw/include\stdio.h **** #define __Wformat_sprintf	__Wformat_mingw_printf(2,3)
 332:c:/program/mingw/include\stdio.h **** #define __Wformat_vprintf	__Wformat_mingw_printf(1,0)
 333:c:/program/mingw/include\stdio.h **** #define __Wformat_vfprintf	__Wformat_mingw_printf(2,0)
 334:c:/program/mingw/include\stdio.h **** #define __Wformat_vsprintf	__Wformat_mingw_printf(2,0)
 335:c:/program/mingw/include\stdio.h **** 
 336:c:/program/mingw/include\stdio.h **** /* ...while this pair are specific to the two MinGW.org
GAS LISTING C:\Users\PRESID~1\AppData\Local\Temp\ccCA8Smq.s 			page 7


 337:c:/program/mingw/include\stdio.h ****  * only functions.
 338:c:/program/mingw/include\stdio.h ****  */
 339:c:/program/mingw/include\stdio.h **** #define __Wformat_snprintf	__Wformat_mingw_printf(3,4)
 340:c:/program/mingw/include\stdio.h **** #define __Wformat_vsnprintf	__Wformat_mingw_printf(3,0)
 341:c:/program/mingw/include\stdio.h **** 
 342:c:/program/mingw/include\stdio.h **** extern int __mingw_stdio_redirect__(fprintf)(FILE*, const char*, ...);
 343:c:/program/mingw/include\stdio.h **** extern int __mingw_stdio_redirect__(printf)(const char*, ...);
 344:c:/program/mingw/include\stdio.h **** extern int __mingw_stdio_redirect__(sprintf)(char*, const char*, ...);
 345:c:/program/mingw/include\stdio.h **** extern int __mingw_stdio_redirect__(snprintf)(char*, size_t, const char*, ...);
 346:c:/program/mingw/include\stdio.h **** extern int __mingw_stdio_redirect__(vfprintf)(FILE*, const char*, __VALIST);
 347:c:/program/mingw/include\stdio.h **** extern int __mingw_stdio_redirect__(vprintf)(const char*, __VALIST);
 348:c:/program/mingw/include\stdio.h **** extern int __mingw_stdio_redirect__(vsprintf)(char*, const char*, __VALIST);
 349:c:/program/mingw/include\stdio.h **** extern int __mingw_stdio_redirect__(vsnprintf)(char*, size_t, const char*, __VALIST);
 350:c:/program/mingw/include\stdio.h **** 
 351:c:/program/mingw/include\stdio.h **** /* When using these C99 conforming alternatives, we may wish to support
 352:c:/program/mingw/include\stdio.h ****  * some of Microsoft's quirky formatting options, even when they violate
 353:c:/program/mingw/include\stdio.h ****  * strict C99 conformance.
 354:c:/program/mingw/include\stdio.h ****  */
 355:c:/program/mingw/include\stdio.h **** #define _MSVC_PRINTF_QUIRKS		0x0100U
 356:c:/program/mingw/include\stdio.h **** #define _QUERY_MSVC_PRINTF_QUIRKS	~0U, 0U
 357:c:/program/mingw/include\stdio.h **** #define _DISABLE_MSVC_PRINTF_QUIRKS	~_MSVC_PRINTF_QUIRKS, 0U
 358:c:/program/mingw/include\stdio.h **** #define _ENABLE_MSVC_PRINTF_QUIRKS	~0U, _MSVC_PRINTF_QUIRKS
 359:c:/program/mingw/include\stdio.h **** 
 360:c:/program/mingw/include\stdio.h **** /* Those quirks which conflict with ANSI C99 specified behaviour are
 361:c:/program/mingw/include\stdio.h ****  * disabled by default; use the following function, like this:
 362:c:/program/mingw/include\stdio.h ****  *
 363:c:/program/mingw/include\stdio.h ****  *   _mingw_output_format_control( _ENABLE_MSVC_PRINTF_QUIRKS );
 364:c:/program/mingw/include\stdio.h ****  *
 365:c:/program/mingw/include\stdio.h ****  * to enable them, like this:
 366:c:/program/mingw/include\stdio.h ****  *
 367:c:/program/mingw/include\stdio.h ****  *   state = _mingw_output_format_control( _QUERY_MSVC_PRINTF_QUIRKS )
 368:c:/program/mingw/include\stdio.h ****  *		& _MSVC_PRINTF_QUIRKS;
 369:c:/program/mingw/include\stdio.h ****  *
 370:c:/program/mingw/include\stdio.h ****  * to ascertain the currently active enabled state, or like this:
 371:c:/program/mingw/include\stdio.h ****  *
 372:c:/program/mingw/include\stdio.h ****  *   _mingw_output_format_control( _DISABLE_MSVC_PRINTF_QUIRKS );
 373:c:/program/mingw/include\stdio.h ****  *
 374:c:/program/mingw/include\stdio.h ****  * to disable them again.
 375:c:/program/mingw/include\stdio.h ****  */
 376:c:/program/mingw/include\stdio.h **** extern unsigned int _mingw_output_format_control( unsigned int, unsigned int );
 377:c:/program/mingw/include\stdio.h **** 
 378:c:/program/mingw/include\stdio.h **** #if __USE_MINGW_ANSI_STDIO || defined _ISOC99_SOURCE
 379:c:/program/mingw/include\stdio.h **** /* User has expressed a preference for C99 conformance...
 380:c:/program/mingw/include\stdio.h ****  */
 381:c:/program/mingw/include\stdio.h **** # undef __mingw_stdio_redirect__
 382:c:/program/mingw/include\stdio.h **** # ifdef __cplusplus
 383:c:/program/mingw/include\stdio.h **** /* For C++ we use inline implementations, to avoid interference
 384:c:/program/mingw/include\stdio.h ****  * with namespace qualification, which may result from using #defines.
 385:c:/program/mingw/include\stdio.h ****  */
 386:c:/program/mingw/include\stdio.h **** #  define __mingw_stdio_redirect__  inline __cdecl __MINGW_NOTHROW
 387:c:/program/mingw/include\stdio.h **** 
 388:c:/program/mingw/include\stdio.h **** # elif defined __GNUC__
 389:c:/program/mingw/include\stdio.h **** /* FIXME: Is there any GCC version prerequisite here?
 390:c:/program/mingw/include\stdio.h ****  *
 391:c:/program/mingw/include\stdio.h ****  * We also prefer inline implementations for C, when we can be confident
 392:c:/program/mingw/include\stdio.h ****  * that the GNU specific __inline__ mechanism is supported.
 393:c:/program/mingw/include\stdio.h ****  */
GAS LISTING C:\Users\PRESID~1\AppData\Local\Temp\ccCA8Smq.s 			page 8


 394:c:/program/mingw/include\stdio.h **** #  define __mingw_stdio_redirect__  static __inline__ __cdecl __MINGW_NOTHROW
 395:c:/program/mingw/include\stdio.h **** 
 396:c:/program/mingw/include\stdio.h **** # else	/* Neither C++ nor __GNUC__ */
 397:c:/program/mingw/include\stdio.h **** /* Can't use inlines; fall back on module local static stubs.
 398:c:/program/mingw/include\stdio.h ****  */
 399:c:/program/mingw/include\stdio.h **** #  define __mingw_stdio_redirect__  static __cdecl __MINGW_NOTHROW
 400:c:/program/mingw/include\stdio.h **** 
 401:c:/program/mingw/include\stdio.h **** # endif	/* Neither C++ nor __GNUC__ */
 402:c:/program/mingw/include\stdio.h **** #endif	/* __USE_MINGW_ANSI_STDIO || defined _ISOC99_SOURCE */
 403:c:/program/mingw/include\stdio.h **** 
 404:c:/program/mingw/include\stdio.h **** #if __USE_MINGW_ANSI_STDIO
 405:c:/program/mingw/include\stdio.h **** /* The MinGW ISO-C conforming implementations of the printf() family
 406:c:/program/mingw/include\stdio.h ****  * of functions are to be used, in place of non-conforming Microsoft
 407:c:/program/mingw/include\stdio.h ****  * implementations; force call redirection, via the following set of
 408:c:/program/mingw/include\stdio.h ****  * in-line functions.
 409:c:/program/mingw/include\stdio.h ****  */
 410:c:/program/mingw/include\stdio.h **** __mingw_stdio_redirect__
 411:c:/program/mingw/include\stdio.h **** int fprintf (FILE *__stream, const char *__format, ...)
 412:c:/program/mingw/include\stdio.h **** {
   8              		.loc 1 412 1
   9              		.cfi_startproc
  10 0000 55       		pushl	%ebp
  11              		.cfi_def_cfa_offset 8
  12              		.cfi_offset 5, -8
  13 0001 89E5     		movl	%esp, %ebp
  14              		.cfi_def_cfa_register 5
  15 0003 53       		pushl	%ebx
  16 0004 83EC24   		subl	$36, %esp
  17              		.cfi_offset 3, -12
 413:c:/program/mingw/include\stdio.h ****   register int __retval;
 414:c:/program/mingw/include\stdio.h ****   __builtin_va_list __local_argv; __builtin_va_start( __local_argv, __format );
  18              		.loc 1 414 35
  19 0007 8D4510   		leal	16(%ebp), %eax
  20 000a 8945F4   		movl	%eax, -12(%ebp)
 415:c:/program/mingw/include\stdio.h ****   __retval = __mingw_vfprintf( __stream, __format, __local_argv );
  21              		.loc 1 415 14
  22 000d 8B45F4   		movl	-12(%ebp), %eax
  23 0010 89442408 		movl	%eax, 8(%esp)
  24 0014 8B450C   		movl	12(%ebp), %eax
  25 0017 89442404 		movl	%eax, 4(%esp)
  26 001b 8B4508   		movl	8(%ebp), %eax
  27 001e 890424   		movl	%eax, (%esp)
  28 0021 E8000000 		call	___mingw_vfprintf
  28      00
  29 0026 89C3     		movl	%eax, %ebx
 416:c:/program/mingw/include\stdio.h ****   __builtin_va_end( __local_argv );
 417:c:/program/mingw/include\stdio.h ****   return __retval;
  30              		.loc 1 417 10
  31 0028 89D8     		movl	%ebx, %eax
 418:c:/program/mingw/include\stdio.h **** }
  32              		.loc 1 418 1
  33 002a 83C424   		addl	$36, %esp
  34 002d 5B       		popl	%ebx
  35              		.cfi_restore 3
  36 002e 5D       		popl	%ebp
  37              		.cfi_restore 5
  38              		.cfi_def_cfa 4, 4
GAS LISTING C:\Users\PRESID~1\AppData\Local\Temp\ccCA8Smq.s 			page 9


  39 002f C3       		ret
  40              		.cfi_endproc
  41              	LFE0:
  42              	.lcomm ___sput,76,32
  44              	_count_vowels:
  45              	LFB14:
  46              		.file 2 "C:/Users/president/Desktop/sbx/input/src/os_base/os_start_ext_prg_test.c"
   1:C:/Users/president/Desktop/sbx/input/src/os_base\os_start_ext_prg_test.c **** #include <stdio.h>
   2:C:/Users/president/Desktop/sbx/input/src/os_base\os_start_ext_prg_test.c **** 
   3:C:/Users/president/Desktop/sbx/input/src/os_base\os_start_ext_prg_test.c **** #include "..\os_base\os_sput.h"
   4:C:/Users/president/Desktop/sbx/input/src/os_base\os_start_ext_prg_test.c **** 
   5:C:/Users/president/Desktop/sbx/input/src/os_base\os_start_ext_prg_test.c **** 
   6:C:/Users/president/Desktop/sbx/input/src/os_base\os_start_ext_prg_test.c **** /*
   7:C:/Users/president/Desktop/sbx/input/src/os_base\os_start_ext_prg_test.c ****  * count_vowels() counts the vowels present in a given string.
   8:C:/Users/president/Desktop/sbx/input/src/os_base\os_start_ext_prg_test.c ****  *
   9:C:/Users/president/Desktop/sbx/input/src/os_base\os_start_ext_prg_test.c ****  * While the function basically works as expected, it recognizes
  10:C:/Users/president/Desktop/sbx/input/src/os_base\os_start_ext_prg_test.c ****  * [aeiou] as vowels only and erroneously does not take uppercase
  11:C:/Users/president/Desktop/sbx/input/src/os_base\os_start_ext_prg_test.c ****  * vowels into account.
  12:C:/Users/president/Desktop/sbx/input/src/os_base\os_start_ext_prg_test.c ****  */
  13:C:/Users/president/Desktop/sbx/input/src/os_base\os_start_ext_prg_test.c **** static int count_vowels(const char *s)
  14:C:/Users/president/Desktop/sbx/input/src/os_base\os_start_ext_prg_test.c **** {
  47              		.loc 2 14 1
  48              		.cfi_startproc
  49 0030 55       		pushl	%ebp
  50              		.cfi_def_cfa_offset 8
  51              		.cfi_offset 5, -8
  52 0031 89E5     		movl	%esp, %ebp
  53              		.cfi_def_cfa_register 5
  54 0033 83EC10   		subl	$16, %esp
  15:C:/Users/president/Desktop/sbx/input/src/os_base\os_start_ext_prg_test.c ****    const char *cp    = s;
  55              		.loc 2 15 16
  56 0036 8B4508   		movl	8(%ebp), %eax
  57 0039 8945FC   		movl	%eax, -4(%ebp)
  16:C:/Users/president/Desktop/sbx/input/src/os_base\os_start_ext_prg_test.c ****    int         count = 0;
  58              		.loc 2 16 16
  59 003c C745F800 		movl	$0, -8(%ebp)
  59      000000
  17:C:/Users/president/Desktop/sbx/input/src/os_base\os_start_ext_prg_test.c **** 
  18:C:/Users/president/Desktop/sbx/input/src/os_base\os_start_ext_prg_test.c ****    while (*cp)
  60              		.loc 2 18 10
  61 0043 EB33     		jmp	L4
  62              	L7:
  19:C:/Users/president/Desktop/sbx/input/src/os_base\os_start_ext_prg_test.c ****    {
  20:C:/Users/president/Desktop/sbx/input/src/os_base\os_start_ext_prg_test.c ****       if (*cp == 'a' || *cp == 'e' || *cp == 'i' ||
  63              		.loc 2 20 11
  64 0045 8B45FC   		movl	-4(%ebp), %eax
  65 0048 8A00     		movb	(%eax), %al
  66              		.loc 2 20 10
  67 004a 3C61     		cmpb	$97, %al
  68 004c 7424     		je	L5
  69              		.loc 2 20 25 discriminator 1
  70 004e 8B45FC   		movl	-4(%ebp), %eax
  71 0051 8A00     		movb	(%eax), %al
  72              		.loc 2 20 22 discriminator 1
  73 0053 3C65     		cmpb	$101, %al
  74 0055 741B     		je	L5
  75              		.loc 2 20 39 discriminator 2
GAS LISTING C:\Users\PRESID~1\AppData\Local\Temp\ccCA8Smq.s 			page 10


  76 0057 8B45FC   		movl	-4(%ebp), %eax
  77 005a 8A00     		movb	(%eax), %al
  78              		.loc 2 20 36 discriminator 2
  79 005c 3C69     		cmpb	$105, %al
  80 005e 7412     		je	L5
  21:C:/Users/president/Desktop/sbx/input/src/os_base\os_start_ext_prg_test.c ****             *cp == 'o' || *cp == 'u')
  81              		.loc 2 21 13 discriminator 3
  82 0060 8B45FC   		movl	-4(%ebp), %eax
  83 0063 8A00     		movb	(%eax), %al
  20:C:/Users/president/Desktop/sbx/input/src/os_base\os_start_ext_prg_test.c ****             *cp == 'o' || *cp == 'u')
  84              		.loc 2 20 50 discriminator 3
  85 0065 3C6F     		cmpb	$111, %al
  86 0067 7409     		je	L5
  87              		.loc 2 21 27
  88 0069 8B45FC   		movl	-4(%ebp), %eax
  89 006c 8A00     		movb	(%eax), %al
  90              		.loc 2 21 24
  91 006e 3C75     		cmpb	$117, %al
  92 0070 7503     		jne	L6
  93              	L5:
  22:C:/Users/president/Desktop/sbx/input/src/os_base\os_start_ext_prg_test.c ****       {
  23:C:/Users/president/Desktop/sbx/input/src/os_base\os_start_ext_prg_test.c ****          count++;
  94              		.loc 2 23 15
  95 0072 FF45F8   		incl	-8(%ebp)
  96              	L6:
  24:C:/Users/president/Desktop/sbx/input/src/os_base\os_start_ext_prg_test.c ****       }
  25:C:/Users/president/Desktop/sbx/input/src/os_base\os_start_ext_prg_test.c **** 
  26:C:/Users/president/Desktop/sbx/input/src/os_base\os_start_ext_prg_test.c ****       cp++;
  97              		.loc 2 26 9
  98 0075 FF45FC   		incl	-4(%ebp)
  99              	L4:
  18:C:/Users/president/Desktop/sbx/input/src/os_base\os_start_ext_prg_test.c ****    {
 100              		.loc 2 18 11
 101 0078 8B45FC   		movl	-4(%ebp), %eax
 102 007b 8A00     		movb	(%eax), %al
  18:C:/Users/president/Desktop/sbx/input/src/os_base\os_start_ext_prg_test.c ****    {
 103              		.loc 2 18 10
 104 007d 84C0     		testb	%al, %al
 105 007f 75C4     		jne	L7
  27:C:/Users/president/Desktop/sbx/input/src/os_base\os_start_ext_prg_test.c ****    }
  28:C:/Users/president/Desktop/sbx/input/src/os_base\os_start_ext_prg_test.c **** 
  29:C:/Users/president/Desktop/sbx/input/src/os_base\os_start_ext_prg_test.c ****    return count;
 106              		.loc 2 29 11
 107 0081 8B45F8   		movl	-8(%ebp), %eax
  30:C:/Users/president/Desktop/sbx/input/src/os_base\os_start_ext_prg_test.c **** }
 108              		.loc 2 30 1
 109 0084 C9       		leave
 110              		.cfi_restore 5
 111              		.cfi_def_cfa 4, 4
 112 0085 C3       		ret
 113              		.cfi_endproc
 114              	LFE14:
 115              		.section .rdata,"dr"
 116              	LC0:
 117 0000 73707574 		.ascii "sput_start_testing() omitted\12\0"
 117      5F737461 
 117      72745F74 
GAS LISTING C:\Users\PRESID~1\AppData\Local\Temp\ccCA8Smq.s 			page 11


 117      65737469 
 117      6E672829 
 118              	LC1:
 119 001e 73707574 		.ascii "sput_enter_suite() omitted\12\0"
 119      5F656E74 
 119      65725F73 
 119      75697465 
 119      2829206F 
 120              	LC2:
 121 003a 73707574 		.ascii "sput_run_test() omitted\12\0"
 121      5F72756E 
 121      5F746573 
 121      74282920 
 121      6F6D6974 
 122              	LC3:
 123 0053 626F6F6B 		.ascii "book == 2v\0"
 123      203D3D20 
 123      327600
 124              	LC4:
 125 005e 636F756E 		.ascii "count_vowels(\"book\") == 2\0"
 125      745F766F 
 125      77656C73 
 125      2822626F 
 125      6F6B2229 
 126              	LC5:
 127 0078 6661696C 		.ascii "fail-unless\0"
 127      2D756E6C 
 127      65737300 
 128              	LC6:
 129 0084 626F6F6B 		.ascii "book\0"
 129      00
 130 0089 000000   		.align 4
 131              	LC7:
 132 008c 5B256C75 		.ascii "[%lu:%lu]  %s:#%lu  \"%s\"  FAIL\12!    Type:      %s\12!    Condition: %s\12!    Line:   
 132      3A256C75 
 132      5D202025 
 132      733A2325 
 132      6C752020 
 133 00e6 0000     		.align 4
 134              	LC8:
 135 00e8 5B256C75 		.ascii "[%lu:%lu]  %s:#%lu  \"%s\"  pass\12\0"
 135      3A256C75 
 135      5D202025 
 135      733A2325 
 135      6C752020 
 136              	LC9:
 137 0108 68616E64 		.ascii "hand == 1v\0"
 137      203D3D20 
 137      317600
 138              	LC10:
 139 0113 636F756E 		.ascii "count_vowels(\"hand\") == 1\0"
 139      745F766F 
 139      77656C73 
 139      28226861 
 139      6E642229 
 140              	LC11:
 141 012d 68616E64 		.ascii "hand\0"
GAS LISTING C:\Users\PRESID~1\AppData\Local\Temp\ccCA8Smq.s 			page 12


 141      00
 142              	LC12:
 143 0132 74657374 		.ascii "test == 1v\0"
 143      203D3D20 
 143      317600
 144              	LC13:
 145 013d 636F756E 		.ascii "count_vowels(\"test\") == 1\0"
 145      745F766F 
 145      77656C73 
 145      28227465 
 145      73742229 
 146              	LC14:
 147 0157 74657374 		.ascii "test\0"
 147      00
 148              	LC15:
 149 015c 50657465 		.ascii "Peter == 2v\0"
 149      72203D3D 
 149      20327600 
 150              	LC16:
 151 0168 636F756E 		.ascii "count_vowels(\"Peter\") == 2\0"
 151      745F766F 
 151      77656C73 
 151      28225065 
 151      74657222 
 152              	LC17:
 153 0183 50657465 		.ascii "Peter\0"
 153      7200
 154              	LC18:
 155 0189 41707520 		.ascii "Apu == 2v\0"
 155      3D3D2032 
 155      7600
 156              	LC19:
 157 0193 636F756E 		.ascii "count_vowels(\"Apu\") == 2\0"
 157      745F766F 
 157      77656C73 
 157      28224170 
 157      75222920 
 158              	LC20:
 159 01ac 41707500 		.ascii "Apu\0"
 160              		.text
 162              	_test_vowels_present:
 163              	LFB15:
  31:C:/Users/president/Desktop/sbx/input/src/os_base\os_start_ext_prg_test.c **** 
  32:C:/Users/president/Desktop/sbx/input/src/os_base\os_start_ext_prg_test.c **** 
  33:C:/Users/president/Desktop/sbx/input/src/os_base\os_start_ext_prg_test.c **** static void test_vowels_present()
  34:C:/Users/president/Desktop/sbx/input/src/os_base\os_start_ext_prg_test.c **** {
 164              		.loc 2 34 1
 165              		.cfi_startproc
 166 0086 55       		pushl	%ebp
 167              		.cfi_def_cfa_offset 8
 168              		.cfi_offset 5, -8
 169 0087 89E5     		movl	%esp, %ebp
 170              		.cfi_def_cfa_register 5
 171 0089 57       		pushl	%edi
 172 008a 56       		pushl	%esi
 173 008b 53       		pushl	%ebx
 174 008c 83EC4C   		subl	$76, %esp
GAS LISTING C:\Users\PRESID~1\AppData\Local\Temp\ccCA8Smq.s 			page 13


 175              		.cfi_offset 7, -12
 176              		.cfi_offset 6, -16
 177              		.cfi_offset 3, -20
  35:C:/Users/president/Desktop/sbx/input/src/os_base\os_start_ext_prg_test.c ****    sput_fail_unless(count_vowels("book")  == 2, "book == 2v");
 178              		.loc 2 35 4
 179 008f A0040000 		movb	___sput+4, %al
 179      00
 180 0094 3C06     		cmpb	$6, %al
 181 0096 7434     		je	L10
 182              		.loc 2 35 4 is_stmt 0 discriminator 1
 183 0098 A1000000 		movl	__imp___iob, %eax
 183      00
 184 009d 83C040   		addl	$64, %eax
 185 00a0 8944240C 		movl	%eax, 12(%esp)
 186 00a4 C7442408 		movl	$29, 8(%esp)
 186      1D000000 
 187 00ac C7442404 		movl	$1, 4(%esp)
 187      01000000 
 188 00b4 C7042400 		movl	$LC0, (%esp)
 188      000000
 189 00bb E8000000 		call	_fwrite
 189      00
 190 00c0 C7042401 		movl	$1, (%esp)
 190      000000
 191 00c7 E8000000 		call	_exit
 191      00
 192              	L10:
 193              		.loc 2 35 4 discriminator 2
 194 00cc A1180000 		movl	___sput+24, %eax
 194      00
 195 00d1 85C0     		testl	%eax, %eax
 196 00d3 7531     		jne	L11
 197              		.loc 2 35 4 discriminator 3
 198 00d5 A1000000 		movl	___sput, %eax
 198      00
 199 00da 8944240C 		movl	%eax, 12(%esp)
 200 00de C7442408 		movl	$27, 8(%esp)
 200      1B000000 
 201 00e6 C7442404 		movl	$1, 4(%esp)
 201      01000000 
 202 00ee C704241E 		movl	$LC1, (%esp)
 202      000000
 203 00f5 E8000000 		call	_fwrite
 203      00
 204 00fa C7042401 		movl	$1, (%esp)
 204      000000
 205 0101 E8000000 		call	_exit
 205      00
 206              	L11:
 207              		.loc 2 35 4 discriminator 4
 208 0106 A12C0000 		movl	___sput+44, %eax
 208      00
 209 010b 85C0     		testl	%eax, %eax
 210 010d 7531     		jne	L12
 211              		.loc 2 35 4 discriminator 5
 212 010f A1000000 		movl	___sput, %eax
 212      00
GAS LISTING C:\Users\PRESID~1\AppData\Local\Temp\ccCA8Smq.s 			page 14


 213 0114 8944240C 		movl	%eax, 12(%esp)
 214 0118 C7442408 		movl	$24, 8(%esp)
 214      18000000 
 215 0120 C7442404 		movl	$1, 4(%esp)
 215      01000000 
 216 0128 C704243A 		movl	$LC2, (%esp)
 216      000000
 217 012f E8000000 		call	_fwrite
 217      00
 218 0134 C7042401 		movl	$1, (%esp)
 218      000000
 219 013b E8000000 		call	_exit
 219      00
 220              	L12:
 221              		.loc 2 35 4 discriminator 6
 222 0140 C7053400 		movl	$LC3, ___sput+52
 222      00005300 
 222      0000
 223 014a C7054000 		movl	$35, ___sput+64
 223      00002300 
 223      0000
 224 0154 C7053800 		movl	$LC4, ___sput+56
 224      00005E00 
 224      0000
 225 015e C7053C00 		movl	$LC5, ___sput+60
 225      00007800 
 225      0000
 226 0168 A1300000 		movl	___sput+48, %eax
 226      00
 227 016d 40       		incl	%eax
 228 016e A3300000 		movl	%eax, ___sput+48
 228      00
 229 0173 A1200000 		movl	___sput+32, %eax
 229      00
 230 0178 40       		incl	%eax
 231 0179 A3200000 		movl	%eax, ___sput+32
 231      00
 232 017e C7042484 		movl	$LC6, (%esp)
 232      000000
 233 0185 E8A6FEFF 		call	_count_vowels
 233      FF
 234 018a 83F802   		cmpl	$2, %eax
 235 018d 0F84FD00 		je	L13
 235      0000
 236              		.loc 2 35 4 discriminator 7
 237 0193 A0040000 		movb	___sput+4, %al
 237      00
 238 0198 3C06     		cmpb	$6, %al
 239 019a 7434     		je	L14
 240              		.loc 2 35 4 discriminator 9
 241 019c A1000000 		movl	__imp___iob, %eax
 241      00
 242 01a1 83C040   		addl	$64, %eax
 243 01a4 8944240C 		movl	%eax, 12(%esp)
 244 01a8 C7442408 		movl	$29, 8(%esp)
 244      1D000000 
 245 01b0 C7442404 		movl	$1, 4(%esp)
GAS LISTING C:\Users\PRESID~1\AppData\Local\Temp\ccCA8Smq.s 			page 15


 245      01000000 
 246 01b8 C7042400 		movl	$LC0, (%esp)
 246      000000
 247 01bf E8000000 		call	_fwrite
 247      00
 248 01c4 C7042401 		movl	$1, (%esp)
 248      000000
 249 01cb E8000000 		call	_exit
 249      00
 250              	L14:
 251              		.loc 2 35 4 discriminator 10
 252 01d0 A1180000 		movl	___sput+24, %eax
 252      00
 253 01d5 85C0     		testl	%eax, %eax
 254 01d7 7531     		jne	L15
 255              		.loc 2 35 4 discriminator 11
 256 01d9 A1000000 		movl	___sput, %eax
 256      00
 257 01de 8944240C 		movl	%eax, 12(%esp)
 258 01e2 C7442408 		movl	$27, 8(%esp)
 258      1B000000 
 259 01ea C7442404 		movl	$1, 4(%esp)
 259      01000000 
 260 01f2 C704241E 		movl	$LC1, (%esp)
 260      000000
 261 01f9 E8000000 		call	_fwrite
 261      00
 262 01fe C7042401 		movl	$1, (%esp)
 262      000000
 263 0205 E8000000 		call	_exit
 263      00
 264              	L15:
 265              		.loc 2 35 4 discriminator 12
 266 020a A1280000 		movl	___sput+40, %eax
 266      00
 267 020f 40       		incl	%eax
 268 0210 A3280000 		movl	%eax, ___sput+40
 268      00
 269 0215 8B154000 		movl	___sput+64, %edx
 269      0000
 270 021b 8B1D3800 		movl	___sput+56, %ebx
 270      0000
 271 0221 A13C0000 		movl	___sput+60, %eax
 271      00
 272 0226 8945E4   		movl	%eax, -28(%ebp)
 273 0229 8B0D3400 		movl	___sput+52, %ecx
 273      0000
 274 022f 894DE0   		movl	%ecx, -32(%ebp)
 275 0232 8B353000 		movl	___sput+48, %esi
 275      0000
 276 0238 8975DC   		movl	%esi, -36(%ebp)
 277 023b 8B3D2C00 		movl	___sput+44, %edi
 277      0000
 278 0241 8B352000 		movl	___sput+32, %esi
 278      0000
 279 0247 8B0D1C00 		movl	___sput+28, %ecx
 279      0000
GAS LISTING C:\Users\PRESID~1\AppData\Local\Temp\ccCA8Smq.s 			page 16


 280 024d A1000000 		movl	___sput, %eax
 280      00
 281 0252 89542424 		movl	%edx, 36(%esp)
 282 0256 895C2420 		movl	%ebx, 32(%esp)
 283 025a 8B55E4   		movl	-28(%ebp), %edx
 284 025d 8954241C 		movl	%edx, 28(%esp)
 285 0261 8B5DE0   		movl	-32(%ebp), %ebx
 286 0264 895C2418 		movl	%ebx, 24(%esp)
 287 0268 8B55DC   		movl	-36(%ebp), %edx
 288 026b 89542414 		movl	%edx, 20(%esp)
 289 026f 897C2410 		movl	%edi, 16(%esp)
 290 0273 8974240C 		movl	%esi, 12(%esp)
 291 0277 894C2408 		movl	%ecx, 8(%esp)
 292 027b C7442404 		movl	$LC7, 4(%esp)
 292      8C000000 
 293 0283 890424   		movl	%eax, (%esp)
 294 0286 E875FDFF 		call	_fprintf
 294      FF
 295 028b E9C90000 		jmp	L16
 295      00
 296              	L13:
 297              		.loc 2 35 4 discriminator 8
 298 0290 A0040000 		movb	___sput+4, %al
 298      00
 299 0295 3C06     		cmpb	$6, %al
 300 0297 7434     		je	L17
 301              		.loc 2 35 4 discriminator 13
 302 0299 A1000000 		movl	__imp___iob, %eax
 302      00
 303 029e 83C040   		addl	$64, %eax
 304 02a1 8944240C 		movl	%eax, 12(%esp)
 305 02a5 C7442408 		movl	$29, 8(%esp)
 305      1D000000 
 306 02ad C7442404 		movl	$1, 4(%esp)
 306      01000000 
 307 02b5 C7042400 		movl	$LC0, (%esp)
 307      000000
 308 02bc E8000000 		call	_fwrite
 308      00
 309 02c1 C7042401 		movl	$1, (%esp)
 309      000000
 310 02c8 E8000000 		call	_exit
 310      00
 311              	L17:
 312              		.loc 2 35 4 discriminator 14
 313 02cd A1180000 		movl	___sput+24, %eax
 313      00
 314 02d2 85C0     		testl	%eax, %eax
 315 02d4 7531     		jne	L18
 316              		.loc 2 35 4 discriminator 15
 317 02d6 A1000000 		movl	___sput, %eax
 317      00
 318 02db 8944240C 		movl	%eax, 12(%esp)
 319 02df C7442408 		movl	$27, 8(%esp)
 319      1B000000 
 320 02e7 C7442404 		movl	$1, 4(%esp)
 320      01000000 
GAS LISTING C:\Users\PRESID~1\AppData\Local\Temp\ccCA8Smq.s 			page 17


 321 02ef C704241E 		movl	$LC1, (%esp)
 321      000000
 322 02f6 E8000000 		call	_fwrite
 322      00
 323 02fb C7042401 		movl	$1, (%esp)
 323      000000
 324 0302 E8000000 		call	_exit
 324      00
 325              	L18:
 326              		.loc 2 35 4 discriminator 16
 327 0307 A1240000 		movl	___sput+36, %eax
 327      00
 328 030c 40       		incl	%eax
 329 030d A3240000 		movl	%eax, ___sput+36
 329      00
 330 0312 8B3D3400 		movl	___sput+52, %edi
 330      0000
 331 0318 8B353000 		movl	___sput+48, %esi
 331      0000
 332 031e 8B1D2C00 		movl	___sput+44, %ebx
 332      0000
 333 0324 8B0D2000 		movl	___sput+32, %ecx
 333      0000
 334 032a 8B151C00 		movl	___sput+28, %edx
 334      0000
 335 0330 A1000000 		movl	___sput, %eax
 335      00
 336 0335 897C2418 		movl	%edi, 24(%esp)
 337 0339 89742414 		movl	%esi, 20(%esp)
 338 033d 895C2410 		movl	%ebx, 16(%esp)
 339 0341 894C240C 		movl	%ecx, 12(%esp)
 340 0345 89542408 		movl	%edx, 8(%esp)
 341 0349 C7442404 		movl	$LC8, 4(%esp)
 341      E8000000 
 342 0351 890424   		movl	%eax, (%esp)
 343 0354 E8A7FCFF 		call	_fprintf
 343      FF
 344              	L16:
  36:C:/Users/president/Desktop/sbx/input/src/os_base\os_start_ext_prg_test.c ****    sput_fail_unless(count_vowels("hand")  == 1, "hand == 1v");
 345              		.loc 2 36 4 is_stmt 1
 346 0359 A0040000 		movb	___sput+4, %al
 346      00
 347 035e 3C06     		cmpb	$6, %al
 348 0360 7434     		je	L19
 349              		.loc 2 36 4 is_stmt 0 discriminator 1
 350 0362 A1000000 		movl	__imp___iob, %eax
 350      00
 351 0367 83C040   		addl	$64, %eax
 352 036a 8944240C 		movl	%eax, 12(%esp)
 353 036e C7442408 		movl	$29, 8(%esp)
 353      1D000000 
 354 0376 C7442404 		movl	$1, 4(%esp)
 354      01000000 
 355 037e C7042400 		movl	$LC0, (%esp)
 355      000000
 356 0385 E8000000 		call	_fwrite
 356      00
GAS LISTING C:\Users\PRESID~1\AppData\Local\Temp\ccCA8Smq.s 			page 18


 357 038a C7042401 		movl	$1, (%esp)
 357      000000
 358 0391 E8000000 		call	_exit
 358      00
 359              	L19:
 360              		.loc 2 36 4 discriminator 2
 361 0396 A1180000 		movl	___sput+24, %eax
 361      00
 362 039b 85C0     		testl	%eax, %eax
 363 039d 7531     		jne	L20
 364              		.loc 2 36 4 discriminator 3
 365 039f A1000000 		movl	___sput, %eax
 365      00
 366 03a4 8944240C 		movl	%eax, 12(%esp)
 367 03a8 C7442408 		movl	$27, 8(%esp)
 367      1B000000 
 368 03b0 C7442404 		movl	$1, 4(%esp)
 368      01000000 
 369 03b8 C704241E 		movl	$LC1, (%esp)
 369      000000
 370 03bf E8000000 		call	_fwrite
 370      00
 371 03c4 C7042401 		movl	$1, (%esp)
 371      000000
 372 03cb E8000000 		call	_exit
 372      00
 373              	L20:
 374              		.loc 2 36 4 discriminator 4
 375 03d0 A12C0000 		movl	___sput+44, %eax
 375      00
 376 03d5 85C0     		testl	%eax, %eax
 377 03d7 7531     		jne	L21
 378              		.loc 2 36 4 discriminator 5
 379 03d9 A1000000 		movl	___sput, %eax
 379      00
 380 03de 8944240C 		movl	%eax, 12(%esp)
 381 03e2 C7442408 		movl	$24, 8(%esp)
 381      18000000 
 382 03ea C7442404 		movl	$1, 4(%esp)
 382      01000000 
 383 03f2 C704243A 		movl	$LC2, (%esp)
 383      000000
 384 03f9 E8000000 		call	_fwrite
 384      00
 385 03fe C7042401 		movl	$1, (%esp)
 385      000000
 386 0405 E8000000 		call	_exit
 386      00
 387              	L21:
 388              		.loc 2 36 4 discriminator 6
 389 040a C7053400 		movl	$LC9, ___sput+52
 389      00000801 
 389      0000
 390 0414 C7054000 		movl	$36, ___sput+64
 390      00002400 
 390      0000
 391 041e C7053800 		movl	$LC10, ___sput+56
GAS LISTING C:\Users\PRESID~1\AppData\Local\Temp\ccCA8Smq.s 			page 19


 391      00001301 
 391      0000
 392 0428 C7053C00 		movl	$LC5, ___sput+60
 392      00007800 
 392      0000
 393 0432 A1300000 		movl	___sput+48, %eax
 393      00
 394 0437 40       		incl	%eax
 395 0438 A3300000 		movl	%eax, ___sput+48
 395      00
 396 043d A1200000 		movl	___sput+32, %eax
 396      00
 397 0442 40       		incl	%eax
 398 0443 A3200000 		movl	%eax, ___sput+32
 398      00
 399 0448 C704242D 		movl	$LC11, (%esp)
 399      010000
 400 044f E8DCFBFF 		call	_count_vowels
 400      FF
 401 0454 83F801   		cmpl	$1, %eax
 402 0457 0F84FD00 		je	L22
 402      0000
 403              		.loc 2 36 4 discriminator 7
 404 045d A0040000 		movb	___sput+4, %al
 404      00
 405 0462 3C06     		cmpb	$6, %al
 406 0464 7434     		je	L23
 407              		.loc 2 36 4 discriminator 9
 408 0466 A1000000 		movl	__imp___iob, %eax
 408      00
 409 046b 83C040   		addl	$64, %eax
 410 046e 8944240C 		movl	%eax, 12(%esp)
 411 0472 C7442408 		movl	$29, 8(%esp)
 411      1D000000 
 412 047a C7442404 		movl	$1, 4(%esp)
 412      01000000 
 413 0482 C7042400 		movl	$LC0, (%esp)
 413      000000
 414 0489 E8000000 		call	_fwrite
 414      00
 415 048e C7042401 		movl	$1, (%esp)
 415      000000
 416 0495 E8000000 		call	_exit
 416      00
 417              	L23:
 418              		.loc 2 36 4 discriminator 10
 419 049a A1180000 		movl	___sput+24, %eax
 419      00
 420 049f 85C0     		testl	%eax, %eax
 421 04a1 7531     		jne	L24
 422              		.loc 2 36 4 discriminator 11
 423 04a3 A1000000 		movl	___sput, %eax
 423      00
 424 04a8 8944240C 		movl	%eax, 12(%esp)
 425 04ac C7442408 		movl	$27, 8(%esp)
 425      1B000000 
 426 04b4 C7442404 		movl	$1, 4(%esp)
GAS LISTING C:\Users\PRESID~1\AppData\Local\Temp\ccCA8Smq.s 			page 20


 426      01000000 
 427 04bc C704241E 		movl	$LC1, (%esp)
 427      000000
 428 04c3 E8000000 		call	_fwrite
 428      00
 429 04c8 C7042401 		movl	$1, (%esp)
 429      000000
 430 04cf E8000000 		call	_exit
 430      00
 431              	L24:
 432              		.loc 2 36 4 discriminator 12
 433 04d4 A1280000 		movl	___sput+40, %eax
 433      00
 434 04d9 40       		incl	%eax
 435 04da A3280000 		movl	%eax, ___sput+40
 435      00
 436 04df 8B154000 		movl	___sput+64, %edx
 436      0000
 437 04e5 8B1D3800 		movl	___sput+56, %ebx
 437      0000
 438 04eb A13C0000 		movl	___sput+60, %eax
 438      00
 439 04f0 8945E4   		movl	%eax, -28(%ebp)
 440 04f3 8B3D3400 		movl	___sput+52, %edi
 440      0000
 441 04f9 897DE0   		movl	%edi, -32(%ebp)
 442 04fc 8B0D3000 		movl	___sput+48, %ecx
 442      0000
 443 0502 894DDC   		movl	%ecx, -36(%ebp)
 444 0505 8B3D2C00 		movl	___sput+44, %edi
 444      0000
 445 050b 8B352000 		movl	___sput+32, %esi
 445      0000
 446 0511 8B0D1C00 		movl	___sput+28, %ecx
 446      0000
 447 0517 A1000000 		movl	___sput, %eax
 447      00
 448 051c 89542424 		movl	%edx, 36(%esp)
 449 0520 895C2420 		movl	%ebx, 32(%esp)
 450 0524 8B5DE4   		movl	-28(%ebp), %ebx
 451 0527 895C241C 		movl	%ebx, 28(%esp)
 452 052b 8B55E0   		movl	-32(%ebp), %edx
 453 052e 89542418 		movl	%edx, 24(%esp)
 454 0532 8B5DDC   		movl	-36(%ebp), %ebx
 455 0535 895C2414 		movl	%ebx, 20(%esp)
 456 0539 897C2410 		movl	%edi, 16(%esp)
 457 053d 8974240C 		movl	%esi, 12(%esp)
 458 0541 894C2408 		movl	%ecx, 8(%esp)
 459 0545 C7442404 		movl	$LC7, 4(%esp)
 459      8C000000 
 460 054d 890424   		movl	%eax, (%esp)
 461 0550 E8ABFAFF 		call	_fprintf
 461      FF
 462 0555 E9C90000 		jmp	L25
 462      00
 463              	L22:
 464              		.loc 2 36 4 discriminator 8
GAS LISTING C:\Users\PRESID~1\AppData\Local\Temp\ccCA8Smq.s 			page 21


 465 055a A0040000 		movb	___sput+4, %al
 465      00
 466 055f 3C06     		cmpb	$6, %al
 467 0561 7434     		je	L26
 468              		.loc 2 36 4 discriminator 13
 469 0563 A1000000 		movl	__imp___iob, %eax
 469      00
 470 0568 83C040   		addl	$64, %eax
 471 056b 8944240C 		movl	%eax, 12(%esp)
 472 056f C7442408 		movl	$29, 8(%esp)
 472      1D000000 
 473 0577 C7442404 		movl	$1, 4(%esp)
 473      01000000 
 474 057f C7042400 		movl	$LC0, (%esp)
 474      000000
 475 0586 E8000000 		call	_fwrite
 475      00
 476 058b C7042401 		movl	$1, (%esp)
 476      000000
 477 0592 E8000000 		call	_exit
 477      00
 478              	L26:
 479              		.loc 2 36 4 discriminator 14
 480 0597 A1180000 		movl	___sput+24, %eax
 480      00
 481 059c 85C0     		testl	%eax, %eax
 482 059e 7531     		jne	L27
 483              		.loc 2 36 4 discriminator 15
 484 05a0 A1000000 		movl	___sput, %eax
 484      00
 485 05a5 8944240C 		movl	%eax, 12(%esp)
 486 05a9 C7442408 		movl	$27, 8(%esp)
 486      1B000000 
 487 05b1 C7442404 		movl	$1, 4(%esp)
 487      01000000 
 488 05b9 C704241E 		movl	$LC1, (%esp)
 488      000000
 489 05c0 E8000000 		call	_fwrite
 489      00
 490 05c5 C7042401 		movl	$1, (%esp)
 490      000000
 491 05cc E8000000 		call	_exit
 491      00
 492              	L27:
 493              		.loc 2 36 4 discriminator 16
 494 05d1 A1240000 		movl	___sput+36, %eax
 494      00
 495 05d6 40       		incl	%eax
 496 05d7 A3240000 		movl	%eax, ___sput+36
 496      00
 497 05dc 8B3D3400 		movl	___sput+52, %edi
 497      0000
 498 05e2 8B353000 		movl	___sput+48, %esi
 498      0000
 499 05e8 8B1D2C00 		movl	___sput+44, %ebx
 499      0000
 500 05ee 8B0D2000 		movl	___sput+32, %ecx
GAS LISTING C:\Users\PRESID~1\AppData\Local\Temp\ccCA8Smq.s 			page 22


 500      0000
 501 05f4 8B151C00 		movl	___sput+28, %edx
 501      0000
 502 05fa A1000000 		movl	___sput, %eax
 502      00
 503 05ff 897C2418 		movl	%edi, 24(%esp)
 504 0603 89742414 		movl	%esi, 20(%esp)
 505 0607 895C2410 		movl	%ebx, 16(%esp)
 506 060b 894C240C 		movl	%ecx, 12(%esp)
 507 060f 89542408 		movl	%edx, 8(%esp)
 508 0613 C7442404 		movl	$LC8, 4(%esp)
 508      E8000000 
 509 061b 890424   		movl	%eax, (%esp)
 510 061e E8DDF9FF 		call	_fprintf
 510      FF
 511              	L25:
  37:C:/Users/president/Desktop/sbx/input/src/os_base\os_start_ext_prg_test.c ****    sput_fail_unless(count_vowels("test")  == 1, "test == 1v");
 512              		.loc 2 37 4 is_stmt 1
 513 0623 A0040000 		movb	___sput+4, %al
 513      00
 514 0628 3C06     		cmpb	$6, %al
 515 062a 7434     		je	L28
 516              		.loc 2 37 4 is_stmt 0 discriminator 1
 517 062c A1000000 		movl	__imp___iob, %eax
 517      00
 518 0631 83C040   		addl	$64, %eax
 519 0634 8944240C 		movl	%eax, 12(%esp)
 520 0638 C7442408 		movl	$29, 8(%esp)
 520      1D000000 
 521 0640 C7442404 		movl	$1, 4(%esp)
 521      01000000 
 522 0648 C7042400 		movl	$LC0, (%esp)
 522      000000
 523 064f E8000000 		call	_fwrite
 523      00
 524 0654 C7042401 		movl	$1, (%esp)
 524      000000
 525 065b E8000000 		call	_exit
 525      00
 526              	L28:
 527              		.loc 2 37 4 discriminator 2
 528 0660 A1180000 		movl	___sput+24, %eax
 528      00
 529 0665 85C0     		testl	%eax, %eax
 530 0667 7531     		jne	L29
 531              		.loc 2 37 4 discriminator 3
 532 0669 A1000000 		movl	___sput, %eax
 532      00
 533 066e 8944240C 		movl	%eax, 12(%esp)
 534 0672 C7442408 		movl	$27, 8(%esp)
 534      1B000000 
 535 067a C7442404 		movl	$1, 4(%esp)
 535      01000000 
 536 0682 C704241E 		movl	$LC1, (%esp)
 536      000000
 537 0689 E8000000 		call	_fwrite
 537      00
GAS LISTING C:\Users\PRESID~1\AppData\Local\Temp\ccCA8Smq.s 			page 23


 538 068e C7042401 		movl	$1, (%esp)
 538      000000
 539 0695 E8000000 		call	_exit
 539      00
 540              	L29:
 541              		.loc 2 37 4 discriminator 4
 542 069a A12C0000 		movl	___sput+44, %eax
 542      00
 543 069f 85C0     		testl	%eax, %eax
 544 06a1 7531     		jne	L30
 545              		.loc 2 37 4 discriminator 5
 546 06a3 A1000000 		movl	___sput, %eax
 546      00
 547 06a8 8944240C 		movl	%eax, 12(%esp)
 548 06ac C7442408 		movl	$24, 8(%esp)
 548      18000000 
 549 06b4 C7442404 		movl	$1, 4(%esp)
 549      01000000 
 550 06bc C704243A 		movl	$LC2, (%esp)
 550      000000
 551 06c3 E8000000 		call	_fwrite
 551      00
 552 06c8 C7042401 		movl	$1, (%esp)
 552      000000
 553 06cf E8000000 		call	_exit
 553      00
 554              	L30:
 555              		.loc 2 37 4 discriminator 6
 556 06d4 C7053400 		movl	$LC12, ___sput+52
 556      00003201 
 556      0000
 557 06de C7054000 		movl	$37, ___sput+64
 557      00002500 
 557      0000
 558 06e8 C7053800 		movl	$LC13, ___sput+56
 558      00003D01 
 558      0000
 559 06f2 C7053C00 		movl	$LC5, ___sput+60
 559      00007800 
 559      0000
 560 06fc A1300000 		movl	___sput+48, %eax
 560      00
 561 0701 40       		incl	%eax
 562 0702 A3300000 		movl	%eax, ___sput+48
 562      00
 563 0707 A1200000 		movl	___sput+32, %eax
 563      00
 564 070c 40       		incl	%eax
 565 070d A3200000 		movl	%eax, ___sput+32
 565      00
 566 0712 C7042457 		movl	$LC14, (%esp)
 566      010000
 567 0719 E812F9FF 		call	_count_vowels
 567      FF
 568 071e 83F801   		cmpl	$1, %eax
 569 0721 0F84FD00 		je	L31
 569      0000
GAS LISTING C:\Users\PRESID~1\AppData\Local\Temp\ccCA8Smq.s 			page 24


 570              		.loc 2 37 4 discriminator 7
 571 0727 A0040000 		movb	___sput+4, %al
 571      00
 572 072c 3C06     		cmpb	$6, %al
 573 072e 7434     		je	L32
 574              		.loc 2 37 4 discriminator 9
 575 0730 A1000000 		movl	__imp___iob, %eax
 575      00
 576 0735 83C040   		addl	$64, %eax
 577 0738 8944240C 		movl	%eax, 12(%esp)
 578 073c C7442408 		movl	$29, 8(%esp)
 578      1D000000 
 579 0744 C7442404 		movl	$1, 4(%esp)
 579      01000000 
 580 074c C7042400 		movl	$LC0, (%esp)
 580      000000
 581 0753 E8000000 		call	_fwrite
 581      00
 582 0758 C7042401 		movl	$1, (%esp)
 582      000000
 583 075f E8000000 		call	_exit
 583      00
 584              	L32:
 585              		.loc 2 37 4 discriminator 10
 586 0764 A1180000 		movl	___sput+24, %eax
 586      00
 587 0769 85C0     		testl	%eax, %eax
 588 076b 7531     		jne	L33
 589              		.loc 2 37 4 discriminator 11
 590 076d A1000000 		movl	___sput, %eax
 590      00
 591 0772 8944240C 		movl	%eax, 12(%esp)
 592 0776 C7442408 		movl	$27, 8(%esp)
 592      1B000000 
 593 077e C7442404 		movl	$1, 4(%esp)
 593      01000000 
 594 0786 C704241E 		movl	$LC1, (%esp)
 594      000000
 595 078d E8000000 		call	_fwrite
 595      00
 596 0792 C7042401 		movl	$1, (%esp)
 596      000000
 597 0799 E8000000 		call	_exit
 597      00
 598              	L33:
 599              		.loc 2 37 4 discriminator 12
 600 079e A1280000 		movl	___sput+40, %eax
 600      00
 601 07a3 40       		incl	%eax
 602 07a4 A3280000 		movl	%eax, ___sput+40
 602      00
 603 07a9 8B154000 		movl	___sput+64, %edx
 603      0000
 604 07af 8B1D3800 		movl	___sput+56, %ebx
 604      0000
 605 07b5 A13C0000 		movl	___sput+60, %eax
 605      00
GAS LISTING C:\Users\PRESID~1\AppData\Local\Temp\ccCA8Smq.s 			page 25


 606 07ba 8945E4   		movl	%eax, -28(%ebp)
 607 07bd 8B353400 		movl	___sput+52, %esi
 607      0000
 608 07c3 8975E0   		movl	%esi, -32(%ebp)
 609 07c6 8B3D3000 		movl	___sput+48, %edi
 609      0000
 610 07cc 897DDC   		movl	%edi, -36(%ebp)
 611 07cf 8B3D2C00 		movl	___sput+44, %edi
 611      0000
 612 07d5 8B352000 		movl	___sput+32, %esi
 612      0000
 613 07db 8B0D1C00 		movl	___sput+28, %ecx
 613      0000
 614 07e1 A1000000 		movl	___sput, %eax
 614      00
 615 07e6 89542424 		movl	%edx, 36(%esp)
 616 07ea 895C2420 		movl	%ebx, 32(%esp)
 617 07ee 8B55E4   		movl	-28(%ebp), %edx
 618 07f1 8954241C 		movl	%edx, 28(%esp)
 619 07f5 8B5DE0   		movl	-32(%ebp), %ebx
 620 07f8 895C2418 		movl	%ebx, 24(%esp)
 621 07fc 8B55DC   		movl	-36(%ebp), %edx
 622 07ff 89542414 		movl	%edx, 20(%esp)
 623 0803 897C2410 		movl	%edi, 16(%esp)
 624 0807 8974240C 		movl	%esi, 12(%esp)
 625 080b 894C2408 		movl	%ecx, 8(%esp)
 626 080f C7442404 		movl	$LC7, 4(%esp)
 626      8C000000 
 627 0817 890424   		movl	%eax, (%esp)
 628 081a E8E1F7FF 		call	_fprintf
 628      FF
 629 081f E9C90000 		jmp	L34
 629      00
 630              	L31:
 631              		.loc 2 37 4 discriminator 8
 632 0824 A0040000 		movb	___sput+4, %al
 632      00
 633 0829 3C06     		cmpb	$6, %al
 634 082b 7434     		je	L35
 635              		.loc 2 37 4 discriminator 13
 636 082d A1000000 		movl	__imp___iob, %eax
 636      00
 637 0832 83C040   		addl	$64, %eax
 638 0835 8944240C 		movl	%eax, 12(%esp)
 639 0839 C7442408 		movl	$29, 8(%esp)
 639      1D000000 
 640 0841 C7442404 		movl	$1, 4(%esp)
 640      01000000 
 641 0849 C7042400 		movl	$LC0, (%esp)
 641      000000
 642 0850 E8000000 		call	_fwrite
 642      00
 643 0855 C7042401 		movl	$1, (%esp)
 643      000000
 644 085c E8000000 		call	_exit
 644      00
 645              	L35:
GAS LISTING C:\Users\PRESID~1\AppData\Local\Temp\ccCA8Smq.s 			page 26


 646              		.loc 2 37 4 discriminator 14
 647 0861 A1180000 		movl	___sput+24, %eax
 647      00
 648 0866 85C0     		testl	%eax, %eax
 649 0868 7531     		jne	L36
 650              		.loc 2 37 4 discriminator 15
 651 086a A1000000 		movl	___sput, %eax
 651      00
 652 086f 8944240C 		movl	%eax, 12(%esp)
 653 0873 C7442408 		movl	$27, 8(%esp)
 653      1B000000 
 654 087b C7442404 		movl	$1, 4(%esp)
 654      01000000 
 655 0883 C704241E 		movl	$LC1, (%esp)
 655      000000
 656 088a E8000000 		call	_fwrite
 656      00
 657 088f C7042401 		movl	$1, (%esp)
 657      000000
 658 0896 E8000000 		call	_exit
 658      00
 659              	L36:
 660              		.loc 2 37 4 discriminator 16
 661 089b A1240000 		movl	___sput+36, %eax
 661      00
 662 08a0 40       		incl	%eax
 663 08a1 A3240000 		movl	%eax, ___sput+36
 663      00
 664 08a6 8B3D3400 		movl	___sput+52, %edi
 664      0000
 665 08ac 8B353000 		movl	___sput+48, %esi
 665      0000
 666 08b2 8B1D2C00 		movl	___sput+44, %ebx
 666      0000
 667 08b8 8B0D2000 		movl	___sput+32, %ecx
 667      0000
 668 08be 8B151C00 		movl	___sput+28, %edx
 668      0000
 669 08c4 A1000000 		movl	___sput, %eax
 669      00
 670 08c9 897C2418 		movl	%edi, 24(%esp)
 671 08cd 89742414 		movl	%esi, 20(%esp)
 672 08d1 895C2410 		movl	%ebx, 16(%esp)
 673 08d5 894C240C 		movl	%ecx, 12(%esp)
 674 08d9 89542408 		movl	%edx, 8(%esp)
 675 08dd C7442404 		movl	$LC8, 4(%esp)
 675      E8000000 
 676 08e5 890424   		movl	%eax, (%esp)
 677 08e8 E813F7FF 		call	_fprintf
 677      FF
 678              	L34:
  38:C:/Users/president/Desktop/sbx/input/src/os_base\os_start_ext_prg_test.c ****    sput_fail_unless(count_vowels("Peter") == 2, "Peter == 2v");
 679              		.loc 2 38 4 is_stmt 1
 680 08ed A0040000 		movb	___sput+4, %al
 680      00
 681 08f2 3C06     		cmpb	$6, %al
 682 08f4 7434     		je	L37
GAS LISTING C:\Users\PRESID~1\AppData\Local\Temp\ccCA8Smq.s 			page 27


 683              		.loc 2 38 4 is_stmt 0 discriminator 1
 684 08f6 A1000000 		movl	__imp___iob, %eax
 684      00
 685 08fb 83C040   		addl	$64, %eax
 686 08fe 8944240C 		movl	%eax, 12(%esp)
 687 0902 C7442408 		movl	$29, 8(%esp)
 687      1D000000 
 688 090a C7442404 		movl	$1, 4(%esp)
 688      01000000 
 689 0912 C7042400 		movl	$LC0, (%esp)
 689      000000
 690 0919 E8000000 		call	_fwrite
 690      00
 691 091e C7042401 		movl	$1, (%esp)
 691      000000
 692 0925 E8000000 		call	_exit
 692      00
 693              	L37:
 694              		.loc 2 38 4 discriminator 2
 695 092a A1180000 		movl	___sput+24, %eax
 695      00
 696 092f 85C0     		testl	%eax, %eax
 697 0931 7531     		jne	L38
 698              		.loc 2 38 4 discriminator 3
 699 0933 A1000000 		movl	___sput, %eax
 699      00
 700 0938 8944240C 		movl	%eax, 12(%esp)
 701 093c C7442408 		movl	$27, 8(%esp)
 701      1B000000 
 702 0944 C7442404 		movl	$1, 4(%esp)
 702      01000000 
 703 094c C704241E 		movl	$LC1, (%esp)
 703      000000
 704 0953 E8000000 		call	_fwrite
 704      00
 705 0958 C7042401 		movl	$1, (%esp)
 705      000000
 706 095f E8000000 		call	_exit
 706      00
 707              	L38:
 708              		.loc 2 38 4 discriminator 4
 709 0964 A12C0000 		movl	___sput+44, %eax
 709      00
 710 0969 85C0     		testl	%eax, %eax
 711 096b 7531     		jne	L39
 712              		.loc 2 38 4 discriminator 5
 713 096d A1000000 		movl	___sput, %eax
 713      00
 714 0972 8944240C 		movl	%eax, 12(%esp)
 715 0976 C7442408 		movl	$24, 8(%esp)
 715      18000000 
 716 097e C7442404 		movl	$1, 4(%esp)
 716      01000000 
 717 0986 C704243A 		movl	$LC2, (%esp)
 717      000000
 718 098d E8000000 		call	_fwrite
 718      00
GAS LISTING C:\Users\PRESID~1\AppData\Local\Temp\ccCA8Smq.s 			page 28


 719 0992 C7042401 		movl	$1, (%esp)
 719      000000
 720 0999 E8000000 		call	_exit
 720      00
 721              	L39:
 722              		.loc 2 38 4 discriminator 6
 723 099e C7053400 		movl	$LC15, ___sput+52
 723      00005C01 
 723      0000
 724 09a8 C7054000 		movl	$38, ___sput+64
 724      00002600 
 724      0000
 725 09b2 C7053800 		movl	$LC16, ___sput+56
 725      00006801 
 725      0000
 726 09bc C7053C00 		movl	$LC5, ___sput+60
 726      00007800 
 726      0000
 727 09c6 A1300000 		movl	___sput+48, %eax
 727      00
 728 09cb 40       		incl	%eax
 729 09cc A3300000 		movl	%eax, ___sput+48
 729      00
 730 09d1 A1200000 		movl	___sput+32, %eax
 730      00
 731 09d6 40       		incl	%eax
 732 09d7 A3200000 		movl	%eax, ___sput+32
 732      00
 733 09dc C7042483 		movl	$LC17, (%esp)
 733      010000
 734 09e3 E848F6FF 		call	_count_vowels
 734      FF
 735 09e8 83F802   		cmpl	$2, %eax
 736 09eb 0F84FD00 		je	L40
 736      0000
 737              		.loc 2 38 4 discriminator 7
 738 09f1 A0040000 		movb	___sput+4, %al
 738      00
 739 09f6 3C06     		cmpb	$6, %al
 740 09f8 7434     		je	L41
 741              		.loc 2 38 4 discriminator 9
 742 09fa A1000000 		movl	__imp___iob, %eax
 742      00
 743 09ff 83C040   		addl	$64, %eax
 744 0a02 8944240C 		movl	%eax, 12(%esp)
 745 0a06 C7442408 		movl	$29, 8(%esp)
 745      1D000000 
 746 0a0e C7442404 		movl	$1, 4(%esp)
 746      01000000 
 747 0a16 C7042400 		movl	$LC0, (%esp)
 747      000000
 748 0a1d E8000000 		call	_fwrite
 748      00
 749 0a22 C7042401 		movl	$1, (%esp)
 749      000000
 750 0a29 E8000000 		call	_exit
 750      00
GAS LISTING C:\Users\PRESID~1\AppData\Local\Temp\ccCA8Smq.s 			page 29


 751              	L41:
 752              		.loc 2 38 4 discriminator 10
 753 0a2e A1180000 		movl	___sput+24, %eax
 753      00
 754 0a33 85C0     		testl	%eax, %eax
 755 0a35 7531     		jne	L42
 756              		.loc 2 38 4 discriminator 11
 757 0a37 A1000000 		movl	___sput, %eax
 757      00
 758 0a3c 8944240C 		movl	%eax, 12(%esp)
 759 0a40 C7442408 		movl	$27, 8(%esp)
 759      1B000000 
 760 0a48 C7442404 		movl	$1, 4(%esp)
 760      01000000 
 761 0a50 C704241E 		movl	$LC1, (%esp)
 761      000000
 762 0a57 E8000000 		call	_fwrite
 762      00
 763 0a5c C7042401 		movl	$1, (%esp)
 763      000000
 764 0a63 E8000000 		call	_exit
 764      00
 765              	L42:
 766              		.loc 2 38 4 discriminator 12
 767 0a68 A1280000 		movl	___sput+40, %eax
 767      00
 768 0a6d 40       		incl	%eax
 769 0a6e A3280000 		movl	%eax, ___sput+40
 769      00
 770 0a73 8B154000 		movl	___sput+64, %edx
 770      0000
 771 0a79 8B1D3800 		movl	___sput+56, %ebx
 771      0000
 772 0a7f A13C0000 		movl	___sput+60, %eax
 772      00
 773 0a84 8945E4   		movl	%eax, -28(%ebp)
 774 0a87 8B0D3400 		movl	___sput+52, %ecx
 774      0000
 775 0a8d 894DE0   		movl	%ecx, -32(%ebp)
 776 0a90 8B353000 		movl	___sput+48, %esi
 776      0000
 777 0a96 8975DC   		movl	%esi, -36(%ebp)
 778 0a99 8B3D2C00 		movl	___sput+44, %edi
 778      0000
 779 0a9f 8B352000 		movl	___sput+32, %esi
 779      0000
 780 0aa5 8B0D1C00 		movl	___sput+28, %ecx
 780      0000
 781 0aab A1000000 		movl	___sput, %eax
 781      00
 782 0ab0 89542424 		movl	%edx, 36(%esp)
 783 0ab4 895C2420 		movl	%ebx, 32(%esp)
 784 0ab8 8B5DE4   		movl	-28(%ebp), %ebx
 785 0abb 895C241C 		movl	%ebx, 28(%esp)
 786 0abf 8B55E0   		movl	-32(%ebp), %edx
 787 0ac2 89542418 		movl	%edx, 24(%esp)
 788 0ac6 8B5DDC   		movl	-36(%ebp), %ebx
GAS LISTING C:\Users\PRESID~1\AppData\Local\Temp\ccCA8Smq.s 			page 30


 789 0ac9 895C2414 		movl	%ebx, 20(%esp)
 790 0acd 897C2410 		movl	%edi, 16(%esp)
 791 0ad1 8974240C 		movl	%esi, 12(%esp)
 792 0ad5 894C2408 		movl	%ecx, 8(%esp)
 793 0ad9 C7442404 		movl	$LC7, 4(%esp)
 793      8C000000 
 794 0ae1 890424   		movl	%eax, (%esp)
 795 0ae4 E817F5FF 		call	_fprintf
 795      FF
 796 0ae9 E9C90000 		jmp	L43
 796      00
 797              	L40:
 798              		.loc 2 38 4 discriminator 8
 799 0aee A0040000 		movb	___sput+4, %al
 799      00
 800 0af3 3C06     		cmpb	$6, %al
 801 0af5 7434     		je	L44
 802              		.loc 2 38 4 discriminator 13
 803 0af7 A1000000 		movl	__imp___iob, %eax
 803      00
 804 0afc 83C040   		addl	$64, %eax
 805 0aff 8944240C 		movl	%eax, 12(%esp)
 806 0b03 C7442408 		movl	$29, 8(%esp)
 806      1D000000 
 807 0b0b C7442404 		movl	$1, 4(%esp)
 807      01000000 
 808 0b13 C7042400 		movl	$LC0, (%esp)
 808      000000
 809 0b1a E8000000 		call	_fwrite
 809      00
 810 0b1f C7042401 		movl	$1, (%esp)
 810      000000
 811 0b26 E8000000 		call	_exit
 811      00
 812              	L44:
 813              		.loc 2 38 4 discriminator 14
 814 0b2b A1180000 		movl	___sput+24, %eax
 814      00
 815 0b30 85C0     		testl	%eax, %eax
 816 0b32 7531     		jne	L45
 817              		.loc 2 38 4 discriminator 15
 818 0b34 A1000000 		movl	___sput, %eax
 818      00
 819 0b39 8944240C 		movl	%eax, 12(%esp)
 820 0b3d C7442408 		movl	$27, 8(%esp)
 820      1B000000 
 821 0b45 C7442404 		movl	$1, 4(%esp)
 821      01000000 
 822 0b4d C704241E 		movl	$LC1, (%esp)
 822      000000
 823 0b54 E8000000 		call	_fwrite
 823      00
 824 0b59 C7042401 		movl	$1, (%esp)
 824      000000
 825 0b60 E8000000 		call	_exit
 825      00
 826              	L45:
GAS LISTING C:\Users\PRESID~1\AppData\Local\Temp\ccCA8Smq.s 			page 31


 827              		.loc 2 38 4 discriminator 16
 828 0b65 A1240000 		movl	___sput+36, %eax
 828      00
 829 0b6a 40       		incl	%eax
 830 0b6b A3240000 		movl	%eax, ___sput+36
 830      00
 831 0b70 8B3D3400 		movl	___sput+52, %edi
 831      0000
 832 0b76 8B353000 		movl	___sput+48, %esi
 832      0000
 833 0b7c 8B1D2C00 		movl	___sput+44, %ebx
 833      0000
 834 0b82 8B0D2000 		movl	___sput+32, %ecx
 834      0000
 835 0b88 8B151C00 		movl	___sput+28, %edx
 835      0000
 836 0b8e A1000000 		movl	___sput, %eax
 836      00
 837 0b93 897C2418 		movl	%edi, 24(%esp)
 838 0b97 89742414 		movl	%esi, 20(%esp)
 839 0b9b 895C2410 		movl	%ebx, 16(%esp)
 840 0b9f 894C240C 		movl	%ecx, 12(%esp)
 841 0ba3 89542408 		movl	%edx, 8(%esp)
 842 0ba7 C7442404 		movl	$LC8, 4(%esp)
 842      E8000000 
 843 0baf 890424   		movl	%eax, (%esp)
 844 0bb2 E849F4FF 		call	_fprintf
 844      FF
 845              	L43:
  39:C:/Users/president/Desktop/sbx/input/src/os_base\os_start_ext_prg_test.c ****    sput_fail_unless(count_vowels("Apu")   == 2, "Apu == 2v");
 846              		.loc 2 39 4 is_stmt 1
 847 0bb7 A0040000 		movb	___sput+4, %al
 847      00
 848 0bbc 3C06     		cmpb	$6, %al
 849 0bbe 7434     		je	L46
 850              		.loc 2 39 4 is_stmt 0 discriminator 1
 851 0bc0 A1000000 		movl	__imp___iob, %eax
 851      00
 852 0bc5 83C040   		addl	$64, %eax
 853 0bc8 8944240C 		movl	%eax, 12(%esp)
 854 0bcc C7442408 		movl	$29, 8(%esp)
 854      1D000000 
 855 0bd4 C7442404 		movl	$1, 4(%esp)
 855      01000000 
 856 0bdc C7042400 		movl	$LC0, (%esp)
 856      000000
 857 0be3 E8000000 		call	_fwrite
 857      00
 858 0be8 C7042401 		movl	$1, (%esp)
 858      000000
 859 0bef E8000000 		call	_exit
 859      00
 860              	L46:
 861              		.loc 2 39 4 discriminator 2
 862 0bf4 A1180000 		movl	___sput+24, %eax
 862      00
 863 0bf9 85C0     		testl	%eax, %eax
GAS LISTING C:\Users\PRESID~1\AppData\Local\Temp\ccCA8Smq.s 			page 32


 864 0bfb 7531     		jne	L47
 865              		.loc 2 39 4 discriminator 3
 866 0bfd A1000000 		movl	___sput, %eax
 866      00
 867 0c02 8944240C 		movl	%eax, 12(%esp)
 868 0c06 C7442408 		movl	$27, 8(%esp)
 868      1B000000 
 869 0c0e C7442404 		movl	$1, 4(%esp)
 869      01000000 
 870 0c16 C704241E 		movl	$LC1, (%esp)
 870      000000
 871 0c1d E8000000 		call	_fwrite
 871      00
 872 0c22 C7042401 		movl	$1, (%esp)
 872      000000
 873 0c29 E8000000 		call	_exit
 873      00
 874              	L47:
 875              		.loc 2 39 4 discriminator 4
 876 0c2e A12C0000 		movl	___sput+44, %eax
 876      00
 877 0c33 85C0     		testl	%eax, %eax
 878 0c35 7531     		jne	L48
 879              		.loc 2 39 4 discriminator 5
 880 0c37 A1000000 		movl	___sput, %eax
 880      00
 881 0c3c 8944240C 		movl	%eax, 12(%esp)
 882 0c40 C7442408 		movl	$24, 8(%esp)
 882      18000000 
 883 0c48 C7442404 		movl	$1, 4(%esp)
 883      01000000 
 884 0c50 C704243A 		movl	$LC2, (%esp)
 884      000000
 885 0c57 E8000000 		call	_fwrite
 885      00
 886 0c5c C7042401 		movl	$1, (%esp)
 886      000000
 887 0c63 E8000000 		call	_exit
 887      00
 888              	L48:
 889              		.loc 2 39 4 discriminator 6
 890 0c68 C7053400 		movl	$LC18, ___sput+52
 890      00008901 
 890      0000
 891 0c72 C7054000 		movl	$39, ___sput+64
 891      00002700 
 891      0000
 892 0c7c C7053800 		movl	$LC19, ___sput+56
 892      00009301 
 892      0000
 893 0c86 C7053C00 		movl	$LC5, ___sput+60
 893      00007800 
 893      0000
 894 0c90 A1300000 		movl	___sput+48, %eax
 894      00
 895 0c95 40       		incl	%eax
 896 0c96 A3300000 		movl	%eax, ___sput+48
GAS LISTING C:\Users\PRESID~1\AppData\Local\Temp\ccCA8Smq.s 			page 33


 896      00
 897 0c9b A1200000 		movl	___sput+32, %eax
 897      00
 898 0ca0 40       		incl	%eax
 899 0ca1 A3200000 		movl	%eax, ___sput+32
 899      00
 900 0ca6 C70424AC 		movl	$LC20, (%esp)
 900      010000
 901 0cad E87EF3FF 		call	_count_vowels
 901      FF
 902 0cb2 83F802   		cmpl	$2, %eax
 903 0cb5 0F84FD00 		je	L49
 903      0000
 904              		.loc 2 39 4 discriminator 7
 905 0cbb A0040000 		movb	___sput+4, %al
 905      00
 906 0cc0 3C06     		cmpb	$6, %al
 907 0cc2 7434     		je	L50
 908              		.loc 2 39 4 discriminator 9
 909 0cc4 A1000000 		movl	__imp___iob, %eax
 909      00
 910 0cc9 83C040   		addl	$64, %eax
 911 0ccc 8944240C 		movl	%eax, 12(%esp)
 912 0cd0 C7442408 		movl	$29, 8(%esp)
 912      1D000000 
 913 0cd8 C7442404 		movl	$1, 4(%esp)
 913      01000000 
 914 0ce0 C7042400 		movl	$LC0, (%esp)
 914      000000
 915 0ce7 E8000000 		call	_fwrite
 915      00
 916 0cec C7042401 		movl	$1, (%esp)
 916      000000
 917 0cf3 E8000000 		call	_exit
 917      00
 918              	L50:
 919              		.loc 2 39 4 discriminator 10
 920 0cf8 A1180000 		movl	___sput+24, %eax
 920      00
 921 0cfd 85C0     		testl	%eax, %eax
 922 0cff 7531     		jne	L51
 923              		.loc 2 39 4 discriminator 11
 924 0d01 A1000000 		movl	___sput, %eax
 924      00
 925 0d06 8944240C 		movl	%eax, 12(%esp)
 926 0d0a C7442408 		movl	$27, 8(%esp)
 926      1B000000 
 927 0d12 C7442404 		movl	$1, 4(%esp)
 927      01000000 
 928 0d1a C704241E 		movl	$LC1, (%esp)
 928      000000
 929 0d21 E8000000 		call	_fwrite
 929      00
 930 0d26 C7042401 		movl	$1, (%esp)
 930      000000
 931 0d2d E8000000 		call	_exit
 931      00
GAS LISTING C:\Users\PRESID~1\AppData\Local\Temp\ccCA8Smq.s 			page 34


 932              	L51:
 933              		.loc 2 39 4 discriminator 12
 934 0d32 A1280000 		movl	___sput+40, %eax
 934      00
 935 0d37 40       		incl	%eax
 936 0d38 A3280000 		movl	%eax, ___sput+40
 936      00
 937 0d3d 8B154000 		movl	___sput+64, %edx
 937      0000
 938 0d43 8B1D3800 		movl	___sput+56, %ebx
 938      0000
 939 0d49 A13C0000 		movl	___sput+60, %eax
 939      00
 940 0d4e 8945E4   		movl	%eax, -28(%ebp)
 941 0d51 8B3D3400 		movl	___sput+52, %edi
 941      0000
 942 0d57 897DE0   		movl	%edi, -32(%ebp)
 943 0d5a 8B0D3000 		movl	___sput+48, %ecx
 943      0000
 944 0d60 894DDC   		movl	%ecx, -36(%ebp)
 945 0d63 8B3D2C00 		movl	___sput+44, %edi
 945      0000
 946 0d69 8B352000 		movl	___sput+32, %esi
 946      0000
 947 0d6f 8B0D1C00 		movl	___sput+28, %ecx
 947      0000
 948 0d75 A1000000 		movl	___sput, %eax
 948      00
 949 0d7a 89542424 		movl	%edx, 36(%esp)
 950 0d7e 895C2420 		movl	%ebx, 32(%esp)
 951 0d82 8B55E4   		movl	-28(%ebp), %edx
 952 0d85 8954241C 		movl	%edx, 28(%esp)
 953 0d89 8B5DE0   		movl	-32(%ebp), %ebx
 954 0d8c 895C2418 		movl	%ebx, 24(%esp)
 955 0d90 8B55DC   		movl	-36(%ebp), %edx
 956 0d93 89542414 		movl	%edx, 20(%esp)
 957 0d97 897C2410 		movl	%edi, 16(%esp)
 958 0d9b 8974240C 		movl	%esi, 12(%esp)
 959 0d9f 894C2408 		movl	%ecx, 8(%esp)
 960 0da3 C7442404 		movl	$LC7, 4(%esp)
 960      8C000000 
 961 0dab 890424   		movl	%eax, (%esp)
 962 0dae E84DF2FF 		call	_fprintf
 962      FF
  40:C:/Users/president/Desktop/sbx/input/src/os_base\os_start_ext_prg_test.c **** }
 963              		.loc 2 40 1 is_stmt 1 discriminator 12
 964 0db3 E9C90000 		jmp	L55
 964      00
 965              	L49:
  39:C:/Users/president/Desktop/sbx/input/src/os_base\os_start_ext_prg_test.c ****    sput_fail_unless(count_vowels("Apu")   == 2, "Apu == 2v");
 966              		.loc 2 39 4 discriminator 8
 967 0db8 A0040000 		movb	___sput+4, %al
 967      00
 968 0dbd 3C06     		cmpb	$6, %al
 969 0dbf 7434     		je	L53
  39:C:/Users/president/Desktop/sbx/input/src/os_base\os_start_ext_prg_test.c ****    sput_fail_unless(count_vowels("Apu")   == 2, "Apu == 2v");
 970              		.loc 2 39 4 is_stmt 0 discriminator 13
GAS LISTING C:\Users\PRESID~1\AppData\Local\Temp\ccCA8Smq.s 			page 35


 971 0dc1 A1000000 		movl	__imp___iob, %eax
 971      00
 972 0dc6 83C040   		addl	$64, %eax
 973 0dc9 8944240C 		movl	%eax, 12(%esp)
 974 0dcd C7442408 		movl	$29, 8(%esp)
 974      1D000000 
 975 0dd5 C7442404 		movl	$1, 4(%esp)
 975      01000000 
 976 0ddd C7042400 		movl	$LC0, (%esp)
 976      000000
 977 0de4 E8000000 		call	_fwrite
 977      00
 978 0de9 C7042401 		movl	$1, (%esp)
 978      000000
 979 0df0 E8000000 		call	_exit
 979      00
 980              	L53:
  39:C:/Users/president/Desktop/sbx/input/src/os_base\os_start_ext_prg_test.c ****    sput_fail_unless(count_vowels("Apu")   == 2, "Apu == 2v");
 981              		.loc 2 39 4 discriminator 14
 982 0df5 A1180000 		movl	___sput+24, %eax
 982      00
 983 0dfa 85C0     		testl	%eax, %eax
 984 0dfc 7531     		jne	L54
  39:C:/Users/president/Desktop/sbx/input/src/os_base\os_start_ext_prg_test.c ****    sput_fail_unless(count_vowels("Apu")   == 2, "Apu == 2v");
 985              		.loc 2 39 4 discriminator 15
 986 0dfe A1000000 		movl	___sput, %eax
 986      00
 987 0e03 8944240C 		movl	%eax, 12(%esp)
 988 0e07 C7442408 		movl	$27, 8(%esp)
 988      1B000000 
 989 0e0f C7442404 		movl	$1, 4(%esp)
 989      01000000 
 990 0e17 C704241E 		movl	$LC1, (%esp)
 990      000000
 991 0e1e E8000000 		call	_fwrite
 991      00
 992 0e23 C7042401 		movl	$1, (%esp)
 992      000000
 993 0e2a E8000000 		call	_exit
 993      00
 994              	L54:
  39:C:/Users/president/Desktop/sbx/input/src/os_base\os_start_ext_prg_test.c ****    sput_fail_unless(count_vowels("Apu")   == 2, "Apu == 2v");
 995              		.loc 2 39 4 discriminator 16
 996 0e2f A1240000 		movl	___sput+36, %eax
 996      00
 997 0e34 40       		incl	%eax
 998 0e35 A3240000 		movl	%eax, ___sput+36
 998      00
 999 0e3a 8B3D3400 		movl	___sput+52, %edi
 999      0000
 1000 0e40 8B353000 		movl	___sput+48, %esi
 1000      0000
 1001 0e46 8B1D2C00 		movl	___sput+44, %ebx
 1001      0000
 1002 0e4c 8B0D2000 		movl	___sput+32, %ecx
 1002      0000
 1003 0e52 8B151C00 		movl	___sput+28, %edx
GAS LISTING C:\Users\PRESID~1\AppData\Local\Temp\ccCA8Smq.s 			page 36


 1003      0000
 1004 0e58 A1000000 		movl	___sput, %eax
 1004      00
 1005 0e5d 897C2418 		movl	%edi, 24(%esp)
 1006 0e61 89742414 		movl	%esi, 20(%esp)
 1007 0e65 895C2410 		movl	%ebx, 16(%esp)
 1008 0e69 894C240C 		movl	%ecx, 12(%esp)
 1009 0e6d 89542408 		movl	%edx, 8(%esp)
 1010 0e71 C7442404 		movl	$LC8, 4(%esp)
 1010      E8000000 
 1011 0e79 890424   		movl	%eax, (%esp)
 1012 0e7c E87FF1FF 		call	_fprintf
 1012      FF
 1013              	L55:
 1014              		.loc 2 40 1 is_stmt 1
 1015 0e81 90       		nop
 1016 0e82 83C44C   		addl	$76, %esp
 1017 0e85 5B       		popl	%ebx
 1018              		.cfi_restore 3
 1019 0e86 5E       		popl	%esi
 1020              		.cfi_restore 6
 1021 0e87 5F       		popl	%edi
 1022              		.cfi_restore 7
 1023 0e88 5D       		popl	%ebp
 1024              		.cfi_restore 5
 1025              		.cfi_def_cfa 4, 4
 1026 0e89 C3       		ret
 1027              		.cfi_endproc
 1028              	LFE15:
 1029              		.section .rdata,"dr"
 1030              	LC21:
 1031 01b0 47434320 		.ascii "GCC == 0v\0"
 1031      3D3D2030 
 1031      7600
 1032              	LC22:
 1033 01ba 636F756E 		.ascii "count_vowels(\"GCC\") == 0\0"
 1033      745F766F 
 1033      77656C73 
 1033      28224743 
 1033      43222920 
 1034              	LC23:
 1035 01d3 47434300 		.ascii "GCC\0"
 1036              	LC24:
 1037 01d7 42424320 		.ascii "BBC == 0v\0"
 1037      3D3D2030 
 1037      7600
 1038              	LC25:
 1039 01e1 636F756E 		.ascii "count_vowels(\"BBC\") == 0\0"
 1039      745F766F 
 1039      77656C73 
 1039      28224242 
 1039      43222920 
 1040              	LC26:
 1041 01fa 42424300 		.ascii "BBC\0"
 1042              	LC27:
 1043 01fe 434E4E20 		.ascii "CNN == 0v\0"
 1043      3D3D2030 
GAS LISTING C:\Users\PRESID~1\AppData\Local\Temp\ccCA8Smq.s 			page 37


 1043      7600
 1044              	LC28:
 1045 0208 636F756E 		.ascii "count_vowels(\"CNN\") == 0\0"
 1045      745F766F 
 1045      77656C73 
 1045      2822434E 
 1045      4E222920 
 1046              	LC29:
 1047 0221 434E4E00 		.ascii "CNN\0"
 1048              	LC30:
 1049 0225 47505320 		.ascii "GPS == 0v\0"
 1049      3D3D2030 
 1049      7600
 1050              	LC31:
 1051 022f 636F756E 		.ascii "count_vowels(\"GPS\") == 0\0"
 1051      745F766F 
 1051      77656C73 
 1051      28224750 
 1051      53222920 
 1052              	LC32:
 1053 0248 47505300 		.ascii "GPS\0"
 1054              	LC33:
 1055 024c 4C746420 		.ascii "Ltd == 0v\0"
 1055      3D3D2030 
 1055      7600
 1056              	LC34:
 1057 0256 636F756E 		.ascii "count_vowels(\"Ltd\") == 0\0"
 1057      745F766F 
 1057      77656C73 
 1057      28224C74 
 1057      64222920 
 1058              	LC35:
 1059 026f 4C746400 		.ascii "Ltd\0"
 1060              		.text
 1062              	_test_no_vowels_present:
 1063              	LFB16:
  41:C:/Users/president/Desktop/sbx/input/src/os_base\os_start_ext_prg_test.c **** 
  42:C:/Users/president/Desktop/sbx/input/src/os_base\os_start_ext_prg_test.c **** 
  43:C:/Users/president/Desktop/sbx/input/src/os_base\os_start_ext_prg_test.c **** static void test_no_vowels_present()
  44:C:/Users/president/Desktop/sbx/input/src/os_base\os_start_ext_prg_test.c **** {
 1064              		.loc 2 44 1
 1065              		.cfi_startproc
 1066 0e8a 55       		pushl	%ebp
 1067              		.cfi_def_cfa_offset 8
 1068              		.cfi_offset 5, -8
 1069 0e8b 89E5     		movl	%esp, %ebp
 1070              		.cfi_def_cfa_register 5
 1071 0e8d 57       		pushl	%edi
 1072 0e8e 56       		pushl	%esi
 1073 0e8f 53       		pushl	%ebx
 1074 0e90 83EC4C   		subl	$76, %esp
 1075              		.cfi_offset 7, -12
 1076              		.cfi_offset 6, -16
 1077              		.cfi_offset 3, -20
  45:C:/Users/president/Desktop/sbx/input/src/os_base\os_start_ext_prg_test.c ****    sput_fail_unless(count_vowels("GCC") == 0, "GCC == 0v");
 1078              		.loc 2 45 4
 1079 0e93 A0040000 		movb	___sput+4, %al
GAS LISTING C:\Users\PRESID~1\AppData\Local\Temp\ccCA8Smq.s 			page 38


 1079      00
 1080 0e98 3C06     		cmpb	$6, %al
 1081 0e9a 7434     		je	L57
 1082              		.loc 2 45 4 is_stmt 0 discriminator 1
 1083 0e9c A1000000 		movl	__imp___iob, %eax
 1083      00
 1084 0ea1 83C040   		addl	$64, %eax
 1085 0ea4 8944240C 		movl	%eax, 12(%esp)
 1086 0ea8 C7442408 		movl	$29, 8(%esp)
 1086      1D000000 
 1087 0eb0 C7442404 		movl	$1, 4(%esp)
 1087      01000000 
 1088 0eb8 C7042400 		movl	$LC0, (%esp)
 1088      000000
 1089 0ebf E8000000 		call	_fwrite
 1089      00
 1090 0ec4 C7042401 		movl	$1, (%esp)
 1090      000000
 1091 0ecb E8000000 		call	_exit
 1091      00
 1092              	L57:
 1093              		.loc 2 45 4 discriminator 2
 1094 0ed0 A1180000 		movl	___sput+24, %eax
 1094      00
 1095 0ed5 85C0     		testl	%eax, %eax
 1096 0ed7 7531     		jne	L58
 1097              		.loc 2 45 4 discriminator 3
 1098 0ed9 A1000000 		movl	___sput, %eax
 1098      00
 1099 0ede 8944240C 		movl	%eax, 12(%esp)
 1100 0ee2 C7442408 		movl	$27, 8(%esp)
 1100      1B000000 
 1101 0eea C7442404 		movl	$1, 4(%esp)
 1101      01000000 
 1102 0ef2 C704241E 		movl	$LC1, (%esp)
 1102      000000
 1103 0ef9 E8000000 		call	_fwrite
 1103      00
 1104 0efe C7042401 		movl	$1, (%esp)
 1104      000000
 1105 0f05 E8000000 		call	_exit
 1105      00
 1106              	L58:
 1107              		.loc 2 45 4 discriminator 4
 1108 0f0a A12C0000 		movl	___sput+44, %eax
 1108      00
 1109 0f0f 85C0     		testl	%eax, %eax
 1110 0f11 7531     		jne	L59
 1111              		.loc 2 45 4 discriminator 5
 1112 0f13 A1000000 		movl	___sput, %eax
 1112      00
 1113 0f18 8944240C 		movl	%eax, 12(%esp)
 1114 0f1c C7442408 		movl	$24, 8(%esp)
 1114      18000000 
 1115 0f24 C7442404 		movl	$1, 4(%esp)
 1115      01000000 
 1116 0f2c C704243A 		movl	$LC2, (%esp)
GAS LISTING C:\Users\PRESID~1\AppData\Local\Temp\ccCA8Smq.s 			page 39


 1116      000000
 1117 0f33 E8000000 		call	_fwrite
 1117      00
 1118 0f38 C7042401 		movl	$1, (%esp)
 1118      000000
 1119 0f3f E8000000 		call	_exit
 1119      00
 1120              	L59:
 1121              		.loc 2 45 4 discriminator 6
 1122 0f44 C7053400 		movl	$LC21, ___sput+52
 1122      0000B001 
 1122      0000
 1123 0f4e C7054000 		movl	$45, ___sput+64
 1123      00002D00 
 1123      0000
 1124 0f58 C7053800 		movl	$LC22, ___sput+56
 1124      0000BA01 
 1124      0000
 1125 0f62 C7053C00 		movl	$LC5, ___sput+60
 1125      00007800 
 1125      0000
 1126 0f6c A1300000 		movl	___sput+48, %eax
 1126      00
 1127 0f71 40       		incl	%eax
 1128 0f72 A3300000 		movl	%eax, ___sput+48
 1128      00
 1129 0f77 A1200000 		movl	___sput+32, %eax
 1129      00
 1130 0f7c 40       		incl	%eax
 1131 0f7d A3200000 		movl	%eax, ___sput+32
 1131      00
 1132 0f82 C70424D3 		movl	$LC23, (%esp)
 1132      010000
 1133 0f89 E8A2F0FF 		call	_count_vowels
 1133      FF
 1134 0f8e 85C0     		testl	%eax, %eax
 1135 0f90 0F84FD00 		je	L60
 1135      0000
 1136              		.loc 2 45 4 discriminator 7
 1137 0f96 A0040000 		movb	___sput+4, %al
 1137      00
 1138 0f9b 3C06     		cmpb	$6, %al
 1139 0f9d 7434     		je	L61
 1140              		.loc 2 45 4 discriminator 9
 1141 0f9f A1000000 		movl	__imp___iob, %eax
 1141      00
 1142 0fa4 83C040   		addl	$64, %eax
 1143 0fa7 8944240C 		movl	%eax, 12(%esp)
 1144 0fab C7442408 		movl	$29, 8(%esp)
 1144      1D000000 
 1145 0fb3 C7442404 		movl	$1, 4(%esp)
 1145      01000000 
 1146 0fbb C7042400 		movl	$LC0, (%esp)
 1146      000000
 1147 0fc2 E8000000 		call	_fwrite
 1147      00
 1148 0fc7 C7042401 		movl	$1, (%esp)
GAS LISTING C:\Users\PRESID~1\AppData\Local\Temp\ccCA8Smq.s 			page 40


 1148      000000
 1149 0fce E8000000 		call	_exit
 1149      00
 1150              	L61:
 1151              		.loc 2 45 4 discriminator 10
 1152 0fd3 A1180000 		movl	___sput+24, %eax
 1152      00
 1153 0fd8 85C0     		testl	%eax, %eax
 1154 0fda 7531     		jne	L62
 1155              		.loc 2 45 4 discriminator 11
 1156 0fdc A1000000 		movl	___sput, %eax
 1156      00
 1157 0fe1 8944240C 		movl	%eax, 12(%esp)
 1158 0fe5 C7442408 		movl	$27, 8(%esp)
 1158      1B000000 
 1159 0fed C7442404 		movl	$1, 4(%esp)
 1159      01000000 
 1160 0ff5 C704241E 		movl	$LC1, (%esp)
 1160      000000
 1161 0ffc E8000000 		call	_fwrite
 1161      00
 1162 1001 C7042401 		movl	$1, (%esp)
 1162      000000
 1163 1008 E8000000 		call	_exit
 1163      00
 1164              	L62:
 1165              		.loc 2 45 4 discriminator 12
 1166 100d A1280000 		movl	___sput+40, %eax
 1166      00
 1167 1012 40       		incl	%eax
 1168 1013 A3280000 		movl	%eax, ___sput+40
 1168      00
 1169 1018 8B154000 		movl	___sput+64, %edx
 1169      0000
 1170 101e 8B1D3800 		movl	___sput+56, %ebx
 1170      0000
 1171 1024 A13C0000 		movl	___sput+60, %eax
 1171      00
 1172 1029 8945E4   		movl	%eax, -28(%ebp)
 1173 102c 8B0D3400 		movl	___sput+52, %ecx
 1173      0000
 1174 1032 894DE0   		movl	%ecx, -32(%ebp)
 1175 1035 8B353000 		movl	___sput+48, %esi
 1175      0000
 1176 103b 8975DC   		movl	%esi, -36(%ebp)
 1177 103e 8B3D2C00 		movl	___sput+44, %edi
 1177      0000
 1178 1044 8B352000 		movl	___sput+32, %esi
 1178      0000
 1179 104a 8B0D1C00 		movl	___sput+28, %ecx
 1179      0000
 1180 1050 A1000000 		movl	___sput, %eax
 1180      00
 1181 1055 89542424 		movl	%edx, 36(%esp)
 1182 1059 895C2420 		movl	%ebx, 32(%esp)
 1183 105d 8B55E4   		movl	-28(%ebp), %edx
 1184 1060 8954241C 		movl	%edx, 28(%esp)
GAS LISTING C:\Users\PRESID~1\AppData\Local\Temp\ccCA8Smq.s 			page 41


 1185 1064 8B5DE0   		movl	-32(%ebp), %ebx
 1186 1067 895C2418 		movl	%ebx, 24(%esp)
 1187 106b 8B55DC   		movl	-36(%ebp), %edx
 1188 106e 89542414 		movl	%edx, 20(%esp)
 1189 1072 897C2410 		movl	%edi, 16(%esp)
 1190 1076 8974240C 		movl	%esi, 12(%esp)
 1191 107a 894C2408 		movl	%ecx, 8(%esp)
 1192 107e C7442404 		movl	$LC7, 4(%esp)
 1192      8C000000 
 1193 1086 890424   		movl	%eax, (%esp)
 1194 1089 E872EFFF 		call	_fprintf
 1194      FF
 1195 108e E9C90000 		jmp	L63
 1195      00
 1196              	L60:
 1197              		.loc 2 45 4 discriminator 8
 1198 1093 A0040000 		movb	___sput+4, %al
 1198      00
 1199 1098 3C06     		cmpb	$6, %al
 1200 109a 7434     		je	L64
 1201              		.loc 2 45 4 discriminator 13
 1202 109c A1000000 		movl	__imp___iob, %eax
 1202      00
 1203 10a1 83C040   		addl	$64, %eax
 1204 10a4 8944240C 		movl	%eax, 12(%esp)
 1205 10a8 C7442408 		movl	$29, 8(%esp)
 1205      1D000000 
 1206 10b0 C7442404 		movl	$1, 4(%esp)
 1206      01000000 
 1207 10b8 C7042400 		movl	$LC0, (%esp)
 1207      000000
 1208 10bf E8000000 		call	_fwrite
 1208      00
 1209 10c4 C7042401 		movl	$1, (%esp)
 1209      000000
 1210 10cb E8000000 		call	_exit
 1210      00
 1211              	L64:
 1212              		.loc 2 45 4 discriminator 14
 1213 10d0 A1180000 		movl	___sput+24, %eax
 1213      00
 1214 10d5 85C0     		testl	%eax, %eax
 1215 10d7 7531     		jne	L65
 1216              		.loc 2 45 4 discriminator 15
 1217 10d9 A1000000 		movl	___sput, %eax
 1217      00
 1218 10de 8944240C 		movl	%eax, 12(%esp)
 1219 10e2 C7442408 		movl	$27, 8(%esp)
 1219      1B000000 
 1220 10ea C7442404 		movl	$1, 4(%esp)
 1220      01000000 
 1221 10f2 C704241E 		movl	$LC1, (%esp)
 1221      000000
 1222 10f9 E8000000 		call	_fwrite
 1222      00
 1223 10fe C7042401 		movl	$1, (%esp)
 1223      000000
GAS LISTING C:\Users\PRESID~1\AppData\Local\Temp\ccCA8Smq.s 			page 42


 1224 1105 E8000000 		call	_exit
 1224      00
 1225              	L65:
 1226              		.loc 2 45 4 discriminator 16
 1227 110a A1240000 		movl	___sput+36, %eax
 1227      00
 1228 110f 40       		incl	%eax
 1229 1110 A3240000 		movl	%eax, ___sput+36
 1229      00
 1230 1115 8B3D3400 		movl	___sput+52, %edi
 1230      0000
 1231 111b 8B353000 		movl	___sput+48, %esi
 1231      0000
 1232 1121 8B1D2C00 		movl	___sput+44, %ebx
 1232      0000
 1233 1127 8B0D2000 		movl	___sput+32, %ecx
 1233      0000
 1234 112d 8B151C00 		movl	___sput+28, %edx
 1234      0000
 1235 1133 A1000000 		movl	___sput, %eax
 1235      00
 1236 1138 897C2418 		movl	%edi, 24(%esp)
 1237 113c 89742414 		movl	%esi, 20(%esp)
 1238 1140 895C2410 		movl	%ebx, 16(%esp)
 1239 1144 894C240C 		movl	%ecx, 12(%esp)
 1240 1148 89542408 		movl	%edx, 8(%esp)
 1241 114c C7442404 		movl	$LC8, 4(%esp)
 1241      E8000000 
 1242 1154 890424   		movl	%eax, (%esp)
 1243 1157 E8A4EEFF 		call	_fprintf
 1243      FF
 1244              	L63:
  46:C:/Users/president/Desktop/sbx/input/src/os_base\os_start_ext_prg_test.c ****    sput_fail_unless(count_vowels("BBC") == 0, "BBC == 0v");
 1245              		.loc 2 46 4 is_stmt 1
 1246 115c A0040000 		movb	___sput+4, %al
 1246      00
 1247 1161 3C06     		cmpb	$6, %al
 1248 1163 7434     		je	L66
 1249              		.loc 2 46 4 is_stmt 0 discriminator 1
 1250 1165 A1000000 		movl	__imp___iob, %eax
 1250      00
 1251 116a 83C040   		addl	$64, %eax
 1252 116d 8944240C 		movl	%eax, 12(%esp)
 1253 1171 C7442408 		movl	$29, 8(%esp)
 1253      1D000000 
 1254 1179 C7442404 		movl	$1, 4(%esp)
 1254      01000000 
 1255 1181 C7042400 		movl	$LC0, (%esp)
 1255      000000
 1256 1188 E8000000 		call	_fwrite
 1256      00
 1257 118d C7042401 		movl	$1, (%esp)
 1257      000000
 1258 1194 E8000000 		call	_exit
 1258      00
 1259              	L66:
 1260              		.loc 2 46 4 discriminator 2
GAS LISTING C:\Users\PRESID~1\AppData\Local\Temp\ccCA8Smq.s 			page 43


 1261 1199 A1180000 		movl	___sput+24, %eax
 1261      00
 1262 119e 85C0     		testl	%eax, %eax
 1263 11a0 7531     		jne	L67
 1264              		.loc 2 46 4 discriminator 3
 1265 11a2 A1000000 		movl	___sput, %eax
 1265      00
 1266 11a7 8944240C 		movl	%eax, 12(%esp)
 1267 11ab C7442408 		movl	$27, 8(%esp)
 1267      1B000000 
 1268 11b3 C7442404 		movl	$1, 4(%esp)
 1268      01000000 
 1269 11bb C704241E 		movl	$LC1, (%esp)
 1269      000000
 1270 11c2 E8000000 		call	_fwrite
 1270      00
 1271 11c7 C7042401 		movl	$1, (%esp)
 1271      000000
 1272 11ce E8000000 		call	_exit
 1272      00
 1273              	L67:
 1274              		.loc 2 46 4 discriminator 4
 1275 11d3 A12C0000 		movl	___sput+44, %eax
 1275      00
 1276 11d8 85C0     		testl	%eax, %eax
 1277 11da 7531     		jne	L68
 1278              		.loc 2 46 4 discriminator 5
 1279 11dc A1000000 		movl	___sput, %eax
 1279      00
 1280 11e1 8944240C 		movl	%eax, 12(%esp)
 1281 11e5 C7442408 		movl	$24, 8(%esp)
 1281      18000000 
 1282 11ed C7442404 		movl	$1, 4(%esp)
 1282      01000000 
 1283 11f5 C704243A 		movl	$LC2, (%esp)
 1283      000000
 1284 11fc E8000000 		call	_fwrite
 1284      00
 1285 1201 C7042401 		movl	$1, (%esp)
 1285      000000
 1286 1208 E8000000 		call	_exit
 1286      00
 1287              	L68:
 1288              		.loc 2 46 4 discriminator 6
 1289 120d C7053400 		movl	$LC24, ___sput+52
 1289      0000D701 
 1289      0000
 1290 1217 C7054000 		movl	$46, ___sput+64
 1290      00002E00 
 1290      0000
 1291 1221 C7053800 		movl	$LC25, ___sput+56
 1291      0000E101 
 1291      0000
 1292 122b C7053C00 		movl	$LC5, ___sput+60
 1292      00007800 
 1292      0000
 1293 1235 A1300000 		movl	___sput+48, %eax
GAS LISTING C:\Users\PRESID~1\AppData\Local\Temp\ccCA8Smq.s 			page 44


 1293      00
 1294 123a 40       		incl	%eax
 1295 123b A3300000 		movl	%eax, ___sput+48
 1295      00
 1296 1240 A1200000 		movl	___sput+32, %eax
 1296      00
 1297 1245 40       		incl	%eax
 1298 1246 A3200000 		movl	%eax, ___sput+32
 1298      00
 1299 124b C70424FA 		movl	$LC26, (%esp)
 1299      010000
 1300 1252 E8D9EDFF 		call	_count_vowels
 1300      FF
 1301 1257 85C0     		testl	%eax, %eax
 1302 1259 0F84FD00 		je	L69
 1302      0000
 1303              		.loc 2 46 4 discriminator 7
 1304 125f A0040000 		movb	___sput+4, %al
 1304      00
 1305 1264 3C06     		cmpb	$6, %al
 1306 1266 7434     		je	L70
 1307              		.loc 2 46 4 discriminator 9
 1308 1268 A1000000 		movl	__imp___iob, %eax
 1308      00
 1309 126d 83C040   		addl	$64, %eax
 1310 1270 8944240C 		movl	%eax, 12(%esp)
 1311 1274 C7442408 		movl	$29, 8(%esp)
 1311      1D000000 
 1312 127c C7442404 		movl	$1, 4(%esp)
 1312      01000000 
 1313 1284 C7042400 		movl	$LC0, (%esp)
 1313      000000
 1314 128b E8000000 		call	_fwrite
 1314      00
 1315 1290 C7042401 		movl	$1, (%esp)
 1315      000000
 1316 1297 E8000000 		call	_exit
 1316      00
 1317              	L70:
 1318              		.loc 2 46 4 discriminator 10
 1319 129c A1180000 		movl	___sput+24, %eax
 1319      00
 1320 12a1 85C0     		testl	%eax, %eax
 1321 12a3 7531     		jne	L71
 1322              		.loc 2 46 4 discriminator 11
 1323 12a5 A1000000 		movl	___sput, %eax
 1323      00
 1324 12aa 8944240C 		movl	%eax, 12(%esp)
 1325 12ae C7442408 		movl	$27, 8(%esp)
 1325      1B000000 
 1326 12b6 C7442404 		movl	$1, 4(%esp)
 1326      01000000 
 1327 12be C704241E 		movl	$LC1, (%esp)
 1327      000000
 1328 12c5 E8000000 		call	_fwrite
 1328      00
 1329 12ca C7042401 		movl	$1, (%esp)
GAS LISTING C:\Users\PRESID~1\AppData\Local\Temp\ccCA8Smq.s 			page 45


 1329      000000
 1330 12d1 E8000000 		call	_exit
 1330      00
 1331              	L71:
 1332              		.loc 2 46 4 discriminator 12
 1333 12d6 A1280000 		movl	___sput+40, %eax
 1333      00
 1334 12db 40       		incl	%eax
 1335 12dc A3280000 		movl	%eax, ___sput+40
 1335      00
 1336 12e1 8B154000 		movl	___sput+64, %edx
 1336      0000
 1337 12e7 8B1D3800 		movl	___sput+56, %ebx
 1337      0000
 1338 12ed A13C0000 		movl	___sput+60, %eax
 1338      00
 1339 12f2 8945E4   		movl	%eax, -28(%ebp)
 1340 12f5 8B3D3400 		movl	___sput+52, %edi
 1340      0000
 1341 12fb 897DE0   		movl	%edi, -32(%ebp)
 1342 12fe 8B0D3000 		movl	___sput+48, %ecx
 1342      0000
 1343 1304 894DDC   		movl	%ecx, -36(%ebp)
 1344 1307 8B3D2C00 		movl	___sput+44, %edi
 1344      0000
 1345 130d 8B352000 		movl	___sput+32, %esi
 1345      0000
 1346 1313 8B0D1C00 		movl	___sput+28, %ecx
 1346      0000
 1347 1319 A1000000 		movl	___sput, %eax
 1347      00
 1348 131e 89542424 		movl	%edx, 36(%esp)
 1349 1322 895C2420 		movl	%ebx, 32(%esp)
 1350 1326 8B5DE4   		movl	-28(%ebp), %ebx
 1351 1329 895C241C 		movl	%ebx, 28(%esp)
 1352 132d 8B55E0   		movl	-32(%ebp), %edx
 1353 1330 89542418 		movl	%edx, 24(%esp)
 1354 1334 8B5DDC   		movl	-36(%ebp), %ebx
 1355 1337 895C2414 		movl	%ebx, 20(%esp)
 1356 133b 897C2410 		movl	%edi, 16(%esp)
 1357 133f 8974240C 		movl	%esi, 12(%esp)
 1358 1343 894C2408 		movl	%ecx, 8(%esp)
 1359 1347 C7442404 		movl	$LC7, 4(%esp)
 1359      8C000000 
 1360 134f 890424   		movl	%eax, (%esp)
 1361 1352 E8A9ECFF 		call	_fprintf
 1361      FF
 1362 1357 E9C90000 		jmp	L72
 1362      00
 1363              	L69:
 1364              		.loc 2 46 4 discriminator 8
 1365 135c A0040000 		movb	___sput+4, %al
 1365      00
 1366 1361 3C06     		cmpb	$6, %al
 1367 1363 7434     		je	L73
 1368              		.loc 2 46 4 discriminator 13
 1369 1365 A1000000 		movl	__imp___iob, %eax
GAS LISTING C:\Users\PRESID~1\AppData\Local\Temp\ccCA8Smq.s 			page 46


 1369      00
 1370 136a 83C040   		addl	$64, %eax
 1371 136d 8944240C 		movl	%eax, 12(%esp)
 1372 1371 C7442408 		movl	$29, 8(%esp)
 1372      1D000000 
 1373 1379 C7442404 		movl	$1, 4(%esp)
 1373      01000000 
 1374 1381 C7042400 		movl	$LC0, (%esp)
 1374      000000
 1375 1388 E8000000 		call	_fwrite
 1375      00
 1376 138d C7042401 		movl	$1, (%esp)
 1376      000000
 1377 1394 E8000000 		call	_exit
 1377      00
 1378              	L73:
 1379              		.loc 2 46 4 discriminator 14
 1380 1399 A1180000 		movl	___sput+24, %eax
 1380      00
 1381 139e 85C0     		testl	%eax, %eax
 1382 13a0 7531     		jne	L74
 1383              		.loc 2 46 4 discriminator 15
 1384 13a2 A1000000 		movl	___sput, %eax
 1384      00
 1385 13a7 8944240C 		movl	%eax, 12(%esp)
 1386 13ab C7442408 		movl	$27, 8(%esp)
 1386      1B000000 
 1387 13b3 C7442404 		movl	$1, 4(%esp)
 1387      01000000 
 1388 13bb C704241E 		movl	$LC1, (%esp)
 1388      000000
 1389 13c2 E8000000 		call	_fwrite
 1389      00
 1390 13c7 C7042401 		movl	$1, (%esp)
 1390      000000
 1391 13ce E8000000 		call	_exit
 1391      00
 1392              	L74:
 1393              		.loc 2 46 4 discriminator 16
 1394 13d3 A1240000 		movl	___sput+36, %eax
 1394      00
 1395 13d8 40       		incl	%eax
 1396 13d9 A3240000 		movl	%eax, ___sput+36
 1396      00
 1397 13de 8B3D3400 		movl	___sput+52, %edi
 1397      0000
 1398 13e4 8B353000 		movl	___sput+48, %esi
 1398      0000
 1399 13ea 8B1D2C00 		movl	___sput+44, %ebx
 1399      0000
 1400 13f0 8B0D2000 		movl	___sput+32, %ecx
 1400      0000
 1401 13f6 8B151C00 		movl	___sput+28, %edx
 1401      0000
 1402 13fc A1000000 		movl	___sput, %eax
 1402      00
 1403 1401 897C2418 		movl	%edi, 24(%esp)
GAS LISTING C:\Users\PRESID~1\AppData\Local\Temp\ccCA8Smq.s 			page 47


 1404 1405 89742414 		movl	%esi, 20(%esp)
 1405 1409 895C2410 		movl	%ebx, 16(%esp)
 1406 140d 894C240C 		movl	%ecx, 12(%esp)
 1407 1411 89542408 		movl	%edx, 8(%esp)
 1408 1415 C7442404 		movl	$LC8, 4(%esp)
 1408      E8000000 
 1409 141d 890424   		movl	%eax, (%esp)
 1410 1420 E8DBEBFF 		call	_fprintf
 1410      FF
 1411              	L72:
  47:C:/Users/president/Desktop/sbx/input/src/os_base\os_start_ext_prg_test.c ****    sput_fail_unless(count_vowels("CNN") == 0, "CNN == 0v");
 1412              		.loc 2 47 4 is_stmt 1
 1413 1425 A0040000 		movb	___sput+4, %al
 1413      00
 1414 142a 3C06     		cmpb	$6, %al
 1415 142c 7434     		je	L75
 1416              		.loc 2 47 4 is_stmt 0 discriminator 1
 1417 142e A1000000 		movl	__imp___iob, %eax
 1417      00
 1418 1433 83C040   		addl	$64, %eax
 1419 1436 8944240C 		movl	%eax, 12(%esp)
 1420 143a C7442408 		movl	$29, 8(%esp)
 1420      1D000000 
 1421 1442 C7442404 		movl	$1, 4(%esp)
 1421      01000000 
 1422 144a C7042400 		movl	$LC0, (%esp)
 1422      000000
 1423 1451 E8000000 		call	_fwrite
 1423      00
 1424 1456 C7042401 		movl	$1, (%esp)
 1424      000000
 1425 145d E8000000 		call	_exit
 1425      00
 1426              	L75:
 1427              		.loc 2 47 4 discriminator 2
 1428 1462 A1180000 		movl	___sput+24, %eax
 1428      00
 1429 1467 85C0     		testl	%eax, %eax
 1430 1469 7531     		jne	L76
 1431              		.loc 2 47 4 discriminator 3
 1432 146b A1000000 		movl	___sput, %eax
 1432      00
 1433 1470 8944240C 		movl	%eax, 12(%esp)
 1434 1474 C7442408 		movl	$27, 8(%esp)
 1434      1B000000 
 1435 147c C7442404 		movl	$1, 4(%esp)
 1435      01000000 
 1436 1484 C704241E 		movl	$LC1, (%esp)
 1436      000000
 1437 148b E8000000 		call	_fwrite
 1437      00
 1438 1490 C7042401 		movl	$1, (%esp)
 1438      000000
 1439 1497 E8000000 		call	_exit
 1439      00
 1440              	L76:
 1441              		.loc 2 47 4 discriminator 4
GAS LISTING C:\Users\PRESID~1\AppData\Local\Temp\ccCA8Smq.s 			page 48


 1442 149c A12C0000 		movl	___sput+44, %eax
 1442      00
 1443 14a1 85C0     		testl	%eax, %eax
 1444 14a3 7531     		jne	L77
 1445              		.loc 2 47 4 discriminator 5
 1446 14a5 A1000000 		movl	___sput, %eax
 1446      00
 1447 14aa 8944240C 		movl	%eax, 12(%esp)
 1448 14ae C7442408 		movl	$24, 8(%esp)
 1448      18000000 
 1449 14b6 C7442404 		movl	$1, 4(%esp)
 1449      01000000 
 1450 14be C704243A 		movl	$LC2, (%esp)
 1450      000000
 1451 14c5 E8000000 		call	_fwrite
 1451      00
 1452 14ca C7042401 		movl	$1, (%esp)
 1452      000000
 1453 14d1 E8000000 		call	_exit
 1453      00
 1454              	L77:
 1455              		.loc 2 47 4 discriminator 6
 1456 14d6 C7053400 		movl	$LC27, ___sput+52
 1456      0000FE01 
 1456      0000
 1457 14e0 C7054000 		movl	$47, ___sput+64
 1457      00002F00 
 1457      0000
 1458 14ea C7053800 		movl	$LC28, ___sput+56
 1458      00000802 
 1458      0000
 1459 14f4 C7053C00 		movl	$LC5, ___sput+60
 1459      00007800 
 1459      0000
 1460 14fe A1300000 		movl	___sput+48, %eax
 1460      00
 1461 1503 40       		incl	%eax
 1462 1504 A3300000 		movl	%eax, ___sput+48
 1462      00
 1463 1509 A1200000 		movl	___sput+32, %eax
 1463      00
 1464 150e 40       		incl	%eax
 1465 150f A3200000 		movl	%eax, ___sput+32
 1465      00
 1466 1514 C7042421 		movl	$LC29, (%esp)
 1466      020000
 1467 151b E810EBFF 		call	_count_vowels
 1467      FF
 1468 1520 85C0     		testl	%eax, %eax
 1469 1522 0F84FD00 		je	L78
 1469      0000
 1470              		.loc 2 47 4 discriminator 7
 1471 1528 A0040000 		movb	___sput+4, %al
 1471      00
 1472 152d 3C06     		cmpb	$6, %al
 1473 152f 7434     		je	L79
 1474              		.loc 2 47 4 discriminator 9
GAS LISTING C:\Users\PRESID~1\AppData\Local\Temp\ccCA8Smq.s 			page 49


 1475 1531 A1000000 		movl	__imp___iob, %eax
 1475      00
 1476 1536 83C040   		addl	$64, %eax
 1477 1539 8944240C 		movl	%eax, 12(%esp)
 1478 153d C7442408 		movl	$29, 8(%esp)
 1478      1D000000 
 1479 1545 C7442404 		movl	$1, 4(%esp)
 1479      01000000 
 1480 154d C7042400 		movl	$LC0, (%esp)
 1480      000000
 1481 1554 E8000000 		call	_fwrite
 1481      00
 1482 1559 C7042401 		movl	$1, (%esp)
 1482      000000
 1483 1560 E8000000 		call	_exit
 1483      00
 1484              	L79:
 1485              		.loc 2 47 4 discriminator 10
 1486 1565 A1180000 		movl	___sput+24, %eax
 1486      00
 1487 156a 85C0     		testl	%eax, %eax
 1488 156c 7531     		jne	L80
 1489              		.loc 2 47 4 discriminator 11
 1490 156e A1000000 		movl	___sput, %eax
 1490      00
 1491 1573 8944240C 		movl	%eax, 12(%esp)
 1492 1577 C7442408 		movl	$27, 8(%esp)
 1492      1B000000 
 1493 157f C7442404 		movl	$1, 4(%esp)
 1493      01000000 
 1494 1587 C704241E 		movl	$LC1, (%esp)
 1494      000000
 1495 158e E8000000 		call	_fwrite
 1495      00
 1496 1593 C7042401 		movl	$1, (%esp)
 1496      000000
 1497 159a E8000000 		call	_exit
 1497      00
 1498              	L80:
 1499              		.loc 2 47 4 discriminator 12
 1500 159f A1280000 		movl	___sput+40, %eax
 1500      00
 1501 15a4 40       		incl	%eax
 1502 15a5 A3280000 		movl	%eax, ___sput+40
 1502      00
 1503 15aa 8B154000 		movl	___sput+64, %edx
 1503      0000
 1504 15b0 8B1D3800 		movl	___sput+56, %ebx
 1504      0000
 1505 15b6 A13C0000 		movl	___sput+60, %eax
 1505      00
 1506 15bb 8945E4   		movl	%eax, -28(%ebp)
 1507 15be 8B353400 		movl	___sput+52, %esi
 1507      0000
 1508 15c4 8975E0   		movl	%esi, -32(%ebp)
 1509 15c7 8B3D3000 		movl	___sput+48, %edi
 1509      0000
GAS LISTING C:\Users\PRESID~1\AppData\Local\Temp\ccCA8Smq.s 			page 50


 1510 15cd 897DDC   		movl	%edi, -36(%ebp)
 1511 15d0 8B3D2C00 		movl	___sput+44, %edi
 1511      0000
 1512 15d6 8B352000 		movl	___sput+32, %esi
 1512      0000
 1513 15dc 8B0D1C00 		movl	___sput+28, %ecx
 1513      0000
 1514 15e2 A1000000 		movl	___sput, %eax
 1514      00
 1515 15e7 89542424 		movl	%edx, 36(%esp)
 1516 15eb 895C2420 		movl	%ebx, 32(%esp)
 1517 15ef 8B55E4   		movl	-28(%ebp), %edx
 1518 15f2 8954241C 		movl	%edx, 28(%esp)
 1519 15f6 8B5DE0   		movl	-32(%ebp), %ebx
 1520 15f9 895C2418 		movl	%ebx, 24(%esp)
 1521 15fd 8B55DC   		movl	-36(%ebp), %edx
 1522 1600 89542414 		movl	%edx, 20(%esp)
 1523 1604 897C2410 		movl	%edi, 16(%esp)
 1524 1608 8974240C 		movl	%esi, 12(%esp)
 1525 160c 894C2408 		movl	%ecx, 8(%esp)
 1526 1610 C7442404 		movl	$LC7, 4(%esp)
 1526      8C000000 
 1527 1618 890424   		movl	%eax, (%esp)
 1528 161b E8E0E9FF 		call	_fprintf
 1528      FF
 1529 1620 E9C90000 		jmp	L81
 1529      00
 1530              	L78:
 1531              		.loc 2 47 4 discriminator 8
 1532 1625 A0040000 		movb	___sput+4, %al
 1532      00
 1533 162a 3C06     		cmpb	$6, %al
 1534 162c 7434     		je	L82
 1535              		.loc 2 47 4 discriminator 13
 1536 162e A1000000 		movl	__imp___iob, %eax
 1536      00
 1537 1633 83C040   		addl	$64, %eax
 1538 1636 8944240C 		movl	%eax, 12(%esp)
 1539 163a C7442408 		movl	$29, 8(%esp)
 1539      1D000000 
 1540 1642 C7442404 		movl	$1, 4(%esp)
 1540      01000000 
 1541 164a C7042400 		movl	$LC0, (%esp)
 1541      000000
 1542 1651 E8000000 		call	_fwrite
 1542      00
 1543 1656 C7042401 		movl	$1, (%esp)
 1543      000000
 1544 165d E8000000 		call	_exit
 1544      00
 1545              	L82:
 1546              		.loc 2 47 4 discriminator 14
 1547 1662 A1180000 		movl	___sput+24, %eax
 1547      00
 1548 1667 85C0     		testl	%eax, %eax
 1549 1669 7531     		jne	L83
 1550              		.loc 2 47 4 discriminator 15
GAS LISTING C:\Users\PRESID~1\AppData\Local\Temp\ccCA8Smq.s 			page 51


 1551 166b A1000000 		movl	___sput, %eax
 1551      00
 1552 1670 8944240C 		movl	%eax, 12(%esp)
 1553 1674 C7442408 		movl	$27, 8(%esp)
 1553      1B000000 
 1554 167c C7442404 		movl	$1, 4(%esp)
 1554      01000000 
 1555 1684 C704241E 		movl	$LC1, (%esp)
 1555      000000
 1556 168b E8000000 		call	_fwrite
 1556      00
 1557 1690 C7042401 		movl	$1, (%esp)
 1557      000000
 1558 1697 E8000000 		call	_exit
 1558      00
 1559              	L83:
 1560              		.loc 2 47 4 discriminator 16
 1561 169c A1240000 		movl	___sput+36, %eax
 1561      00
 1562 16a1 40       		incl	%eax
 1563 16a2 A3240000 		movl	%eax, ___sput+36
 1563      00
 1564 16a7 8B3D3400 		movl	___sput+52, %edi
 1564      0000
 1565 16ad 8B353000 		movl	___sput+48, %esi
 1565      0000
 1566 16b3 8B1D2C00 		movl	___sput+44, %ebx
 1566      0000
 1567 16b9 8B0D2000 		movl	___sput+32, %ecx
 1567      0000
 1568 16bf 8B151C00 		movl	___sput+28, %edx
 1568      0000
 1569 16c5 A1000000 		movl	___sput, %eax
 1569      00
 1570 16ca 897C2418 		movl	%edi, 24(%esp)
 1571 16ce 89742414 		movl	%esi, 20(%esp)
 1572 16d2 895C2410 		movl	%ebx, 16(%esp)
 1573 16d6 894C240C 		movl	%ecx, 12(%esp)
 1574 16da 89542408 		movl	%edx, 8(%esp)
 1575 16de C7442404 		movl	$LC8, 4(%esp)
 1575      E8000000 
 1576 16e6 890424   		movl	%eax, (%esp)
 1577 16e9 E812E9FF 		call	_fprintf
 1577      FF
 1578              	L81:
  48:C:/Users/president/Desktop/sbx/input/src/os_base\os_start_ext_prg_test.c ****    sput_fail_unless(count_vowels("GPS") == 0, "GPS == 0v");
 1579              		.loc 2 48 4 is_stmt 1
 1580 16ee A0040000 		movb	___sput+4, %al
 1580      00
 1581 16f3 3C06     		cmpb	$6, %al
 1582 16f5 7434     		je	L84
 1583              		.loc 2 48 4 is_stmt 0 discriminator 1
 1584 16f7 A1000000 		movl	__imp___iob, %eax
 1584      00
 1585 16fc 83C040   		addl	$64, %eax
 1586 16ff 8944240C 		movl	%eax, 12(%esp)
 1587 1703 C7442408 		movl	$29, 8(%esp)
GAS LISTING C:\Users\PRESID~1\AppData\Local\Temp\ccCA8Smq.s 			page 52


 1587      1D000000 
 1588 170b C7442404 		movl	$1, 4(%esp)
 1588      01000000 
 1589 1713 C7042400 		movl	$LC0, (%esp)
 1589      000000
 1590 171a E8000000 		call	_fwrite
 1590      00
 1591 171f C7042401 		movl	$1, (%esp)
 1591      000000
 1592 1726 E8000000 		call	_exit
 1592      00
 1593              	L84:
 1594              		.loc 2 48 4 discriminator 2
 1595 172b A1180000 		movl	___sput+24, %eax
 1595      00
 1596 1730 85C0     		testl	%eax, %eax
 1597 1732 7531     		jne	L85
 1598              		.loc 2 48 4 discriminator 3
 1599 1734 A1000000 		movl	___sput, %eax
 1599      00
 1600 1739 8944240C 		movl	%eax, 12(%esp)
 1601 173d C7442408 		movl	$27, 8(%esp)
 1601      1B000000 
 1602 1745 C7442404 		movl	$1, 4(%esp)
 1602      01000000 
 1603 174d C704241E 		movl	$LC1, (%esp)
 1603      000000
 1604 1754 E8000000 		call	_fwrite
 1604      00
 1605 1759 C7042401 		movl	$1, (%esp)
 1605      000000
 1606 1760 E8000000 		call	_exit
 1606      00
 1607              	L85:
 1608              		.loc 2 48 4 discriminator 4
 1609 1765 A12C0000 		movl	___sput+44, %eax
 1609      00
 1610 176a 85C0     		testl	%eax, %eax
 1611 176c 7531     		jne	L86
 1612              		.loc 2 48 4 discriminator 5
 1613 176e A1000000 		movl	___sput, %eax
 1613      00
 1614 1773 8944240C 		movl	%eax, 12(%esp)
 1615 1777 C7442408 		movl	$24, 8(%esp)
 1615      18000000 
 1616 177f C7442404 		movl	$1, 4(%esp)
 1616      01000000 
 1617 1787 C704243A 		movl	$LC2, (%esp)
 1617      000000
 1618 178e E8000000 		call	_fwrite
 1618      00
 1619 1793 C7042401 		movl	$1, (%esp)
 1619      000000
 1620 179a E8000000 		call	_exit
 1620      00
 1621              	L86:
 1622              		.loc 2 48 4 discriminator 6
GAS LISTING C:\Users\PRESID~1\AppData\Local\Temp\ccCA8Smq.s 			page 53


 1623 179f C7053400 		movl	$LC30, ___sput+52
 1623      00002502 
 1623      0000
 1624 17a9 C7054000 		movl	$48, ___sput+64
 1624      00003000 
 1624      0000
 1625 17b3 C7053800 		movl	$LC31, ___sput+56
 1625      00002F02 
 1625      0000
 1626 17bd C7053C00 		movl	$LC5, ___sput+60
 1626      00007800 
 1626      0000
 1627 17c7 A1300000 		movl	___sput+48, %eax
 1627      00
 1628 17cc 40       		incl	%eax
 1629 17cd A3300000 		movl	%eax, ___sput+48
 1629      00
 1630 17d2 A1200000 		movl	___sput+32, %eax
 1630      00
 1631 17d7 40       		incl	%eax
 1632 17d8 A3200000 		movl	%eax, ___sput+32
 1632      00
 1633 17dd C7042448 		movl	$LC32, (%esp)
 1633      020000
 1634 17e4 E847E8FF 		call	_count_vowels
 1634      FF
 1635 17e9 85C0     		testl	%eax, %eax
 1636 17eb 0F84FD00 		je	L87
 1636      0000
 1637              		.loc 2 48 4 discriminator 7
 1638 17f1 A0040000 		movb	___sput+4, %al
 1638      00
 1639 17f6 3C06     		cmpb	$6, %al
 1640 17f8 7434     		je	L88
 1641              		.loc 2 48 4 discriminator 9
 1642 17fa A1000000 		movl	__imp___iob, %eax
 1642      00
 1643 17ff 83C040   		addl	$64, %eax
 1644 1802 8944240C 		movl	%eax, 12(%esp)
 1645 1806 C7442408 		movl	$29, 8(%esp)
 1645      1D000000 
 1646 180e C7442404 		movl	$1, 4(%esp)
 1646      01000000 
 1647 1816 C7042400 		movl	$LC0, (%esp)
 1647      000000
 1648 181d E8000000 		call	_fwrite
 1648      00
 1649 1822 C7042401 		movl	$1, (%esp)
 1649      000000
 1650 1829 E8000000 		call	_exit
 1650      00
 1651              	L88:
 1652              		.loc 2 48 4 discriminator 10
 1653 182e A1180000 		movl	___sput+24, %eax
 1653      00
 1654 1833 85C0     		testl	%eax, %eax
 1655 1835 7531     		jne	L89
GAS LISTING C:\Users\PRESID~1\AppData\Local\Temp\ccCA8Smq.s 			page 54


 1656              		.loc 2 48 4 discriminator 11
 1657 1837 A1000000 		movl	___sput, %eax
 1657      00
 1658 183c 8944240C 		movl	%eax, 12(%esp)
 1659 1840 C7442408 		movl	$27, 8(%esp)
 1659      1B000000 
 1660 1848 C7442404 		movl	$1, 4(%esp)
 1660      01000000 
 1661 1850 C704241E 		movl	$LC1, (%esp)
 1661      000000
 1662 1857 E8000000 		call	_fwrite
 1662      00
 1663 185c C7042401 		movl	$1, (%esp)
 1663      000000
 1664 1863 E8000000 		call	_exit
 1664      00
 1665              	L89:
 1666              		.loc 2 48 4 discriminator 12
 1667 1868 A1280000 		movl	___sput+40, %eax
 1667      00
 1668 186d 40       		incl	%eax
 1669 186e A3280000 		movl	%eax, ___sput+40
 1669      00
 1670 1873 8B154000 		movl	___sput+64, %edx
 1670      0000
 1671 1879 8B1D3800 		movl	___sput+56, %ebx
 1671      0000
 1672 187f A13C0000 		movl	___sput+60, %eax
 1672      00
 1673 1884 8945E4   		movl	%eax, -28(%ebp)
 1674 1887 8B0D3400 		movl	___sput+52, %ecx
 1674      0000
 1675 188d 894DE0   		movl	%ecx, -32(%ebp)
 1676 1890 8B353000 		movl	___sput+48, %esi
 1676      0000
 1677 1896 8975DC   		movl	%esi, -36(%ebp)
 1678 1899 8B3D2C00 		movl	___sput+44, %edi
 1678      0000
 1679 189f 8B352000 		movl	___sput+32, %esi
 1679      0000
 1680 18a5 8B0D1C00 		movl	___sput+28, %ecx
 1680      0000
 1681 18ab A1000000 		movl	___sput, %eax
 1681      00
 1682 18b0 89542424 		movl	%edx, 36(%esp)
 1683 18b4 895C2420 		movl	%ebx, 32(%esp)
 1684 18b8 8B5DE4   		movl	-28(%ebp), %ebx
 1685 18bb 895C241C 		movl	%ebx, 28(%esp)
 1686 18bf 8B55E0   		movl	-32(%ebp), %edx
 1687 18c2 89542418 		movl	%edx, 24(%esp)
 1688 18c6 8B5DDC   		movl	-36(%ebp), %ebx
 1689 18c9 895C2414 		movl	%ebx, 20(%esp)
 1690 18cd 897C2410 		movl	%edi, 16(%esp)
 1691 18d1 8974240C 		movl	%esi, 12(%esp)
 1692 18d5 894C2408 		movl	%ecx, 8(%esp)
 1693 18d9 C7442404 		movl	$LC7, 4(%esp)
 1693      8C000000 
GAS LISTING C:\Users\PRESID~1\AppData\Local\Temp\ccCA8Smq.s 			page 55


 1694 18e1 890424   		movl	%eax, (%esp)
 1695 18e4 E817E7FF 		call	_fprintf
 1695      FF
 1696 18e9 E9C90000 		jmp	L90
 1696      00
 1697              	L87:
 1698              		.loc 2 48 4 discriminator 8
 1699 18ee A0040000 		movb	___sput+4, %al
 1699      00
 1700 18f3 3C06     		cmpb	$6, %al
 1701 18f5 7434     		je	L91
 1702              		.loc 2 48 4 discriminator 13
 1703 18f7 A1000000 		movl	__imp___iob, %eax
 1703      00
 1704 18fc 83C040   		addl	$64, %eax
 1705 18ff 8944240C 		movl	%eax, 12(%esp)
 1706 1903 C7442408 		movl	$29, 8(%esp)
 1706      1D000000 
 1707 190b C7442404 		movl	$1, 4(%esp)
 1707      01000000 
 1708 1913 C7042400 		movl	$LC0, (%esp)
 1708      000000
 1709 191a E8000000 		call	_fwrite
 1709      00
 1710 191f C7042401 		movl	$1, (%esp)
 1710      000000
 1711 1926 E8000000 		call	_exit
 1711      00
 1712              	L91:
 1713              		.loc 2 48 4 discriminator 14
 1714 192b A1180000 		movl	___sput+24, %eax
 1714      00
 1715 1930 85C0     		testl	%eax, %eax
 1716 1932 7531     		jne	L92
 1717              		.loc 2 48 4 discriminator 15
 1718 1934 A1000000 		movl	___sput, %eax
 1718      00
 1719 1939 8944240C 		movl	%eax, 12(%esp)
 1720 193d C7442408 		movl	$27, 8(%esp)
 1720      1B000000 
 1721 1945 C7442404 		movl	$1, 4(%esp)
 1721      01000000 
 1722 194d C704241E 		movl	$LC1, (%esp)
 1722      000000
 1723 1954 E8000000 		call	_fwrite
 1723      00
 1724 1959 C7042401 		movl	$1, (%esp)
 1724      000000
 1725 1960 E8000000 		call	_exit
 1725      00
 1726              	L92:
 1727              		.loc 2 48 4 discriminator 16
 1728 1965 A1240000 		movl	___sput+36, %eax
 1728      00
 1729 196a 40       		incl	%eax
 1730 196b A3240000 		movl	%eax, ___sput+36
 1730      00
GAS LISTING C:\Users\PRESID~1\AppData\Local\Temp\ccCA8Smq.s 			page 56


 1731 1970 8B3D3400 		movl	___sput+52, %edi
 1731      0000
 1732 1976 8B353000 		movl	___sput+48, %esi
 1732      0000
 1733 197c 8B1D2C00 		movl	___sput+44, %ebx
 1733      0000
 1734 1982 8B0D2000 		movl	___sput+32, %ecx
 1734      0000
 1735 1988 8B151C00 		movl	___sput+28, %edx
 1735      0000
 1736 198e A1000000 		movl	___sput, %eax
 1736      00
 1737 1993 897C2418 		movl	%edi, 24(%esp)
 1738 1997 89742414 		movl	%esi, 20(%esp)
 1739 199b 895C2410 		movl	%ebx, 16(%esp)
 1740 199f 894C240C 		movl	%ecx, 12(%esp)
 1741 19a3 89542408 		movl	%edx, 8(%esp)
 1742 19a7 C7442404 		movl	$LC8, 4(%esp)
 1742      E8000000 
 1743 19af 890424   		movl	%eax, (%esp)
 1744 19b2 E849E6FF 		call	_fprintf
 1744      FF
 1745              	L90:
  49:C:/Users/president/Desktop/sbx/input/src/os_base\os_start_ext_prg_test.c ****    sput_fail_unless(count_vowels("Ltd") == 0, "Ltd == 0v");
 1746              		.loc 2 49 4 is_stmt 1
 1747 19b7 A0040000 		movb	___sput+4, %al
 1747      00
 1748 19bc 3C06     		cmpb	$6, %al
 1749 19be 7434     		je	L93
 1750              		.loc 2 49 4 is_stmt 0 discriminator 1
 1751 19c0 A1000000 		movl	__imp___iob, %eax
 1751      00
 1752 19c5 83C040   		addl	$64, %eax
 1753 19c8 8944240C 		movl	%eax, 12(%esp)
 1754 19cc C7442408 		movl	$29, 8(%esp)
 1754      1D000000 
 1755 19d4 C7442404 		movl	$1, 4(%esp)
 1755      01000000 
 1756 19dc C7042400 		movl	$LC0, (%esp)
 1756      000000
 1757 19e3 E8000000 		call	_fwrite
 1757      00
 1758 19e8 C7042401 		movl	$1, (%esp)
 1758      000000
 1759 19ef E8000000 		call	_exit
 1759      00
 1760              	L93:
 1761              		.loc 2 49 4 discriminator 2
 1762 19f4 A1180000 		movl	___sput+24, %eax
 1762      00
 1763 19f9 85C0     		testl	%eax, %eax
 1764 19fb 7531     		jne	L94
 1765              		.loc 2 49 4 discriminator 3
 1766 19fd A1000000 		movl	___sput, %eax
 1766      00
 1767 1a02 8944240C 		movl	%eax, 12(%esp)
 1768 1a06 C7442408 		movl	$27, 8(%esp)
GAS LISTING C:\Users\PRESID~1\AppData\Local\Temp\ccCA8Smq.s 			page 57


 1768      1B000000 
 1769 1a0e C7442404 		movl	$1, 4(%esp)
 1769      01000000 
 1770 1a16 C704241E 		movl	$LC1, (%esp)
 1770      000000
 1771 1a1d E8000000 		call	_fwrite
 1771      00
 1772 1a22 C7042401 		movl	$1, (%esp)
 1772      000000
 1773 1a29 E8000000 		call	_exit
 1773      00
 1774              	L94:
 1775              		.loc 2 49 4 discriminator 4
 1776 1a2e A12C0000 		movl	___sput+44, %eax
 1776      00
 1777 1a33 85C0     		testl	%eax, %eax
 1778 1a35 7531     		jne	L95
 1779              		.loc 2 49 4 discriminator 5
 1780 1a37 A1000000 		movl	___sput, %eax
 1780      00
 1781 1a3c 8944240C 		movl	%eax, 12(%esp)
 1782 1a40 C7442408 		movl	$24, 8(%esp)
 1782      18000000 
 1783 1a48 C7442404 		movl	$1, 4(%esp)
 1783      01000000 
 1784 1a50 C704243A 		movl	$LC2, (%esp)
 1784      000000
 1785 1a57 E8000000 		call	_fwrite
 1785      00
 1786 1a5c C7042401 		movl	$1, (%esp)
 1786      000000
 1787 1a63 E8000000 		call	_exit
 1787      00
 1788              	L95:
 1789              		.loc 2 49 4 discriminator 6
 1790 1a68 C7053400 		movl	$LC33, ___sput+52
 1790      00004C02 
 1790      0000
 1791 1a72 C7054000 		movl	$49, ___sput+64
 1791      00003100 
 1791      0000
 1792 1a7c C7053800 		movl	$LC34, ___sput+56
 1792      00005602 
 1792      0000
 1793 1a86 C7053C00 		movl	$LC5, ___sput+60
 1793      00007800 
 1793      0000
 1794 1a90 A1300000 		movl	___sput+48, %eax
 1794      00
 1795 1a95 40       		incl	%eax
 1796 1a96 A3300000 		movl	%eax, ___sput+48
 1796      00
 1797 1a9b A1200000 		movl	___sput+32, %eax
 1797      00
 1798 1aa0 40       		incl	%eax
 1799 1aa1 A3200000 		movl	%eax, ___sput+32
 1799      00
GAS LISTING C:\Users\PRESID~1\AppData\Local\Temp\ccCA8Smq.s 			page 58


 1800 1aa6 C704246F 		movl	$LC35, (%esp)
 1800      020000
 1801 1aad E87EE5FF 		call	_count_vowels
 1801      FF
 1802 1ab2 85C0     		testl	%eax, %eax
 1803 1ab4 0F84FD00 		je	L96
 1803      0000
 1804              		.loc 2 49 4 discriminator 7
 1805 1aba A0040000 		movb	___sput+4, %al
 1805      00
 1806 1abf 3C06     		cmpb	$6, %al
 1807 1ac1 7434     		je	L97
 1808              		.loc 2 49 4 discriminator 9
 1809 1ac3 A1000000 		movl	__imp___iob, %eax
 1809      00
 1810 1ac8 83C040   		addl	$64, %eax
 1811 1acb 8944240C 		movl	%eax, 12(%esp)
 1812 1acf C7442408 		movl	$29, 8(%esp)
 1812      1D000000 
 1813 1ad7 C7442404 		movl	$1, 4(%esp)
 1813      01000000 
 1814 1adf C7042400 		movl	$LC0, (%esp)
 1814      000000
 1815 1ae6 E8000000 		call	_fwrite
 1815      00
 1816 1aeb C7042401 		movl	$1, (%esp)
 1816      000000
 1817 1af2 E8000000 		call	_exit
 1817      00
 1818              	L97:
 1819              		.loc 2 49 4 discriminator 10
 1820 1af7 A1180000 		movl	___sput+24, %eax
 1820      00
 1821 1afc 85C0     		testl	%eax, %eax
 1822 1afe 7531     		jne	L98
 1823              		.loc 2 49 4 discriminator 11
 1824 1b00 A1000000 		movl	___sput, %eax
 1824      00
 1825 1b05 8944240C 		movl	%eax, 12(%esp)
 1826 1b09 C7442408 		movl	$27, 8(%esp)
 1826      1B000000 
 1827 1b11 C7442404 		movl	$1, 4(%esp)
 1827      01000000 
 1828 1b19 C704241E 		movl	$LC1, (%esp)
 1828      000000
 1829 1b20 E8000000 		call	_fwrite
 1829      00
 1830 1b25 C7042401 		movl	$1, (%esp)
 1830      000000
 1831 1b2c E8000000 		call	_exit
 1831      00
 1832              	L98:
 1833              		.loc 2 49 4 discriminator 12
 1834 1b31 A1280000 		movl	___sput+40, %eax
 1834      00
 1835 1b36 40       		incl	%eax
 1836 1b37 A3280000 		movl	%eax, ___sput+40
GAS LISTING C:\Users\PRESID~1\AppData\Local\Temp\ccCA8Smq.s 			page 59


 1836      00
 1837 1b3c 8B154000 		movl	___sput+64, %edx
 1837      0000
 1838 1b42 8B1D3800 		movl	___sput+56, %ebx
 1838      0000
 1839 1b48 A13C0000 		movl	___sput+60, %eax
 1839      00
 1840 1b4d 8945E4   		movl	%eax, -28(%ebp)
 1841 1b50 8B3D3400 		movl	___sput+52, %edi
 1841      0000
 1842 1b56 897DE0   		movl	%edi, -32(%ebp)
 1843 1b59 8B0D3000 		movl	___sput+48, %ecx
 1843      0000
 1844 1b5f 894DDC   		movl	%ecx, -36(%ebp)
 1845 1b62 8B3D2C00 		movl	___sput+44, %edi
 1845      0000
 1846 1b68 8B352000 		movl	___sput+32, %esi
 1846      0000
 1847 1b6e 8B0D1C00 		movl	___sput+28, %ecx
 1847      0000
 1848 1b74 A1000000 		movl	___sput, %eax
 1848      00
 1849 1b79 89542424 		movl	%edx, 36(%esp)
 1850 1b7d 895C2420 		movl	%ebx, 32(%esp)
 1851 1b81 8B55E4   		movl	-28(%ebp), %edx
 1852 1b84 8954241C 		movl	%edx, 28(%esp)
 1853 1b88 8B5DE0   		movl	-32(%ebp), %ebx
 1854 1b8b 895C2418 		movl	%ebx, 24(%esp)
 1855 1b8f 8B55DC   		movl	-36(%ebp), %edx
 1856 1b92 89542414 		movl	%edx, 20(%esp)
 1857 1b96 897C2410 		movl	%edi, 16(%esp)
 1858 1b9a 8974240C 		movl	%esi, 12(%esp)
 1859 1b9e 894C2408 		movl	%ecx, 8(%esp)
 1860 1ba2 C7442404 		movl	$LC7, 4(%esp)
 1860      8C000000 
 1861 1baa 890424   		movl	%eax, (%esp)
 1862 1bad E84EE4FF 		call	_fprintf
 1862      FF
  50:C:/Users/president/Desktop/sbx/input/src/os_base\os_start_ext_prg_test.c **** }
 1863              		.loc 2 50 1 is_stmt 1 discriminator 12
 1864 1bb2 E9C90000 		jmp	L102
 1864      00
 1865              	L96:
  49:C:/Users/president/Desktop/sbx/input/src/os_base\os_start_ext_prg_test.c ****    sput_fail_unless(count_vowels("Ltd") == 0, "Ltd == 0v");
 1866              		.loc 2 49 4 discriminator 8
 1867 1bb7 A0040000 		movb	___sput+4, %al
 1867      00
 1868 1bbc 3C06     		cmpb	$6, %al
 1869 1bbe 7434     		je	L100
  49:C:/Users/president/Desktop/sbx/input/src/os_base\os_start_ext_prg_test.c ****    sput_fail_unless(count_vowels("Ltd") == 0, "Ltd == 0v");
 1870              		.loc 2 49 4 is_stmt 0 discriminator 13
 1871 1bc0 A1000000 		movl	__imp___iob, %eax
 1871      00
 1872 1bc5 83C040   		addl	$64, %eax
 1873 1bc8 8944240C 		movl	%eax, 12(%esp)
 1874 1bcc C7442408 		movl	$29, 8(%esp)
 1874      1D000000 
GAS LISTING C:\Users\PRESID~1\AppData\Local\Temp\ccCA8Smq.s 			page 60


 1875 1bd4 C7442404 		movl	$1, 4(%esp)
 1875      01000000 
 1876 1bdc C7042400 		movl	$LC0, (%esp)
 1876      000000
 1877 1be3 E8000000 		call	_fwrite
 1877      00
 1878 1be8 C7042401 		movl	$1, (%esp)
 1878      000000
 1879 1bef E8000000 		call	_exit
 1879      00
 1880              	L100:
  49:C:/Users/president/Desktop/sbx/input/src/os_base\os_start_ext_prg_test.c ****    sput_fail_unless(count_vowels("Ltd") == 0, "Ltd == 0v");
 1881              		.loc 2 49 4 discriminator 14
 1882 1bf4 A1180000 		movl	___sput+24, %eax
 1882      00
 1883 1bf9 85C0     		testl	%eax, %eax
 1884 1bfb 7531     		jne	L101
  49:C:/Users/president/Desktop/sbx/input/src/os_base\os_start_ext_prg_test.c ****    sput_fail_unless(count_vowels("Ltd") == 0, "Ltd == 0v");
 1885              		.loc 2 49 4 discriminator 15
 1886 1bfd A1000000 		movl	___sput, %eax
 1886      00
 1887 1c02 8944240C 		movl	%eax, 12(%esp)
 1888 1c06 C7442408 		movl	$27, 8(%esp)
 1888      1B000000 
 1889 1c0e C7442404 		movl	$1, 4(%esp)
 1889      01000000 
 1890 1c16 C704241E 		movl	$LC1, (%esp)
 1890      000000
 1891 1c1d E8000000 		call	_fwrite
 1891      00
 1892 1c22 C7042401 		movl	$1, (%esp)
 1892      000000
 1893 1c29 E8000000 		call	_exit
 1893      00
 1894              	L101:
  49:C:/Users/president/Desktop/sbx/input/src/os_base\os_start_ext_prg_test.c ****    sput_fail_unless(count_vowels("Ltd") == 0, "Ltd == 0v");
 1895              		.loc 2 49 4 discriminator 16
 1896 1c2e A1240000 		movl	___sput+36, %eax
 1896      00
 1897 1c33 40       		incl	%eax
 1898 1c34 A3240000 		movl	%eax, ___sput+36
 1898      00
 1899 1c39 8B3D3400 		movl	___sput+52, %edi
 1899      0000
 1900 1c3f 8B353000 		movl	___sput+48, %esi
 1900      0000
 1901 1c45 8B1D2C00 		movl	___sput+44, %ebx
 1901      0000
 1902 1c4b 8B0D2000 		movl	___sput+32, %ecx
 1902      0000
 1903 1c51 8B151C00 		movl	___sput+28, %edx
 1903      0000
 1904 1c57 A1000000 		movl	___sput, %eax
 1904      00
 1905 1c5c 897C2418 		movl	%edi, 24(%esp)
 1906 1c60 89742414 		movl	%esi, 20(%esp)
 1907 1c64 895C2410 		movl	%ebx, 16(%esp)
GAS LISTING C:\Users\PRESID~1\AppData\Local\Temp\ccCA8Smq.s 			page 61


 1908 1c68 894C240C 		movl	%ecx, 12(%esp)
 1909 1c6c 89542408 		movl	%edx, 8(%esp)
 1910 1c70 C7442404 		movl	$LC8, 4(%esp)
 1910      E8000000 
 1911 1c78 890424   		movl	%eax, (%esp)
 1912 1c7b E880E3FF 		call	_fprintf
 1912      FF
 1913              	L102:
 1914              		.loc 2 50 1 is_stmt 1
 1915 1c80 90       		nop
 1916 1c81 83C44C   		addl	$76, %esp
 1917 1c84 5B       		popl	%ebx
 1918              		.cfi_restore 3
 1919 1c85 5E       		popl	%esi
 1920              		.cfi_restore 6
 1921 1c86 5F       		popl	%edi
 1922              		.cfi_restore 7
 1923 1c87 5D       		popl	%ebp
 1924              		.cfi_restore 5
 1925              		.cfi_def_cfa 4, 4
 1926 1c88 C3       		ret
 1927              		.cfi_endproc
 1928              	LFE16:
 1930              		.section .rdata,"dr"
 1931 0273 00       		.align 4
 1932              	LC38:
 1933 0274 0A2D2D3E 		.ascii "\12--> %lu check(s), %lu ok, %lu failed (%.2f%%)\12\0"
 1933      20256C75 
 1933      20636865 
 1933      636B2873 
 1933      292C2025 
 1934              		.align 4
 1935              	LC39:
 1936 02a4 636F756E 		.ascii "count_vowels(): Vowels Present\0"
 1936      745F766F 
 1936      77656C73 
 1936      28293A20 
 1936      566F7765 
 1937 02c3 00       		.align 4
 1938              	LC40:
 1939 02c4 0A3D3D20 		.ascii "\12== Entering suite #%lu, \"%s\" ==\12\12\0"
 1939      456E7465 
 1939      72696E67 
 1939      20737569 
 1939      74652023 
 1940              	LC41:
 1941 02e7 74657374 		.ascii "test_vowels_present\0"
 1941      5F766F77 
 1941      656C735F 
 1941      70726573 
 1941      656E7400 
 1942 02fb 00       		.align 4
 1943              	LC42:
 1944 02fc 636F756E 		.ascii "count_vowels(): No Vowels Present\0"
 1944      745F766F 
 1944      77656C73 
 1944      28293A20 
GAS LISTING C:\Users\PRESID~1\AppData\Local\Temp\ccCA8Smq.s 			page 62


 1944      4E6F2056 
 1945              	LC43:
 1946 031e 74657374 		.ascii "test_no_vowels_present\0"
 1946      5F6E6F5F 
 1946      766F7765 
 1946      6C735F70 
 1946      72657365 
 1947              	LC44:
 1948 0335 53554343 		.ascii "SUCCESS\0"
 1948      45535300 
 1949              	LC45:
 1950 033d 4641494C 		.ascii "FAILURE\0"
 1950      55524500 
 1951 0345 000000   		.align 4
 1952              	LC46:
 1953 0348 0A3D3D3E 		.ascii "\12==> %lu check(s) in %lu suite(s) finished after %.2f second(s),\12    %lu succeeded, %l
 1953      20256C75 
 1953      20636865 
 1953      636B2873 
 1953      2920696E 
 1954              		.text
 1955              		.globl	_main
 1957              	_main:
 1958              	LFB17:
  51:C:/Users/president/Desktop/sbx/input/src/os_base\os_start_ext_prg_test.c **** 
  52:C:/Users/president/Desktop/sbx/input/src/os_base\os_start_ext_prg_test.c **** 
  53:C:/Users/president/Desktop/sbx/input/src/os_base\os_start_ext_prg_test.c **** int main(int argc, char *argv[])
  54:C:/Users/president/Desktop/sbx/input/src/os_base\os_start_ext_prg_test.c **** {
 1959              		.loc 2 54 1
 1960              		.cfi_startproc
 1961 1c89 55       		pushl	%ebp
 1962              		.cfi_def_cfa_offset 8
 1963              		.cfi_offset 5, -8
 1964 1c8a 89E5     		movl	%esp, %ebp
 1965              		.cfi_def_cfa_register 5
 1966 1c8c 57       		pushl	%edi
 1967 1c8d 56       		pushl	%esi
 1968 1c8e 53       		pushl	%ebx
 1969 1c8f 83E4F0   		andl	$-16, %esp
 1970 1c92 83EC70   		subl	$112, %esp
 1971              		.cfi_offset 7, -12
 1972              		.cfi_offset 6, -16
 1973              		.cfi_offset 3, -20
 1974              		.loc 2 54 1
 1975 1c95 E8000000 		call	___main
 1975      00
 1976              	LVL0:
  55:C:/Users/president/Desktop/sbx/input/src/os_base\os_start_ext_prg_test.c ****    sput_start_testing();
 1977              		.loc 2 55 4
 1978 1c9a C7442408 		movl	$76, 8(%esp)
 1978      4C000000 
 1979 1ca2 C7442404 		movl	$0, 4(%esp)
 1979      00000000 
 1980 1caa C7042400 		movl	$___sput, (%esp)
 1980      000000
 1981 1cb1 E8000000 		call	_memset
 1981      00
GAS LISTING C:\Users\PRESID~1\AppData\Local\Temp\ccCA8Smq.s 			page 63


 1982 1cb6 A1000000 		movl	__imp___iob, %eax
 1982      00
 1983 1cbb 83C020   		addl	$32, %eax
 1984 1cbe A3000000 		movl	%eax, ___sput
 1984      00
 1985 1cc3 C7042400 		movl	$0, (%esp)
 1985      000000
 1986 1cca E8000000 		call	_time
 1986      00
 1987 1ccf A3440000 		movl	%eax, ___sput+68
 1987      00
 1988 1cd4 C6050400 		movb	$6, ___sput+4
 1988      000006
  56:C:/Users/president/Desktop/sbx/input/src/os_base\os_start_ext_prg_test.c **** 
  57:C:/Users/president/Desktop/sbx/input/src/os_base\os_start_ext_prg_test.c ****    sput_enter_suite("count_vowels(): Vowels Present");
 1989              		.loc 2 57 4
 1990 1cdb A0040000 		movb	___sput+4, %al
 1990      00
 1991 1ce0 3C06     		cmpb	$6, %al
 1992 1ce2 7434     		je	L104
 1993              		.loc 2 57 4 is_stmt 0 discriminator 1
 1994 1ce4 A1000000 		movl	__imp___iob, %eax
 1994      00
 1995 1ce9 83C040   		addl	$64, %eax
 1996 1cec 8944240C 		movl	%eax, 12(%esp)
 1997 1cf0 C7442408 		movl	$29, 8(%esp)
 1997      1D000000 
 1998 1cf8 C7442404 		movl	$1, 4(%esp)
 1998      01000000 
 1999 1d00 C7042400 		movl	$LC0, (%esp)
 1999      000000
 2000 1d07 E8000000 		call	_fwrite
 2000      00
 2001 1d0c C7042401 		movl	$1, (%esp)
 2001      000000
 2002 1d13 E8000000 		call	_exit
 2002      00
 2003              	L104:
 2004              		.loc 2 57 4 discriminator 2
 2005 1d18 A1180000 		movl	___sput+24, %eax
 2005      00
 2006 1d1d 85C0     		testl	%eax, %eax
 2007 1d1f 0F846701 		je	L105
 2007      0000
 2008              	LBB2:
 2009              		.loc 2 57 4 discriminator 3
 2010 1d25 D9EE     		fldz
 2011 1d27 D95C246C 		fstps	108(%esp)
 2012 1d2b A0040000 		movb	___sput+4, %al
 2012      00
 2013 1d30 3C06     		cmpb	$6, %al
 2014 1d32 7434     		je	L106
 2015              		.loc 2 57 4 discriminator 5
 2016 1d34 A1000000 		movl	__imp___iob, %eax
 2016      00
 2017 1d39 83C040   		addl	$64, %eax
 2018 1d3c 8944240C 		movl	%eax, 12(%esp)
GAS LISTING C:\Users\PRESID~1\AppData\Local\Temp\ccCA8Smq.s 			page 64


 2019 1d40 C7442408 		movl	$29, 8(%esp)
 2019      1D000000 
 2020 1d48 C7442404 		movl	$1, 4(%esp)
 2020      01000000 
 2021 1d50 C7042400 		movl	$LC0, (%esp)
 2021      000000
 2022 1d57 E8000000 		call	_fwrite
 2022      00
 2023 1d5c C7042401 		movl	$1, (%esp)
 2023      000000
 2024 1d63 E8000000 		call	_exit
 2024      00
 2025              	L106:
 2026              		.loc 2 57 4 discriminator 6
 2027 1d68 A1180000 		movl	___sput+24, %eax
 2027      00
 2028 1d6d 85C0     		testl	%eax, %eax
 2029 1d6f 7531     		jne	L107
 2030              		.loc 2 57 4 discriminator 7
 2031 1d71 A1000000 		movl	___sput, %eax
 2031      00
 2032 1d76 8944240C 		movl	%eax, 12(%esp)
 2033 1d7a C7442408 		movl	$27, 8(%esp)
 2033      1B000000 
 2034 1d82 C7442404 		movl	$1, 4(%esp)
 2034      01000000 
 2035 1d8a C704241E 		movl	$LC1, (%esp)
 2035      000000
 2036 1d91 E8000000 		call	_fwrite
 2036      00
 2037 1d96 C7042401 		movl	$1, (%esp)
 2037      000000
 2038 1d9d E8000000 		call	_exit
 2038      00
 2039              	L107:
 2040              		.loc 2 57 4 discriminator 8
 2041 1da2 A1200000 		movl	___sput+32, %eax
 2041      00
 2042 1da7 85C0     		testl	%eax, %eax
 2043 1da9 744E     		je	L108
 2044              		.loc 2 57 4 discriminator 9
 2045 1dab A1280000 		movl	___sput+40, %eax
 2045      00
 2046 1db0 89442448 		movl	%eax, 72(%esp)
 2047 1db4 C744244C 		movl	$0, 76(%esp)
 2047      00000000 
 2048 1dbc DF6C2448 		fildq	72(%esp)
 2049 1dc0 DD5C2458 		fstpl	88(%esp)
 2050 1dc4 DD442458 		fldl	88(%esp)
 2051 1dc8 DB2DC003 		fldt	LC37
 2051      0000
 2052 1dce DEC9     		fmulp	%st, %st(1)
 2053 1dd0 A1200000 		movl	___sput+32, %eax
 2053      00
 2054 1dd5 89442448 		movl	%eax, 72(%esp)
 2055 1dd9 C744244C 		movl	$0, 76(%esp)
 2055      00000000 
GAS LISTING C:\Users\PRESID~1\AppData\Local\Temp\ccCA8Smq.s 			page 65


 2056 1de1 DF6C2448 		fildq	72(%esp)
 2057 1de5 DD5C2458 		fstpl	88(%esp)
 2058 1de9 DD442458 		fldl	88(%esp)
 2059 1ded DEF9     		fdivrp	%st, %st(1)
 2060 1def D95C2454 		fstps	84(%esp)
 2061 1df3 D9442454 		flds	84(%esp)
 2062 1df7 EB02     		jmp	L109
 2063              	L108:
 2064              		.loc 2 57 4 discriminator 10
 2065 1df9 D9EE     		fldz
 2066              	L109:
 2067              		.loc 2 57 4 discriminator 12
 2068 1dfb D95C246C 		fstps	108(%esp)
 2069 1dff D944246C 		flds	108(%esp)
 2070 1e03 8B1D2800 		movl	___sput+40, %ebx
 2070      0000
 2071 1e09 8B0D2400 		movl	___sput+36, %ecx
 2071      0000
 2072 1e0f 8B152000 		movl	___sput+32, %edx
 2072      0000
 2073 1e15 A1000000 		movl	___sput, %eax
 2073      00
 2074 1e1a DD5C2414 		fstpl	20(%esp)
 2075 1e1e 895C2410 		movl	%ebx, 16(%esp)
 2076 1e22 894C240C 		movl	%ecx, 12(%esp)
 2077 1e26 89542408 		movl	%edx, 8(%esp)
 2078 1e2a C7442404 		movl	$LC38, 4(%esp)
 2078      74020000 
 2079 1e32 890424   		movl	%eax, (%esp)
 2080 1e35 E8C6E1FF 		call	_fprintf
 2080      FF
 2081 1e3a 8B150800 		movl	___sput+8, %edx
 2081      0000
 2082 1e40 A1200000 		movl	___sput+32, %eax
 2082      00
 2083 1e45 01D0     		addl	%edx, %eax
 2084 1e47 A3080000 		movl	%eax, ___sput+8
 2084      00
 2085 1e4c 8B151000 		movl	___sput+16, %edx
 2085      0000
 2086 1e52 A1240000 		movl	___sput+36, %eax
 2086      00
 2087 1e57 01D0     		addl	%edx, %eax
 2088 1e59 A3100000 		movl	%eax, ___sput+16
 2088      00
 2089 1e5e 8B151400 		movl	___sput+20, %edx
 2089      0000
 2090 1e64 A1280000 		movl	___sput+40, %eax
 2090      00
 2091 1e69 01D0     		addl	%edx, %eax
 2092 1e6b A3140000 		movl	%eax, ___sput+20
 2092      00
 2093 1e70 C7442408 		movl	$20, 8(%esp)
 2093      14000000 
 2094 1e78 C7442404 		movl	$0, 4(%esp)
 2094      00000000 
 2095 1e80 C7042418 		movl	$___sput+24, (%esp)
GAS LISTING C:\Users\PRESID~1\AppData\Local\Temp\ccCA8Smq.s 			page 66


 2095      000000
 2096 1e87 E8000000 		call	_memset
 2096      00
 2097              	L105:
 2098              	LBE2:
 2099              		.loc 2 57 4 discriminator 13
 2100 1e8c C7051800 		movl	$LC39, ___sput+24
 2100      0000A402 
 2100      0000
 2101 1e96 A10C0000 		movl	___sput+12, %eax
 2101      00
 2102 1e9b 40       		incl	%eax
 2103 1e9c A30C0000 		movl	%eax, ___sput+12
 2103      00
 2104 1ea1 A10C0000 		movl	___sput+12, %eax
 2104      00
 2105 1ea6 A31C0000 		movl	%eax, ___sput+28
 2105      00
 2106 1eab 8B0D1800 		movl	___sput+24, %ecx
 2106      0000
 2107 1eb1 8B151C00 		movl	___sput+28, %edx
 2107      0000
 2108 1eb7 A1000000 		movl	___sput, %eax
 2108      00
 2109 1ebc 894C240C 		movl	%ecx, 12(%esp)
 2110 1ec0 89542408 		movl	%edx, 8(%esp)
 2111 1ec4 C7442404 		movl	$LC40, 4(%esp)
 2111      C4020000 
 2112 1ecc 890424   		movl	%eax, (%esp)
 2113 1ecf E82CE1FF 		call	_fprintf
 2113      FF
  58:C:/Users/president/Desktop/sbx/input/src/os_base\os_start_ext_prg_test.c ****    sput_run_test(test_vowels_present);
 2114              		.loc 2 58 4 is_stmt 1 discriminator 13
 2115 1ed4 A0040000 		movb	___sput+4, %al
 2115      00
 2116 1ed9 3C06     		cmpb	$6, %al
 2117 1edb 7434     		je	L110
 2118              		.loc 2 58 4 is_stmt 0 discriminator 1
 2119 1edd A1000000 		movl	__imp___iob, %eax
 2119      00
 2120 1ee2 83C040   		addl	$64, %eax
 2121 1ee5 8944240C 		movl	%eax, 12(%esp)
 2122 1ee9 C7442408 		movl	$29, 8(%esp)
 2122      1D000000 
 2123 1ef1 C7442404 		movl	$1, 4(%esp)
 2123      01000000 
 2124 1ef9 C7042400 		movl	$LC0, (%esp)
 2124      000000
 2125 1f00 E8000000 		call	_fwrite
 2125      00
 2126 1f05 C7042401 		movl	$1, (%esp)
 2126      000000
 2127 1f0c E8000000 		call	_exit
 2127      00
 2128              	L110:
 2129              		.loc 2 58 4 discriminator 2
 2130 1f11 A1180000 		movl	___sput+24, %eax
GAS LISTING C:\Users\PRESID~1\AppData\Local\Temp\ccCA8Smq.s 			page 67


 2130      00
 2131 1f16 85C0     		testl	%eax, %eax
 2132 1f18 7531     		jne	L111
 2133              		.loc 2 58 4 discriminator 3
 2134 1f1a A1000000 		movl	___sput, %eax
 2134      00
 2135 1f1f 8944240C 		movl	%eax, 12(%esp)
 2136 1f23 C7442408 		movl	$27, 8(%esp)
 2136      1B000000 
 2137 1f2b C7442404 		movl	$1, 4(%esp)
 2137      01000000 
 2138 1f33 C704241E 		movl	$LC1, (%esp)
 2138      000000
 2139 1f3a E8000000 		call	_fwrite
 2139      00
 2140 1f3f C7042401 		movl	$1, (%esp)
 2140      000000
 2141 1f46 E8000000 		call	_exit
 2141      00
 2142              	L111:
 2143              		.loc 2 58 4 discriminator 4
 2144 1f4b C7442408 		movl	$8, 8(%esp)
 2144      08000000 
 2145 1f53 C7442404 		movl	$0, 4(%esp)
 2145      00000000 
 2146 1f5b C704242C 		movl	$___sput+44, (%esp)
 2146      000000
 2147 1f62 E8000000 		call	_memset
 2147      00
 2148 1f67 C7052C00 		movl	$LC41, ___sput+44
 2148      0000E702 
 2148      0000
 2149 1f71 E810E1FF 		call	_test_vowels_present
 2149      FF
  59:C:/Users/president/Desktop/sbx/input/src/os_base\os_start_ext_prg_test.c **** 
  60:C:/Users/president/Desktop/sbx/input/src/os_base\os_start_ext_prg_test.c ****    sput_enter_suite("count_vowels(): No Vowels Present");
 2150              		.loc 2 60 4 is_stmt 1 discriminator 4
 2151 1f76 A0040000 		movb	___sput+4, %al
 2151      00
 2152 1f7b 3C06     		cmpb	$6, %al
 2153 1f7d 7434     		je	L112
 2154              		.loc 2 60 4 is_stmt 0 discriminator 1
 2155 1f7f A1000000 		movl	__imp___iob, %eax
 2155      00
 2156 1f84 83C040   		addl	$64, %eax
 2157 1f87 8944240C 		movl	%eax, 12(%esp)
 2158 1f8b C7442408 		movl	$29, 8(%esp)
 2158      1D000000 
 2159 1f93 C7442404 		movl	$1, 4(%esp)
 2159      01000000 
 2160 1f9b C7042400 		movl	$LC0, (%esp)
 2160      000000
 2161 1fa2 E8000000 		call	_fwrite
 2161      00
 2162 1fa7 C7042401 		movl	$1, (%esp)
 2162      000000
 2163 1fae E8000000 		call	_exit
GAS LISTING C:\Users\PRESID~1\AppData\Local\Temp\ccCA8Smq.s 			page 68


 2163      00
 2164              	L112:
 2165              		.loc 2 60 4 discriminator 2
 2166 1fb3 A1180000 		movl	___sput+24, %eax
 2166      00
 2167 1fb8 85C0     		testl	%eax, %eax
 2168 1fba 0F846701 		je	L113
 2168      0000
 2169              	LBB3:
 2170              		.loc 2 60 4 discriminator 3
 2171 1fc0 D9EE     		fldz
 2172 1fc2 D95C2468 		fstps	104(%esp)
 2173 1fc6 A0040000 		movb	___sput+4, %al
 2173      00
 2174 1fcb 3C06     		cmpb	$6, %al
 2175 1fcd 7434     		je	L114
 2176              		.loc 2 60 4 discriminator 5
 2177 1fcf A1000000 		movl	__imp___iob, %eax
 2177      00
 2178 1fd4 83C040   		addl	$64, %eax
 2179 1fd7 8944240C 		movl	%eax, 12(%esp)
 2180 1fdb C7442408 		movl	$29, 8(%esp)
 2180      1D000000 
 2181 1fe3 C7442404 		movl	$1, 4(%esp)
 2181      01000000 
 2182 1feb C7042400 		movl	$LC0, (%esp)
 2182      000000
 2183 1ff2 E8000000 		call	_fwrite
 2183      00
 2184 1ff7 C7042401 		movl	$1, (%esp)
 2184      000000
 2185 1ffe E8000000 		call	_exit
 2185      00
 2186              	L114:
 2187              		.loc 2 60 4 discriminator 6
 2188 2003 A1180000 		movl	___sput+24, %eax
 2188      00
 2189 2008 85C0     		testl	%eax, %eax
 2190 200a 7531     		jne	L115
 2191              		.loc 2 60 4 discriminator 7
 2192 200c A1000000 		movl	___sput, %eax
 2192      00
 2193 2011 8944240C 		movl	%eax, 12(%esp)
 2194 2015 C7442408 		movl	$27, 8(%esp)
 2194      1B000000 
 2195 201d C7442404 		movl	$1, 4(%esp)
 2195      01000000 
 2196 2025 C704241E 		movl	$LC1, (%esp)
 2196      000000
 2197 202c E8000000 		call	_fwrite
 2197      00
 2198 2031 C7042401 		movl	$1, (%esp)
 2198      000000
 2199 2038 E8000000 		call	_exit
 2199      00
 2200              	L115:
 2201              		.loc 2 60 4 discriminator 8
GAS LISTING C:\Users\PRESID~1\AppData\Local\Temp\ccCA8Smq.s 			page 69


 2202 203d A1200000 		movl	___sput+32, %eax
 2202      00
 2203 2042 85C0     		testl	%eax, %eax
 2204 2044 744E     		je	L116
 2205              		.loc 2 60 4 discriminator 9
 2206 2046 A1280000 		movl	___sput+40, %eax
 2206      00
 2207 204b 89442448 		movl	%eax, 72(%esp)
 2208 204f C744244C 		movl	$0, 76(%esp)
 2208      00000000 
 2209 2057 DF6C2448 		fildq	72(%esp)
 2210 205b DD5C2458 		fstpl	88(%esp)
 2211 205f DD442458 		fldl	88(%esp)
 2212 2063 DB2DC003 		fldt	LC37
 2212      0000
 2213 2069 DEC9     		fmulp	%st, %st(1)
 2214 206b A1200000 		movl	___sput+32, %eax
 2214      00
 2215 2070 89442448 		movl	%eax, 72(%esp)
 2216 2074 C744244C 		movl	$0, 76(%esp)
 2216      00000000 
 2217 207c DF6C2448 		fildq	72(%esp)
 2218 2080 DD5C2458 		fstpl	88(%esp)
 2219 2084 DD442458 		fldl	88(%esp)
 2220 2088 DEF9     		fdivrp	%st, %st(1)
 2221 208a D95C2454 		fstps	84(%esp)
 2222 208e D9442454 		flds	84(%esp)
 2223 2092 EB02     		jmp	L117
 2224              	L116:
 2225              		.loc 2 60 4 discriminator 10
 2226 2094 D9EE     		fldz
 2227              	L117:
 2228              		.loc 2 60 4 discriminator 12
 2229 2096 D95C2468 		fstps	104(%esp)
 2230 209a D9442468 		flds	104(%esp)
 2231 209e 8B1D2800 		movl	___sput+40, %ebx
 2231      0000
 2232 20a4 8B0D2400 		movl	___sput+36, %ecx
 2232      0000
 2233 20aa 8B152000 		movl	___sput+32, %edx
 2233      0000
 2234 20b0 A1000000 		movl	___sput, %eax
 2234      00
 2235 20b5 DD5C2414 		fstpl	20(%esp)
 2236 20b9 895C2410 		movl	%ebx, 16(%esp)
 2237 20bd 894C240C 		movl	%ecx, 12(%esp)
 2238 20c1 89542408 		movl	%edx, 8(%esp)
 2239 20c5 C7442404 		movl	$LC38, 4(%esp)
 2239      74020000 
 2240 20cd 890424   		movl	%eax, (%esp)
 2241 20d0 E82BDFFF 		call	_fprintf
 2241      FF
 2242 20d5 8B150800 		movl	___sput+8, %edx
 2242      0000
 2243 20db A1200000 		movl	___sput+32, %eax
 2243      00
 2244 20e0 01D0     		addl	%edx, %eax
GAS LISTING C:\Users\PRESID~1\AppData\Local\Temp\ccCA8Smq.s 			page 70


 2245 20e2 A3080000 		movl	%eax, ___sput+8
 2245      00
 2246 20e7 8B151000 		movl	___sput+16, %edx
 2246      0000
 2247 20ed A1240000 		movl	___sput+36, %eax
 2247      00
 2248 20f2 01D0     		addl	%edx, %eax
 2249 20f4 A3100000 		movl	%eax, ___sput+16
 2249      00
 2250 20f9 8B151400 		movl	___sput+20, %edx
 2250      0000
 2251 20ff A1280000 		movl	___sput+40, %eax
 2251      00
 2252 2104 01D0     		addl	%edx, %eax
 2253 2106 A3140000 		movl	%eax, ___sput+20
 2253      00
 2254 210b C7442408 		movl	$20, 8(%esp)
 2254      14000000 
 2255 2113 C7442404 		movl	$0, 4(%esp)
 2255      00000000 
 2256 211b C7042418 		movl	$___sput+24, (%esp)
 2256      000000
 2257 2122 E8000000 		call	_memset
 2257      00
 2258              	L113:
 2259              	LBE3:
 2260              		.loc 2 60 4 discriminator 13
 2261 2127 C7051800 		movl	$LC42, ___sput+24
 2261      0000FC02 
 2261      0000
 2262 2131 A10C0000 		movl	___sput+12, %eax
 2262      00
 2263 2136 40       		incl	%eax
 2264 2137 A30C0000 		movl	%eax, ___sput+12
 2264      00
 2265 213c A10C0000 		movl	___sput+12, %eax
 2265      00
 2266 2141 A31C0000 		movl	%eax, ___sput+28
 2266      00
 2267 2146 8B0D1800 		movl	___sput+24, %ecx
 2267      0000
 2268 214c 8B151C00 		movl	___sput+28, %edx
 2268      0000
 2269 2152 A1000000 		movl	___sput, %eax
 2269      00
 2270 2157 894C240C 		movl	%ecx, 12(%esp)
 2271 215b 89542408 		movl	%edx, 8(%esp)
 2272 215f C7442404 		movl	$LC40, 4(%esp)
 2272      C4020000 
 2273 2167 890424   		movl	%eax, (%esp)
 2274 216a E891DEFF 		call	_fprintf
 2274      FF
  61:C:/Users/president/Desktop/sbx/input/src/os_base\os_start_ext_prg_test.c ****    sput_run_test(test_no_vowels_present);
 2275              		.loc 2 61 4 is_stmt 1 discriminator 13
 2276 216f A0040000 		movb	___sput+4, %al
 2276      00
 2277 2174 3C06     		cmpb	$6, %al
GAS LISTING C:\Users\PRESID~1\AppData\Local\Temp\ccCA8Smq.s 			page 71


 2278 2176 7434     		je	L118
 2279              		.loc 2 61 4 is_stmt 0 discriminator 1
 2280 2178 A1000000 		movl	__imp___iob, %eax
 2280      00
 2281 217d 83C040   		addl	$64, %eax
 2282 2180 8944240C 		movl	%eax, 12(%esp)
 2283 2184 C7442408 		movl	$29, 8(%esp)
 2283      1D000000 
 2284 218c C7442404 		movl	$1, 4(%esp)
 2284      01000000 
 2285 2194 C7042400 		movl	$LC0, (%esp)
 2285      000000
 2286 219b E8000000 		call	_fwrite
 2286      00
 2287 21a0 C7042401 		movl	$1, (%esp)
 2287      000000
 2288 21a7 E8000000 		call	_exit
 2288      00
 2289              	L118:
 2290              		.loc 2 61 4 discriminator 2
 2291 21ac A1180000 		movl	___sput+24, %eax
 2291      00
 2292 21b1 85C0     		testl	%eax, %eax
 2293 21b3 7531     		jne	L119
 2294              		.loc 2 61 4 discriminator 3
 2295 21b5 A1000000 		movl	___sput, %eax
 2295      00
 2296 21ba 8944240C 		movl	%eax, 12(%esp)
 2297 21be C7442408 		movl	$27, 8(%esp)
 2297      1B000000 
 2298 21c6 C7442404 		movl	$1, 4(%esp)
 2298      01000000 
 2299 21ce C704241E 		movl	$LC1, (%esp)
 2299      000000
 2300 21d5 E8000000 		call	_fwrite
 2300      00
 2301 21da C7042401 		movl	$1, (%esp)
 2301      000000
 2302 21e1 E8000000 		call	_exit
 2302      00
 2303              	L119:
 2304              		.loc 2 61 4 discriminator 4
 2305 21e6 C7442408 		movl	$8, 8(%esp)
 2305      08000000 
 2306 21ee C7442404 		movl	$0, 4(%esp)
 2306      00000000 
 2307 21f6 C704242C 		movl	$___sput+44, (%esp)
 2307      000000
 2308 21fd E8000000 		call	_memset
 2308      00
 2309 2202 C7052C00 		movl	$LC43, ___sput+44
 2309      00001E03 
 2309      0000
 2310 220c E879ECFF 		call	_test_no_vowels_present
 2310      FF
 2311              	LBB4:
  62:C:/Users/president/Desktop/sbx/input/src/os_base\os_start_ext_prg_test.c **** 
GAS LISTING C:\Users\PRESID~1\AppData\Local\Temp\ccCA8Smq.s 			page 72


  63:C:/Users/president/Desktop/sbx/input/src/os_base\os_start_ext_prg_test.c ****    sput_finish_testing();
 2312              		.loc 2 63 4 is_stmt 1 discriminator 4
 2313 2211 D9EE     		fldz
 2314 2213 D95C2464 		fstps	100(%esp)
 2315 2217 A0040000 		movb	___sput+4, %al
 2315      00
 2316 221c 3C06     		cmpb	$6, %al
 2317 221e 7434     		je	L120
 2318              		.loc 2 63 4 is_stmt 0 discriminator 1
 2319 2220 A1000000 		movl	__imp___iob, %eax
 2319      00
 2320 2225 83C040   		addl	$64, %eax
 2321 2228 8944240C 		movl	%eax, 12(%esp)
 2322 222c C7442408 		movl	$29, 8(%esp)
 2322      1D000000 
 2323 2234 C7442404 		movl	$1, 4(%esp)
 2323      01000000 
 2324 223c C7042400 		movl	$LC0, (%esp)
 2324      000000
 2325 2243 E8000000 		call	_fwrite
 2325      00
 2326 2248 C7042401 		movl	$1, (%esp)
 2326      000000
 2327 224f E8000000 		call	_exit
 2327      00
 2328              	L120:
 2329              		.loc 2 63 4 discriminator 2
 2330 2254 A1180000 		movl	___sput+24, %eax
 2330      00
 2331 2259 85C0     		testl	%eax, %eax
 2332 225b 0F846701 		je	L121
 2332      0000
 2333              	LBB5:
 2334              		.loc 2 63 4 discriminator 3
 2335 2261 D9EE     		fldz
 2336 2263 D95C2460 		fstps	96(%esp)
 2337 2267 A0040000 		movb	___sput+4, %al
 2337      00
 2338 226c 3C06     		cmpb	$6, %al
 2339 226e 7434     		je	L122
 2340              		.loc 2 63 4 discriminator 5
 2341 2270 A1000000 		movl	__imp___iob, %eax
 2341      00
 2342 2275 83C040   		addl	$64, %eax
 2343 2278 8944240C 		movl	%eax, 12(%esp)
 2344 227c C7442408 		movl	$29, 8(%esp)
 2344      1D000000 
 2345 2284 C7442404 		movl	$1, 4(%esp)
 2345      01000000 
 2346 228c C7042400 		movl	$LC0, (%esp)
 2346      000000
 2347 2293 E8000000 		call	_fwrite
 2347      00
 2348 2298 C7042401 		movl	$1, (%esp)
 2348      000000
 2349 229f E8000000 		call	_exit
 2349      00
GAS LISTING C:\Users\PRESID~1\AppData\Local\Temp\ccCA8Smq.s 			page 73


 2350              	L122:
 2351              		.loc 2 63 4 discriminator 6
 2352 22a4 A1180000 		movl	___sput+24, %eax
 2352      00
 2353 22a9 85C0     		testl	%eax, %eax
 2354 22ab 7531     		jne	L123
 2355              		.loc 2 63 4 discriminator 7
 2356 22ad A1000000 		movl	___sput, %eax
 2356      00
 2357 22b2 8944240C 		movl	%eax, 12(%esp)
 2358 22b6 C7442408 		movl	$27, 8(%esp)
 2358      1B000000 
 2359 22be C7442404 		movl	$1, 4(%esp)
 2359      01000000 
 2360 22c6 C704241E 		movl	$LC1, (%esp)
 2360      000000
 2361 22cd E8000000 		call	_fwrite
 2361      00
 2362 22d2 C7042401 		movl	$1, (%esp)
 2362      000000
 2363 22d9 E8000000 		call	_exit
 2363      00
 2364              	L123:
 2365              		.loc 2 63 4 discriminator 8
 2366 22de A1200000 		movl	___sput+32, %eax
 2366      00
 2367 22e3 85C0     		testl	%eax, %eax
 2368 22e5 744E     		je	L124
 2369              		.loc 2 63 4 discriminator 9
 2370 22e7 A1280000 		movl	___sput+40, %eax
 2370      00
 2371 22ec 89442448 		movl	%eax, 72(%esp)
 2372 22f0 C744244C 		movl	$0, 76(%esp)
 2372      00000000 
 2373 22f8 DF6C2448 		fildq	72(%esp)
 2374 22fc DD5C2458 		fstpl	88(%esp)
 2375 2300 DD442458 		fldl	88(%esp)
 2376 2304 DB2DC003 		fldt	LC37
 2376      0000
 2377 230a DEC9     		fmulp	%st, %st(1)
 2378 230c A1200000 		movl	___sput+32, %eax
 2378      00
 2379 2311 89442448 		movl	%eax, 72(%esp)
 2380 2315 C744244C 		movl	$0, 76(%esp)
 2380      00000000 
 2381 231d DF6C2448 		fildq	72(%esp)
 2382 2321 DD5C2458 		fstpl	88(%esp)
 2383 2325 DD442458 		fldl	88(%esp)
 2384 2329 DEF9     		fdivrp	%st, %st(1)
 2385 232b D95C2454 		fstps	84(%esp)
 2386 232f D9442454 		flds	84(%esp)
 2387 2333 EB02     		jmp	L125
 2388              	L124:
 2389              		.loc 2 63 4 discriminator 10
 2390 2335 D9EE     		fldz
 2391              	L125:
 2392              		.loc 2 63 4 discriminator 12
GAS LISTING C:\Users\PRESID~1\AppData\Local\Temp\ccCA8Smq.s 			page 74


 2393 2337 D95C2460 		fstps	96(%esp)
 2394 233b D9442460 		flds	96(%esp)
 2395 233f 8B1D2800 		movl	___sput+40, %ebx
 2395      0000
 2396 2345 8B0D2400 		movl	___sput+36, %ecx
 2396      0000
 2397 234b 8B152000 		movl	___sput+32, %edx
 2397      0000
 2398 2351 A1000000 		movl	___sput, %eax
 2398      00
 2399 2356 DD5C2414 		fstpl	20(%esp)
 2400 235a 895C2410 		movl	%ebx, 16(%esp)
 2401 235e 894C240C 		movl	%ecx, 12(%esp)
 2402 2362 89542408 		movl	%edx, 8(%esp)
 2403 2366 C7442404 		movl	$LC38, 4(%esp)
 2403      74020000 
 2404 236e 890424   		movl	%eax, (%esp)
 2405 2371 E88ADCFF 		call	_fprintf
 2405      FF
 2406 2376 8B150800 		movl	___sput+8, %edx
 2406      0000
 2407 237c A1200000 		movl	___sput+32, %eax
 2407      00
 2408 2381 01D0     		addl	%edx, %eax
 2409 2383 A3080000 		movl	%eax, ___sput+8
 2409      00
 2410 2388 8B151000 		movl	___sput+16, %edx
 2410      0000
 2411 238e A1240000 		movl	___sput+36, %eax
 2411      00
 2412 2393 01D0     		addl	%edx, %eax
 2413 2395 A3100000 		movl	%eax, ___sput+16
 2413      00
 2414 239a 8B151400 		movl	___sput+20, %edx
 2414      0000
 2415 23a0 A1280000 		movl	___sput+40, %eax
 2415      00
 2416 23a5 01D0     		addl	%edx, %eax
 2417 23a7 A3140000 		movl	%eax, ___sput+20
 2417      00
 2418 23ac C7442408 		movl	$20, 8(%esp)
 2418      14000000 
 2419 23b4 C7442404 		movl	$0, 4(%esp)
 2419      00000000 
 2420 23bc C7042418 		movl	$___sput+24, (%esp)
 2420      000000
 2421 23c3 E8000000 		call	_memset
 2421      00
 2422              	L121:
 2423              	LBE5:
 2424              		.loc 2 63 4 discriminator 13
 2425 23c8 A1080000 		movl	___sput+8, %eax
 2425      00
 2426 23cd 85C0     		testl	%eax, %eax
 2427 23cf 744E     		je	L126
 2428              		.loc 2 63 4 discriminator 14
 2429 23d1 A1140000 		movl	___sput+20, %eax
GAS LISTING C:\Users\PRESID~1\AppData\Local\Temp\ccCA8Smq.s 			page 75


 2429      00
 2430 23d6 89442448 		movl	%eax, 72(%esp)
 2431 23da C744244C 		movl	$0, 76(%esp)
 2431      00000000 
 2432 23e2 DF6C2448 		fildq	72(%esp)
 2433 23e6 DD5C2458 		fstpl	88(%esp)
 2434 23ea DD442458 		fldl	88(%esp)
 2435 23ee DB2DC003 		fldt	LC37
 2435      0000
 2436 23f4 DEC9     		fmulp	%st, %st(1)
 2437 23f6 A1080000 		movl	___sput+8, %eax
 2437      00
 2438 23fb 89442448 		movl	%eax, 72(%esp)
 2439 23ff C744244C 		movl	$0, 76(%esp)
 2439      00000000 
 2440 2407 DF6C2448 		fildq	72(%esp)
 2441 240b DD5C2458 		fstpl	88(%esp)
 2442 240f DD442458 		fldl	88(%esp)
 2443 2413 DEF9     		fdivrp	%st, %st(1)
 2444 2415 D95C2454 		fstps	84(%esp)
 2445 2419 D9442454 		flds	84(%esp)
 2446 241d EB02     		jmp	L127
 2447              	L126:
 2448              		.loc 2 63 4 discriminator 15
 2449 241f D9EE     		fldz
 2450              	L127:
 2451              		.loc 2 63 4 discriminator 17
 2452 2421 D95C2464 		fstps	100(%esp)
 2453 2425 C7042400 		movl	$0, (%esp)
 2453      000000
 2454 242c E8000000 		call	_time
 2454      00
 2455 2431 A3480000 		movl	%eax, ___sput+72
 2455      00
 2456 2436 A1140000 		movl	___sput+20, %eax
 2456      00
 2457 243b 85C0     		testl	%eax, %eax
 2458 243d 7507     		jne	L128
 2459              		.loc 2 63 4 discriminator 18
 2460 243f BB350300 		movl	$LC44, %ebx
 2460      00
 2461 2444 EB05     		jmp	L129
 2462              	L128:
 2463              		.loc 2 63 4 discriminator 19
 2464 2446 BB3D0300 		movl	$LC45, %ebx
 2464      00
 2465              	L129:
 2466              		.loc 2 63 4 discriminator 21
 2467 244b D9442464 		flds	100(%esp)
 2468 244f DD5C2448 		fstpl	72(%esp)
 2469 2453 A1140000 		movl	___sput+20, %eax
 2469      00
 2470 2458 89442450 		movl	%eax, 80(%esp)
 2471 245c 8B351000 		movl	___sput+16, %esi
 2471      0000
 2472 2462 89742444 		movl	%esi, 68(%esp)
 2473 2466 8B154400 		movl	___sput+68, %edx
GAS LISTING C:\Users\PRESID~1\AppData\Local\Temp\ccCA8Smq.s 			page 76


 2473      0000
 2474 246c A1480000 		movl	___sput+72, %eax
 2474      00
 2475 2471 89542404 		movl	%edx, 4(%esp)
 2476 2475 890424   		movl	%eax, (%esp)
 2477 2478 E8000000 		call	_difftime
 2477      00
 2478 247d DD5C2438 		fstpl	56(%esp)
 2479 2481 8B442438 		movl	56(%esp), %eax
 2480 2485 8B54243C 		movl	60(%esp), %edx
 2481 2489 8B3D0C00 		movl	___sput+12, %edi
 2481      0000
 2482 248f 8B350800 		movl	___sput+8, %esi
 2482      0000
 2483 2495 8B0D0000 		movl	___sput, %ecx
 2483      0000
 2484 249b 895C2428 		movl	%ebx, 40(%esp)
 2485 249f DD442448 		fldl	72(%esp)
 2486 24a3 DD5C2420 		fstpl	32(%esp)
 2487 24a7 8B5C2450 		movl	80(%esp), %ebx
 2488 24ab 895C241C 		movl	%ebx, 28(%esp)
 2489 24af 8B5C2444 		movl	68(%esp), %ebx
 2490 24b3 895C2418 		movl	%ebx, 24(%esp)
 2491 24b7 89442410 		movl	%eax, 16(%esp)
 2492 24bb 89542414 		movl	%edx, 20(%esp)
 2493 24bf 897C240C 		movl	%edi, 12(%esp)
 2494 24c3 89742408 		movl	%esi, 8(%esp)
 2495 24c7 C7442404 		movl	$LC46, 4(%esp)
 2495      48030000 
 2496 24cf 890C24   		movl	%ecx, (%esp)
 2497 24d2 E829DBFF 		call	_fprintf
 2497      FF
 2498              	LBE4:
  64:C:/Users/president/Desktop/sbx/input/src/os_base\os_start_ext_prg_test.c **** 
  65:C:/Users/president/Desktop/sbx/input/src/os_base\os_start_ext_prg_test.c ****    return sput_get_return_value();
 2499              		.loc 2 65 11 is_stmt 1 discriminator 21
 2500 24d7 A1140000 		movl	___sput+20, %eax
 2500      00
 2501 24dc 85C0     		testl	%eax, %eax
 2502 24de 0F95C0   		setne	%al
 2503 24e1 0FB6C0   		movzbl	%al, %eax
  66:C:/Users/president/Desktop/sbx/input/src/os_base\os_start_ext_prg_test.c **** }
 2504              		.loc 2 66 1 discriminator 21
 2505 24e4 8D65F4   		leal	-12(%ebp), %esp
 2506 24e7 5B       		popl	%ebx
 2507              		.cfi_restore 3
 2508 24e8 5E       		popl	%esi
 2509              		.cfi_restore 6
 2510 24e9 5F       		popl	%edi
 2511              		.cfi_restore 7
 2512 24ea 5D       		popl	%ebp
 2513              		.cfi_restore 5
 2514              		.cfi_def_cfa 4, 4
 2515 24eb C3       		ret
 2516              		.cfi_endproc
 2517              	LFE17:
 2518              		.section .rdata,"dr"
GAS LISTING C:\Users\PRESID~1\AppData\Local\Temp\ccCA8Smq.s 			page 77


 2519 03b7 00000000 		.align 16
 2519      00000000 
 2519      00
 2520              	LC37:
 2521 03c0 00000000 		.long	0
 2522 03c4 000000C8 		.long	-939524096
 2523 03c8 05400000 		.long	16389
 2524 03cc 00000000 		.text
 2525              	Letext0:
 2526              		.file 3 "c:/program/mingw/include/stdlib.h"
 2527              		.file 4 "c:/program/mingw/include/sys/types.h"
 2528              		.file 5 "c:/program/mingw/include/time.h"
 2529              		.file 6 "c:/users/president/desktop/sbx/input/src/os_base/os_sput.h"
 2530              		.section	.debug_info,"dr"
 2531              	Ldebug_info0:
 2532 0000 2D060000 		.long	0x62d
 2533 0004 0400     		.word	0x4
 2534 0006 00000000 		.secrel32	Ldebug_abbrev0
 2535 000a 04       		.byte	0x4
 2536 000b 01       		.uleb128 0x1
 2537 000c 474E5520 		.ascii "GNU C89 8.2.0 -march=i386 -g3 -O0 -std=c90\0"
 2537      43383920 
 2537      382E322E 
 2537      30202D6D 
 2537      61726368 
 2538 0037 01       		.byte	0x1
 2539 0038 433A5C55 		.ascii "C:\\Users\\president\\Desktop\\sbx\\input\\src\\os_base\\os_start_ext_prg_test.c\0"
 2539      73657273 
 2539      5C707265 
 2539      73696465 
 2539      6E745C44 
 2540 0081 433A5C55 		.ascii "C:\\Users\\president\\Desktop\\sbx\\input\\tools\0"
 2540      73657273 
 2540      5C707265 
 2540      73696465 
 2540      6E745C44 
 2541 00ac 00000000 		.long	Ltext0
 2542 00b0 EC240000 		.long	Letext0-Ltext0
 2543 00b4 00000000 		.secrel32	Ldebug_line0
 2544 00b8 00000000 		.secrel32	Ldebug_macro0
 2545 00bc 02       		.uleb128 0x2
 2546 00bd 04       		.byte	0x4
 2547 00be 07       		.byte	0x7
 2548 00bf 756E7369 		.ascii "unsigned int\0"
 2548      676E6564 
 2548      20696E74 
 2548      00
 2549 00cc 02       		.uleb128 0x2
 2550 00cd 02       		.byte	0x2
 2551 00ce 07       		.byte	0x7
 2552 00cf 73686F72 		.ascii "short unsigned int\0"
 2552      7420756E 
 2552      7369676E 
 2552      65642069 
 2552      6E7400
 2553 00e2 02       		.uleb128 0x2
 2554 00e3 08       		.byte	0x8
GAS LISTING C:\Users\PRESID~1\AppData\Local\Temp\ccCA8Smq.s 			page 78


 2555 00e4 05       		.byte	0x5
 2556 00e5 6C6F6E67 		.ascii "long long int\0"
 2556      206C6F6E 
 2556      6720696E 
 2556      7400
 2557 00f3 03       		.uleb128 0x3
 2558 00f4 04       		.byte	0x4
 2559 00f5 5F5F6275 		.ascii "__builtin_va_list\0"
 2559      696C7469 
 2559      6E5F7661 
 2559      5F6C6973 
 2559      7400
 2560 0107 0B010000 		.long	0x10b
 2561 010b 02       		.uleb128 0x2
 2562 010c 01       		.byte	0x1
 2563 010d 06       		.byte	0x6
 2564 010e 63686172 		.ascii "char\0"
 2564      00
 2565 0113 04       		.uleb128 0x4
 2566 0114 0B010000 		.long	0x10b
 2567 0118 05       		.uleb128 0x5
 2568 0119 5F696F62 		.ascii "_iobuf\0"
 2568      756600
 2569 0120 20       		.byte	0x20
 2570 0121 01       		.byte	0x1
 2571 0122 D2       		.byte	0xd2
 2572 0123 10       		.byte	0x10
 2573 0124 A8010000 		.long	0x1a8
 2574 0128 06       		.uleb128 0x6
 2575 0129 5F707472 		.ascii "_ptr\0"
 2575      00
 2576 012e 01       		.byte	0x1
 2577 012f D4       		.byte	0xd4
 2578 0130 09       		.byte	0x9
 2579 0131 A8010000 		.long	0x1a8
 2580 0135 00       		.byte	0
 2581 0136 06       		.uleb128 0x6
 2582 0137 5F636E74 		.ascii "_cnt\0"
 2582      00
 2583 013c 01       		.byte	0x1
 2584 013d D5       		.byte	0xd5
 2585 013e 08       		.byte	0x8
 2586 013f AE010000 		.long	0x1ae
 2587 0143 04       		.byte	0x4
 2588 0144 06       		.uleb128 0x6
 2589 0145 5F626173 		.ascii "_base\0"
 2589      6500
 2590 014b 01       		.byte	0x1
 2591 014c D6       		.byte	0xd6
 2592 014d 09       		.byte	0x9
 2593 014e A8010000 		.long	0x1a8
 2594 0152 08       		.byte	0x8
 2595 0153 06       		.uleb128 0x6
 2596 0154 5F666C61 		.ascii "_flag\0"
 2596      6700
 2597 015a 01       		.byte	0x1
 2598 015b D7       		.byte	0xd7
GAS LISTING C:\Users\PRESID~1\AppData\Local\Temp\ccCA8Smq.s 			page 79


 2599 015c 08       		.byte	0x8
 2600 015d AE010000 		.long	0x1ae
 2601 0161 0C       		.byte	0xc
 2602 0162 06       		.uleb128 0x6
 2603 0163 5F66696C 		.ascii "_file\0"
 2603      6500
 2604 0169 01       		.byte	0x1
 2605 016a D8       		.byte	0xd8
 2606 016b 08       		.byte	0x8
 2607 016c AE010000 		.long	0x1ae
 2608 0170 10       		.byte	0x10
 2609 0171 06       		.uleb128 0x6
 2610 0172 5F636861 		.ascii "_charbuf\0"
 2610      72627566 
 2610      00
 2611 017b 01       		.byte	0x1
 2612 017c D9       		.byte	0xd9
 2613 017d 08       		.byte	0x8
 2614 017e AE010000 		.long	0x1ae
 2615 0182 14       		.byte	0x14
 2616 0183 06       		.uleb128 0x6
 2617 0184 5F627566 		.ascii "_bufsiz\0"
 2617      73697A00 
 2618 018c 01       		.byte	0x1
 2619 018d DA       		.byte	0xda
 2620 018e 08       		.byte	0x8
 2621 018f AE010000 		.long	0x1ae
 2622 0193 18       		.byte	0x18
 2623 0194 06       		.uleb128 0x6
 2624 0195 5F746D70 		.ascii "_tmpfname\0"
 2624      666E616D 
 2624      6500
 2625 019f 01       		.byte	0x1
 2626 01a0 DB       		.byte	0xdb
 2627 01a1 09       		.byte	0x9
 2628 01a2 A8010000 		.long	0x1a8
 2629 01a6 1C       		.byte	0x1c
 2630 01a7 00       		.byte	0
 2631 01a8 07       		.uleb128 0x7
 2632 01a9 04       		.byte	0x4
 2633 01aa 0B010000 		.long	0x10b
 2634 01ae 02       		.uleb128 0x2
 2635 01af 04       		.byte	0x4
 2636 01b0 05       		.byte	0x5
 2637 01b1 696E7400 		.ascii "int\0"
 2638 01b5 08       		.uleb128 0x8
 2639 01b6 46494C45 		.ascii "FILE\0"
 2639      00
 2640 01bb 01       		.byte	0x1
 2641 01bc DC       		.byte	0xdc
 2642 01bd 03       		.byte	0x3
 2643 01be 18010000 		.long	0x118
 2644 01c2 09       		.uleb128 0x9
 2645 01c3 B5010000 		.long	0x1b5
 2646 01c7 CD010000 		.long	0x1cd
 2647 01cb 0A       		.uleb128 0xa
 2648 01cc 00       		.byte	0
GAS LISTING C:\Users\PRESID~1\AppData\Local\Temp\ccCA8Smq.s 			page 80


 2649 01cd 0B       		.uleb128 0xb
 2650 01ce 5F696F62 		.ascii "_iob\0"
 2650      00
 2651 01d3 01       		.byte	0x1
 2652 01d4 EF       		.byte	0xef
 2653 01d5 15       		.byte	0x15
 2654 01d6 C2010000 		.long	0x1c2
 2655 01da 0B       		.uleb128 0xb
 2656 01db 5F5F6D62 		.ascii "__mb_cur_max\0"
 2656      5F637572 
 2656      5F6D6178 
 2656      00
 2657 01e8 03       		.byte	0x3
 2658 01e9 8E       		.byte	0x8e
 2659 01ea 17       		.byte	0x17
 2660 01eb AE010000 		.long	0x1ae
 2661 01ef 02       		.uleb128 0x2
 2662 01f0 04       		.byte	0x4
 2663 01f1 05       		.byte	0x5
 2664 01f2 6C6F6E67 		.ascii "long int\0"
 2664      20696E74 
 2664      00
 2665 01fb 08       		.uleb128 0x8
 2666 01fc 5F5F7469 		.ascii "__time32_t\0"
 2666      6D653332 
 2666      5F7400
 2667 0207 04       		.byte	0x4
 2668 0208 8B       		.byte	0x8b
 2669 0209 13       		.byte	0x13
 2670 020a EF010000 		.long	0x1ef
 2671 020e 08       		.uleb128 0x8
 2672 020f 74696D65 		.ascii "time_t\0"
 2672      5F7400
 2673 0216 04       		.byte	0x4
 2674 0217 95       		.byte	0x95
 2675 0218 17       		.byte	0x17
 2676 0219 FB010000 		.long	0x1fb
 2677 021d 0C       		.uleb128 0xc
 2678 021e 6461796C 		.ascii "daylight\0"
 2678      69676874 
 2678      00
 2679 0227 05       		.byte	0x5
 2680 0228 7D01     		.word	0x17d
 2681 022a 16       		.byte	0x16
 2682 022b AE010000 		.long	0x1ae
 2683 022f 0C       		.uleb128 0xc
 2684 0230 74696D65 		.ascii "timezone\0"
 2684      7A6F6E65 
 2684      00
 2685 0239 05       		.byte	0x5
 2686 023a 7E01     		.word	0x17e
 2687 023c 16       		.byte	0x16
 2688 023d EF010000 		.long	0x1ef
 2689 0241 09       		.uleb128 0x9
 2690 0242 A8010000 		.long	0x1a8
 2691 0246 51020000 		.long	0x251
 2692 024a 0D       		.uleb128 0xd
GAS LISTING C:\Users\PRESID~1\AppData\Local\Temp\ccCA8Smq.s 			page 81


 2693 024b BC000000 		.long	0xbc
 2694 024f 01       		.byte	0x1
 2695 0250 00       		.byte	0
 2696 0251 0C       		.uleb128 0xc
 2697 0252 747A6E61 		.ascii "tzname\0"
 2697      6D6500
 2698 0259 05       		.byte	0x5
 2699 025a 7F01     		.word	0x17f
 2700 025c 16       		.byte	0x16
 2701 025d 41020000 		.long	0x241
 2702 0261 05       		.uleb128 0x5
 2703 0262 73707574 		.ascii "sput_overall\0"
 2703      5F6F7665 
 2703      72616C6C 
 2703      00
 2704 026f 10       		.byte	0x10
 2705 0270 06       		.byte	0x6
 2706 0271 4C       		.byte	0x4c
 2707 0272 0B       		.byte	0xb
 2708 0273 B1020000 		.long	0x2b1
 2709 0277 06       		.uleb128 0x6
 2710 0278 63686563 		.ascii "checks\0"
 2710      6B7300
 2711 027f 06       		.byte	0x6
 2712 0280 4E       		.byte	0x4e
 2713 0281 15       		.byte	0x15
 2714 0282 B1020000 		.long	0x2b1
 2715 0286 00       		.byte	0
 2716 0287 06       		.uleb128 0x6
 2717 0288 73756974 		.ascii "suites\0"
 2717      657300
 2718 028f 06       		.byte	0x6
 2719 0290 4F       		.byte	0x4f
 2720 0291 15       		.byte	0x15
 2721 0292 B1020000 		.long	0x2b1
 2722 0296 04       		.byte	0x4
 2723 0297 06       		.uleb128 0x6
 2724 0298 6F6B00   		.ascii "ok\0"
 2725 029b 06       		.byte	0x6
 2726 029c 50       		.byte	0x50
 2727 029d 15       		.byte	0x15
 2728 029e B1020000 		.long	0x2b1
 2729 02a2 08       		.byte	0x8
 2730 02a3 06       		.uleb128 0x6
 2731 02a4 6E6F6B00 		.ascii "nok\0"
 2732 02a8 06       		.byte	0x6
 2733 02a9 51       		.byte	0x51
 2734 02aa 15       		.byte	0x15
 2735 02ab B1020000 		.long	0x2b1
 2736 02af 0C       		.byte	0xc
 2737 02b0 00       		.byte	0
 2738 02b1 02       		.uleb128 0x2
 2739 02b2 04       		.byte	0x4
 2740 02b3 07       		.byte	0x7
 2741 02b4 6C6F6E67 		.ascii "long unsigned int\0"
 2741      20756E73 
 2741      69676E65 
GAS LISTING C:\Users\PRESID~1\AppData\Local\Temp\ccCA8Smq.s 			page 82


 2741      6420696E 
 2741      7400
 2742 02c6 05       		.uleb128 0x5
 2743 02c7 73707574 		.ascii "sput_suite\0"
 2743      5F737569 
 2743      746500
 2744 02d2 14       		.byte	0x14
 2745 02d3 06       		.byte	0x6
 2746 02d4 54       		.byte	0x54
 2747 02d5 0B       		.byte	0xb
 2748 02d6 1E030000 		.long	0x31e
 2749 02da 06       		.uleb128 0x6
 2750 02db 6E616D65 		.ascii "name\0"
 2750      00
 2751 02e0 06       		.byte	0x6
 2752 02e1 56       		.byte	0x56
 2753 02e2 15       		.byte	0x15
 2754 02e3 1E030000 		.long	0x31e
 2755 02e7 00       		.byte	0
 2756 02e8 06       		.uleb128 0x6
 2757 02e9 6E7200   		.ascii "nr\0"
 2758 02ec 06       		.byte	0x6
 2759 02ed 57       		.byte	0x57
 2760 02ee 15       		.byte	0x15
 2761 02ef B1020000 		.long	0x2b1
 2762 02f3 04       		.byte	0x4
 2763 02f4 06       		.uleb128 0x6
 2764 02f5 63686563 		.ascii "checks\0"
 2764      6B7300
 2765 02fc 06       		.byte	0x6
 2766 02fd 58       		.byte	0x58
 2767 02fe 15       		.byte	0x15
 2768 02ff B1020000 		.long	0x2b1
 2769 0303 08       		.byte	0x8
 2770 0304 06       		.uleb128 0x6
 2771 0305 6F6B00   		.ascii "ok\0"
 2772 0308 06       		.byte	0x6
 2773 0309 59       		.byte	0x59
 2774 030a 15       		.byte	0x15
 2775 030b B1020000 		.long	0x2b1
 2776 030f 0C       		.byte	0xc
 2777 0310 06       		.uleb128 0x6
 2778 0311 6E6F6B00 		.ascii "nok\0"
 2779 0315 06       		.byte	0x6
 2780 0316 5A       		.byte	0x5a
 2781 0317 15       		.byte	0x15
 2782 0318 B1020000 		.long	0x2b1
 2783 031c 10       		.byte	0x10
 2784 031d 00       		.byte	0
 2785 031e 07       		.uleb128 0x7
 2786 031f 04       		.byte	0x4
 2787 0320 13010000 		.long	0x113
 2788 0324 05       		.uleb128 0x5
 2789 0325 73707574 		.ascii "sput_test\0"
 2789      5F746573 
 2789      7400
 2790 032f 08       		.byte	0x8
GAS LISTING C:\Users\PRESID~1\AppData\Local\Temp\ccCA8Smq.s 			page 83


 2791 0330 06       		.byte	0x6
 2792 0331 5D       		.byte	0x5d
 2793 0332 0B       		.byte	0xb
 2794 0333 52030000 		.long	0x352
 2795 0337 06       		.uleb128 0x6
 2796 0338 6E616D65 		.ascii "name\0"
 2796      00
 2797 033d 06       		.byte	0x6
 2798 033e 5F       		.byte	0x5f
 2799 033f 15       		.byte	0x15
 2800 0340 1E030000 		.long	0x31e
 2801 0344 00       		.byte	0
 2802 0345 06       		.uleb128 0x6
 2803 0346 6E7200   		.ascii "nr\0"
 2804 0349 06       		.byte	0x6
 2805 034a 60       		.byte	0x60
 2806 034b 15       		.byte	0x15
 2807 034c B1020000 		.long	0x2b1
 2808 0350 04       		.byte	0x4
 2809 0351 00       		.byte	0
 2810 0352 05       		.uleb128 0x5
 2811 0353 73707574 		.ascii "sput_check\0"
 2811      5F636865 
 2811      636B00
 2812 035e 10       		.byte	0x10
 2813 035f 06       		.byte	0x6
 2814 0360 63       		.byte	0x63
 2815 0361 0B       		.byte	0xb
 2816 0362 9F030000 		.long	0x39f
 2817 0366 06       		.uleb128 0x6
 2818 0367 6E616D65 		.ascii "name\0"
 2818      00
 2819 036c 06       		.byte	0x6
 2820 036d 65       		.byte	0x65
 2821 036e 15       		.byte	0x15
 2822 036f 1E030000 		.long	0x31e
 2823 0373 00       		.byte	0
 2824 0374 06       		.uleb128 0x6
 2825 0375 636F6E64 		.ascii "cond\0"
 2825      00
 2826 037a 06       		.byte	0x6
 2827 037b 66       		.byte	0x66
 2828 037c 15       		.byte	0x15
 2829 037d 1E030000 		.long	0x31e
 2830 0381 04       		.byte	0x4
 2831 0382 06       		.uleb128 0x6
 2832 0383 74797065 		.ascii "type\0"
 2832      00
 2833 0388 06       		.byte	0x6
 2834 0389 67       		.byte	0x67
 2835 038a 15       		.byte	0x15
 2836 038b 1E030000 		.long	0x31e
 2837 038f 08       		.byte	0x8
 2838 0390 06       		.uleb128 0x6
 2839 0391 6C696E65 		.ascii "line\0"
 2839      00
 2840 0396 06       		.byte	0x6
GAS LISTING C:\Users\PRESID~1\AppData\Local\Temp\ccCA8Smq.s 			page 84


 2841 0397 68       		.byte	0x68
 2842 0398 15       		.byte	0x15
 2843 0399 B1020000 		.long	0x2b1
 2844 039d 0C       		.byte	0xc
 2845 039e 00       		.byte	0
 2846 039f 05       		.uleb128 0x5
 2847 03a0 73707574 		.ascii "sput_time\0"
 2847      5F74696D 
 2847      6500
 2848 03aa 08       		.byte	0x8
 2849 03ab 06       		.byte	0x6
 2850 03ac 6B       		.byte	0x6b
 2851 03ad 0B       		.byte	0xb
 2852 03ae CF030000 		.long	0x3cf
 2853 03b2 06       		.uleb128 0x6
 2854 03b3 73746172 		.ascii "start\0"
 2854      7400
 2855 03b9 06       		.byte	0x6
 2856 03ba 6D       		.byte	0x6d
 2857 03bb 0E       		.byte	0xe
 2858 03bc 0E020000 		.long	0x20e
 2859 03c0 00       		.byte	0
 2860 03c1 06       		.uleb128 0x6
 2861 03c2 656E6400 		.ascii "end\0"
 2862 03c6 06       		.byte	0x6
 2863 03c7 6E       		.byte	0x6e
 2864 03c8 0E       		.byte	0xe
 2865 03c9 0E020000 		.long	0x20e
 2866 03cd 04       		.byte	0x4
 2867 03ce 00       		.byte	0
 2868 03cf 05       		.uleb128 0x5
 2869 03d0 73707574 		.ascii "sput\0"
 2869      00
 2870 03d5 4C       		.byte	0x4c
 2871 03d6 06       		.byte	0x6
 2872 03d7 47       		.byte	0x47
 2873 03d8 0F       		.byte	0xf
 2874 03d9 4B040000 		.long	0x44b
 2875 03dd 06       		.uleb128 0x6
 2876 03de 6F757400 		.ascii "out\0"
 2877 03e2 06       		.byte	0x6
 2878 03e3 49       		.byte	0x49
 2879 03e4 0A       		.byte	0xa
 2880 03e5 4B040000 		.long	0x44b
 2881 03e9 00       		.byte	0
 2882 03ea 06       		.uleb128 0x6
 2883 03eb 696E6974 		.ascii "initialized\0"
 2883      69616C69 
 2883      7A656400 
 2884 03f7 06       		.byte	0x6
 2885 03f8 4A       		.byte	0x4a
 2886 03f9 0A       		.byte	0xa
 2887 03fa 0B010000 		.long	0x10b
 2888 03fe 04       		.byte	0x4
 2889 03ff 06       		.uleb128 0x6
 2890 0400 6F766572 		.ascii "overall\0"
 2890      616C6C00 
GAS LISTING C:\Users\PRESID~1\AppData\Local\Temp\ccCA8Smq.s 			page 85


 2891 0408 06       		.byte	0x6
 2892 0409 52       		.byte	0x52
 2893 040a 06       		.byte	0x6
 2894 040b 61020000 		.long	0x261
 2895 040f 08       		.byte	0x8
 2896 0410 06       		.uleb128 0x6
 2897 0411 73756974 		.ascii "suite\0"
 2897      6500
 2898 0417 06       		.byte	0x6
 2899 0418 5B       		.byte	0x5b
 2900 0419 06       		.byte	0x6
 2901 041a C6020000 		.long	0x2c6
 2902 041e 18       		.byte	0x18
 2903 041f 06       		.uleb128 0x6
 2904 0420 74657374 		.ascii "test\0"
 2904      00
 2905 0425 06       		.byte	0x6
 2906 0426 61       		.byte	0x61
 2907 0427 06       		.byte	0x6
 2908 0428 24030000 		.long	0x324
 2909 042c 2C       		.byte	0x2c
 2910 042d 06       		.uleb128 0x6
 2911 042e 63686563 		.ascii "check\0"
 2911      6B00
 2912 0434 06       		.byte	0x6
 2913 0435 69       		.byte	0x69
 2914 0436 06       		.byte	0x6
 2915 0437 52030000 		.long	0x352
 2916 043b 34       		.byte	0x34
 2917 043c 06       		.uleb128 0x6
 2918 043d 74696D65 		.ascii "time\0"
 2918      00
 2919 0442 06       		.byte	0x6
 2920 0443 6F       		.byte	0x6f
 2921 0444 06       		.byte	0x6
 2922 0445 9F030000 		.long	0x39f
 2923 0449 44       		.byte	0x44
 2924 044a 00       		.byte	0
 2925 044b 07       		.uleb128 0x7
 2926 044c 04       		.byte	0x4
 2927 044d B5010000 		.long	0x1b5
 2928 0451 0E       		.uleb128 0xe
 2929 0452 5F5F7370 		.ascii "__sput\0"
 2929      757400
 2930 0459 06       		.byte	0x6
 2931 045a 70       		.byte	0x70
 2932 045b 03       		.byte	0x3
 2933 045c CF030000 		.long	0x3cf
 2934 0460 05       		.uleb128 0x5
 2935 0461 03       		.byte	0x3
 2936 0462 00000000 		.long	___sput
 2937 0466 0F       		.uleb128 0xf
 2938 0467 6D61696E 		.ascii "main\0"
 2938      00
 2939 046c 02       		.byte	0x2
 2940 046d 35       		.byte	0x35
 2941 046e 05       		.byte	0x5
GAS LISTING C:\Users\PRESID~1\AppData\Local\Temp\ccCA8Smq.s 			page 86


 2942 046f AE010000 		.long	0x1ae
 2943 0473 891C0000 		.long	LFB17
 2944 0477 63080000 		.long	LFE17-LFB17
 2945 047b 01       		.uleb128 0x1
 2946 047c 9C       		.byte	0x9c
 2947 047d 16050000 		.long	0x516
 2948 0481 10       		.uleb128 0x10
 2949 0482 61726763 		.ascii "argc\0"
 2949      00
 2950 0487 02       		.byte	0x2
 2951 0488 35       		.byte	0x35
 2952 0489 0E       		.byte	0xe
 2953 048a AE010000 		.long	0x1ae
 2954 048e 02       		.uleb128 0x2
 2955 048f 91       		.byte	0x91
 2956 0490 00       		.sleb128 0
 2957 0491 10       		.uleb128 0x10
 2958 0492 61726776 		.ascii "argv\0"
 2958      00
 2959 0497 02       		.byte	0x2
 2960 0498 35       		.byte	0x35
 2961 0499 1A       		.byte	0x1a
 2962 049a 16050000 		.long	0x516
 2963 049e 02       		.uleb128 0x2
 2964 049f 91       		.byte	0x91
 2965 04a0 04       		.sleb128 4
 2966 04a1 11       		.uleb128 0x11
 2967 04a2 251D0000 		.long	LBB2
 2968 04a6 67010000 		.long	LBE2-LBB2
 2969 04aa BF040000 		.long	0x4bf
 2970 04ae 12       		.uleb128 0x12
 2971 04af 00000000 		.secrel32	LASF0
 2972 04b3 02       		.byte	0x2
 2973 04b4 39       		.byte	0x39
 2974 04b5 04       		.byte	0x4
 2975 04b6 1C050000 		.long	0x51c
 2976 04ba 03       		.uleb128 0x3
 2977 04bb 74       		.byte	0x74
 2978 04bc EC00     		.sleb128 108
 2979 04be 00       		.byte	0
 2980 04bf 11       		.uleb128 0x11
 2981 04c0 C01F0000 		.long	LBB3
 2982 04c4 67010000 		.long	LBE3-LBB3
 2983 04c8 DD040000 		.long	0x4dd
 2984 04cc 12       		.uleb128 0x12
 2985 04cd 00000000 		.secrel32	LASF0
 2986 04d1 02       		.byte	0x2
 2987 04d2 3C       		.byte	0x3c
 2988 04d3 04       		.byte	0x4
 2989 04d4 1C050000 		.long	0x51c
 2990 04d8 03       		.uleb128 0x3
 2991 04d9 74       		.byte	0x74
 2992 04da E800     		.sleb128 104
 2993 04dc 00       		.byte	0
 2994 04dd 13       		.uleb128 0x13
 2995 04de 11220000 		.long	LBB4
 2996 04e2 C6020000 		.long	LBE4-LBB4
GAS LISTING C:\Users\PRESID~1\AppData\Local\Temp\ccCA8Smq.s 			page 87


 2997 04e6 0E       		.uleb128 0xe
 2998 04e7 6661696C 		.ascii "failpft\0"
 2998      70667400 
 2999 04ef 02       		.byte	0x2
 3000 04f0 3F       		.byte	0x3f
 3001 04f1 04       		.byte	0x4
 3002 04f2 1C050000 		.long	0x51c
 3003 04f6 03       		.uleb128 0x3
 3004 04f7 74       		.byte	0x74
 3005 04f8 E400     		.sleb128 100
 3006 04fa 13       		.uleb128 0x13
 3007 04fb 61220000 		.long	LBB5
 3008 04ff 67010000 		.long	LBE5-LBB5
 3009 0503 12       		.uleb128 0x12
 3010 0504 00000000 		.secrel32	LASF0
 3011 0508 02       		.byte	0x2
 3012 0509 3F       		.byte	0x3f
 3013 050a 04       		.byte	0x4
 3014 050b 1C050000 		.long	0x51c
 3015 050f 03       		.uleb128 0x3
 3016 0510 74       		.byte	0x74
 3017 0511 E000     		.sleb128 96
 3018 0513 00       		.byte	0
 3019 0514 00       		.byte	0
 3020 0515 00       		.byte	0
 3021 0516 07       		.uleb128 0x7
 3022 0517 04       		.byte	0x4
 3023 0518 A8010000 		.long	0x1a8
 3024 051c 02       		.uleb128 0x2
 3025 051d 04       		.byte	0x4
 3026 051e 04       		.byte	0x4
 3027 051f 666C6F61 		.ascii "float\0"
 3027      7400
 3028 0525 14       		.uleb128 0x14
 3029 0526 74657374 		.ascii "test_no_vowels_present\0"
 3029      5F6E6F5F 
 3029      766F7765 
 3029      6C735F70 
 3029      72657365 
 3030 053d 02       		.byte	0x2
 3031 053e 2B       		.byte	0x2b
 3032 053f 0D       		.byte	0xd
 3033 0540 8A0E0000 		.long	LFB16
 3034 0544 FF0D0000 		.long	LFE16-LFB16
 3035 0548 01       		.uleb128 0x1
 3036 0549 9C       		.byte	0x9c
 3037 054a 14       		.uleb128 0x14
 3038 054b 74657374 		.ascii "test_vowels_present\0"
 3038      5F766F77 
 3038      656C735F 
 3038      70726573 
 3038      656E7400 
 3039 055f 02       		.byte	0x2
 3040 0560 21       		.byte	0x21
 3041 0561 0D       		.byte	0xd
 3042 0562 86000000 		.long	LFB15
 3043 0566 040E0000 		.long	LFE15-LFB15
GAS LISTING C:\Users\PRESID~1\AppData\Local\Temp\ccCA8Smq.s 			page 88


 3044 056a 01       		.uleb128 0x1
 3045 056b 9C       		.byte	0x9c
 3046 056c 15       		.uleb128 0x15
 3047 056d 636F756E 		.ascii "count_vowels\0"
 3047      745F766F 
 3047      77656C73 
 3047      00
 3048 057a 02       		.byte	0x2
 3049 057b 0D       		.byte	0xd
 3050 057c 0C       		.byte	0xc
 3051 057d AE010000 		.long	0x1ae
 3052 0581 30000000 		.long	LFB14
 3053 0585 56000000 		.long	LFE14-LFB14
 3054 0589 01       		.uleb128 0x1
 3055 058a 9C       		.byte	0x9c
 3056 058b BC050000 		.long	0x5bc
 3057 058f 10       		.uleb128 0x10
 3058 0590 7300     		.ascii "s\0"
 3059 0592 02       		.byte	0x2
 3060 0593 0D       		.byte	0xd
 3061 0594 25       		.byte	0x25
 3062 0595 1E030000 		.long	0x31e
 3063 0599 02       		.uleb128 0x2
 3064 059a 91       		.byte	0x91
 3065 059b 00       		.sleb128 0
 3066 059c 0E       		.uleb128 0xe
 3067 059d 637000   		.ascii "cp\0"
 3068 05a0 02       		.byte	0x2
 3069 05a1 0F       		.byte	0xf
 3070 05a2 10       		.byte	0x10
 3071 05a3 1E030000 		.long	0x31e
 3072 05a7 02       		.uleb128 0x2
 3073 05a8 91       		.byte	0x91
 3074 05a9 74       		.sleb128 -12
 3075 05aa 0E       		.uleb128 0xe
 3076 05ab 636F756E 		.ascii "count\0"
 3076      7400
 3077 05b1 02       		.byte	0x2
 3078 05b2 10       		.byte	0x10
 3079 05b3 10       		.byte	0x10
 3080 05b4 AE010000 		.long	0x1ae
 3081 05b8 02       		.uleb128 0x2
 3082 05b9 91       		.byte	0x91
 3083 05ba 70       		.sleb128 -16
 3084 05bb 00       		.byte	0
 3085 05bc 16       		.uleb128 0x16
 3086 05bd 66707269 		.ascii "fprintf\0"
 3086      6E746600 
 3087 05c5 01       		.byte	0x1
 3088 05c6 9B01     		.word	0x19b
 3089 05c8 05       		.byte	0x5
 3090 05c9 AE010000 		.long	0x1ae
 3091 05cd 00000000 		.long	LFB0
 3092 05d1 30000000 		.long	LFE0-LFB0
 3093 05d5 01       		.uleb128 0x1
 3094 05d6 9C       		.byte	0x9c
 3095 05d7 17       		.uleb128 0x17
GAS LISTING C:\Users\PRESID~1\AppData\Local\Temp\ccCA8Smq.s 			page 89


 3096 05d8 5F5F7374 		.ascii "__stream\0"
 3096      7265616D 
 3096      00
 3097 05e1 01       		.byte	0x1
 3098 05e2 9B01     		.word	0x19b
 3099 05e4 14       		.byte	0x14
 3100 05e5 4B040000 		.long	0x44b
 3101 05e9 02       		.uleb128 0x2
 3102 05ea 91       		.byte	0x91
 3103 05eb 00       		.sleb128 0
 3104 05ec 17       		.uleb128 0x17
 3105 05ed 5F5F666F 		.ascii "__format\0"
 3105      726D6174 
 3105      00
 3106 05f6 01       		.byte	0x1
 3107 05f7 9B01     		.word	0x19b
 3108 05f9 2A       		.byte	0x2a
 3109 05fa 1E030000 		.long	0x31e
 3110 05fe 02       		.uleb128 0x2
 3111 05ff 91       		.byte	0x91
 3112 0600 04       		.sleb128 4
 3113 0601 18       		.uleb128 0x18
 3114 0602 19       		.uleb128 0x19
 3115 0603 5F5F7265 		.ascii "__retval\0"
 3115      7476616C 
 3115      00
 3116 060c 01       		.byte	0x1
 3117 060d 9D01     		.word	0x19d
 3118 060f 10       		.byte	0x10
 3119 0610 AE010000 		.long	0x1ae
 3120 0614 01       		.uleb128 0x1
 3121 0615 53       		.byte	0x53
 3122 0616 19       		.uleb128 0x19
 3123 0617 5F5F6C6F 		.ascii "__local_argv\0"
 3123      63616C5F 
 3123      61726776 
 3123      00
 3124 0624 01       		.byte	0x1
 3125 0625 9E01     		.word	0x19e
 3126 0627 15       		.byte	0x15
 3127 0628 F3000000 		.long	0xf3
 3128 062c 02       		.uleb128 0x2
 3129 062d 91       		.byte	0x91
 3130 062e 6C       		.sleb128 -20
 3131 062f 00       		.byte	0
 3132 0630 00       		.byte	0
 3133              		.section	.debug_abbrev,"dr"
 3134              	Ldebug_abbrev0:
 3135 0000 01       		.uleb128 0x1
 3136 0001 11       		.uleb128 0x11
 3137 0002 01       		.byte	0x1
 3138 0003 25       		.uleb128 0x25
 3139 0004 08       		.uleb128 0x8
 3140 0005 13       		.uleb128 0x13
 3141 0006 0B       		.uleb128 0xb
 3142 0007 03       		.uleb128 0x3
 3143 0008 08       		.uleb128 0x8
GAS LISTING C:\Users\PRESID~1\AppData\Local\Temp\ccCA8Smq.s 			page 90


 3144 0009 1B       		.uleb128 0x1b
 3145 000a 08       		.uleb128 0x8
 3146 000b 11       		.uleb128 0x11
 3147 000c 01       		.uleb128 0x1
 3148 000d 12       		.uleb128 0x12
 3149 000e 06       		.uleb128 0x6
 3150 000f 10       		.uleb128 0x10
 3151 0010 17       		.uleb128 0x17
 3152 0011 9942     		.uleb128 0x2119
 3153 0013 17       		.uleb128 0x17
 3154 0014 00       		.byte	0
 3155 0015 00       		.byte	0
 3156 0016 02       		.uleb128 0x2
 3157 0017 24       		.uleb128 0x24
 3158 0018 00       		.byte	0
 3159 0019 0B       		.uleb128 0xb
 3160 001a 0B       		.uleb128 0xb
 3161 001b 3E       		.uleb128 0x3e
 3162 001c 0B       		.uleb128 0xb
 3163 001d 03       		.uleb128 0x3
 3164 001e 08       		.uleb128 0x8
 3165 001f 00       		.byte	0
 3166 0020 00       		.byte	0
 3167 0021 03       		.uleb128 0x3
 3168 0022 0F       		.uleb128 0xf
 3169 0023 00       		.byte	0
 3170 0024 0B       		.uleb128 0xb
 3171 0025 0B       		.uleb128 0xb
 3172 0026 03       		.uleb128 0x3
 3173 0027 08       		.uleb128 0x8
 3174 0028 49       		.uleb128 0x49
 3175 0029 13       		.uleb128 0x13
 3176 002a 00       		.byte	0
 3177 002b 00       		.byte	0
 3178 002c 04       		.uleb128 0x4
 3179 002d 26       		.uleb128 0x26
 3180 002e 00       		.byte	0
 3181 002f 49       		.uleb128 0x49
 3182 0030 13       		.uleb128 0x13
 3183 0031 00       		.byte	0
 3184 0032 00       		.byte	0
 3185 0033 05       		.uleb128 0x5
 3186 0034 13       		.uleb128 0x13
 3187 0035 01       		.byte	0x1
 3188 0036 03       		.uleb128 0x3
 3189 0037 08       		.uleb128 0x8
 3190 0038 0B       		.uleb128 0xb
 3191 0039 0B       		.uleb128 0xb
 3192 003a 3A       		.uleb128 0x3a
 3193 003b 0B       		.uleb128 0xb
 3194 003c 3B       		.uleb128 0x3b
 3195 003d 0B       		.uleb128 0xb
 3196 003e 39       		.uleb128 0x39
 3197 003f 0B       		.uleb128 0xb
 3198 0040 01       		.uleb128 0x1
 3199 0041 13       		.uleb128 0x13
 3200 0042 00       		.byte	0
GAS LISTING C:\Users\PRESID~1\AppData\Local\Temp\ccCA8Smq.s 			page 91


 3201 0043 00       		.byte	0
 3202 0044 06       		.uleb128 0x6
 3203 0045 0D       		.uleb128 0xd
 3204 0046 00       		.byte	0
 3205 0047 03       		.uleb128 0x3
 3206 0048 08       		.uleb128 0x8
 3207 0049 3A       		.uleb128 0x3a
 3208 004a 0B       		.uleb128 0xb
 3209 004b 3B       		.uleb128 0x3b
 3210 004c 0B       		.uleb128 0xb
 3211 004d 39       		.uleb128 0x39
 3212 004e 0B       		.uleb128 0xb
 3213 004f 49       		.uleb128 0x49
 3214 0050 13       		.uleb128 0x13
 3215 0051 38       		.uleb128 0x38
 3216 0052 0B       		.uleb128 0xb
 3217 0053 00       		.byte	0
 3218 0054 00       		.byte	0
 3219 0055 07       		.uleb128 0x7
 3220 0056 0F       		.uleb128 0xf
 3221 0057 00       		.byte	0
 3222 0058 0B       		.uleb128 0xb
 3223 0059 0B       		.uleb128 0xb
 3224 005a 49       		.uleb128 0x49
 3225 005b 13       		.uleb128 0x13
 3226 005c 00       		.byte	0
 3227 005d 00       		.byte	0
 3228 005e 08       		.uleb128 0x8
 3229 005f 16       		.uleb128 0x16
 3230 0060 00       		.byte	0
 3231 0061 03       		.uleb128 0x3
 3232 0062 08       		.uleb128 0x8
 3233 0063 3A       		.uleb128 0x3a
 3234 0064 0B       		.uleb128 0xb
 3235 0065 3B       		.uleb128 0x3b
 3236 0066 0B       		.uleb128 0xb
 3237 0067 39       		.uleb128 0x39
 3238 0068 0B       		.uleb128 0xb
 3239 0069 49       		.uleb128 0x49
 3240 006a 13       		.uleb128 0x13
 3241 006b 00       		.byte	0
 3242 006c 00       		.byte	0
 3243 006d 09       		.uleb128 0x9
 3244 006e 01       		.uleb128 0x1
 3245 006f 01       		.byte	0x1
 3246 0070 49       		.uleb128 0x49
 3247 0071 13       		.uleb128 0x13
 3248 0072 01       		.uleb128 0x1
 3249 0073 13       		.uleb128 0x13
 3250 0074 00       		.byte	0
 3251 0075 00       		.byte	0
 3252 0076 0A       		.uleb128 0xa
 3253 0077 21       		.uleb128 0x21
 3254 0078 00       		.byte	0
 3255 0079 00       		.byte	0
 3256 007a 00       		.byte	0
 3257 007b 0B       		.uleb128 0xb
GAS LISTING C:\Users\PRESID~1\AppData\Local\Temp\ccCA8Smq.s 			page 92


 3258 007c 34       		.uleb128 0x34
 3259 007d 00       		.byte	0
 3260 007e 03       		.uleb128 0x3
 3261 007f 08       		.uleb128 0x8
 3262 0080 3A       		.uleb128 0x3a
 3263 0081 0B       		.uleb128 0xb
 3264 0082 3B       		.uleb128 0x3b
 3265 0083 0B       		.uleb128 0xb
 3266 0084 39       		.uleb128 0x39
 3267 0085 0B       		.uleb128 0xb
 3268 0086 49       		.uleb128 0x49
 3269 0087 13       		.uleb128 0x13
 3270 0088 3F       		.uleb128 0x3f
 3271 0089 19       		.uleb128 0x19
 3272 008a 3C       		.uleb128 0x3c
 3273 008b 19       		.uleb128 0x19
 3274 008c 00       		.byte	0
 3275 008d 00       		.byte	0
 3276 008e 0C       		.uleb128 0xc
 3277 008f 34       		.uleb128 0x34
 3278 0090 00       		.byte	0
 3279 0091 03       		.uleb128 0x3
 3280 0092 08       		.uleb128 0x8
 3281 0093 3A       		.uleb128 0x3a
 3282 0094 0B       		.uleb128 0xb
 3283 0095 3B       		.uleb128 0x3b
 3284 0096 05       		.uleb128 0x5
 3285 0097 39       		.uleb128 0x39
 3286 0098 0B       		.uleb128 0xb
 3287 0099 49       		.uleb128 0x49
 3288 009a 13       		.uleb128 0x13
 3289 009b 3F       		.uleb128 0x3f
 3290 009c 19       		.uleb128 0x19
 3291 009d 3C       		.uleb128 0x3c
 3292 009e 19       		.uleb128 0x19
 3293 009f 00       		.byte	0
 3294 00a0 00       		.byte	0
 3295 00a1 0D       		.uleb128 0xd
 3296 00a2 21       		.uleb128 0x21
 3297 00a3 00       		.byte	0
 3298 00a4 49       		.uleb128 0x49
 3299 00a5 13       		.uleb128 0x13
 3300 00a6 2F       		.uleb128 0x2f
 3301 00a7 0B       		.uleb128 0xb
 3302 00a8 00       		.byte	0
 3303 00a9 00       		.byte	0
 3304 00aa 0E       		.uleb128 0xe
 3305 00ab 34       		.uleb128 0x34
 3306 00ac 00       		.byte	0
 3307 00ad 03       		.uleb128 0x3
 3308 00ae 08       		.uleb128 0x8
 3309 00af 3A       		.uleb128 0x3a
 3310 00b0 0B       		.uleb128 0xb
 3311 00b1 3B       		.uleb128 0x3b
 3312 00b2 0B       		.uleb128 0xb
 3313 00b3 39       		.uleb128 0x39
 3314 00b4 0B       		.uleb128 0xb
GAS LISTING C:\Users\PRESID~1\AppData\Local\Temp\ccCA8Smq.s 			page 93


 3315 00b5 49       		.uleb128 0x49
 3316 00b6 13       		.uleb128 0x13
 3317 00b7 02       		.uleb128 0x2
 3318 00b8 18       		.uleb128 0x18
 3319 00b9 00       		.byte	0
 3320 00ba 00       		.byte	0
 3321 00bb 0F       		.uleb128 0xf
 3322 00bc 2E       		.uleb128 0x2e
 3323 00bd 01       		.byte	0x1
 3324 00be 3F       		.uleb128 0x3f
 3325 00bf 19       		.uleb128 0x19
 3326 00c0 03       		.uleb128 0x3
 3327 00c1 08       		.uleb128 0x8
 3328 00c2 3A       		.uleb128 0x3a
 3329 00c3 0B       		.uleb128 0xb
 3330 00c4 3B       		.uleb128 0x3b
 3331 00c5 0B       		.uleb128 0xb
 3332 00c6 39       		.uleb128 0x39
 3333 00c7 0B       		.uleb128 0xb
 3334 00c8 27       		.uleb128 0x27
 3335 00c9 19       		.uleb128 0x19
 3336 00ca 49       		.uleb128 0x49
 3337 00cb 13       		.uleb128 0x13
 3338 00cc 11       		.uleb128 0x11
 3339 00cd 01       		.uleb128 0x1
 3340 00ce 12       		.uleb128 0x12
 3341 00cf 06       		.uleb128 0x6
 3342 00d0 40       		.uleb128 0x40
 3343 00d1 18       		.uleb128 0x18
 3344 00d2 9642     		.uleb128 0x2116
 3345 00d4 19       		.uleb128 0x19
 3346 00d5 01       		.uleb128 0x1
 3347 00d6 13       		.uleb128 0x13
 3348 00d7 00       		.byte	0
 3349 00d8 00       		.byte	0
 3350 00d9 10       		.uleb128 0x10
 3351 00da 05       		.uleb128 0x5
 3352 00db 00       		.byte	0
 3353 00dc 03       		.uleb128 0x3
 3354 00dd 08       		.uleb128 0x8
 3355 00de 3A       		.uleb128 0x3a
 3356 00df 0B       		.uleb128 0xb
 3357 00e0 3B       		.uleb128 0x3b
 3358 00e1 0B       		.uleb128 0xb
 3359 00e2 39       		.uleb128 0x39
 3360 00e3 0B       		.uleb128 0xb
 3361 00e4 49       		.uleb128 0x49
 3362 00e5 13       		.uleb128 0x13
 3363 00e6 02       		.uleb128 0x2
 3364 00e7 18       		.uleb128 0x18
 3365 00e8 00       		.byte	0
 3366 00e9 00       		.byte	0
 3367 00ea 11       		.uleb128 0x11
 3368 00eb 0B       		.uleb128 0xb
 3369 00ec 01       		.byte	0x1
 3370 00ed 11       		.uleb128 0x11
 3371 00ee 01       		.uleb128 0x1
GAS LISTING C:\Users\PRESID~1\AppData\Local\Temp\ccCA8Smq.s 			page 94


 3372 00ef 12       		.uleb128 0x12
 3373 00f0 06       		.uleb128 0x6
 3374 00f1 01       		.uleb128 0x1
 3375 00f2 13       		.uleb128 0x13
 3376 00f3 00       		.byte	0
 3377 00f4 00       		.byte	0
 3378 00f5 12       		.uleb128 0x12
 3379 00f6 34       		.uleb128 0x34
 3380 00f7 00       		.byte	0
 3381 00f8 03       		.uleb128 0x3
 3382 00f9 0E       		.uleb128 0xe
 3383 00fa 3A       		.uleb128 0x3a
 3384 00fb 0B       		.uleb128 0xb
 3385 00fc 3B       		.uleb128 0x3b
 3386 00fd 0B       		.uleb128 0xb
 3387 00fe 39       		.uleb128 0x39
 3388 00ff 0B       		.uleb128 0xb
 3389 0100 49       		.uleb128 0x49
 3390 0101 13       		.uleb128 0x13
 3391 0102 02       		.uleb128 0x2
 3392 0103 18       		.uleb128 0x18
 3393 0104 00       		.byte	0
 3394 0105 00       		.byte	0
 3395 0106 13       		.uleb128 0x13
 3396 0107 0B       		.uleb128 0xb
 3397 0108 01       		.byte	0x1
 3398 0109 11       		.uleb128 0x11
 3399 010a 01       		.uleb128 0x1
 3400 010b 12       		.uleb128 0x12
 3401 010c 06       		.uleb128 0x6
 3402 010d 00       		.byte	0
 3403 010e 00       		.byte	0
 3404 010f 14       		.uleb128 0x14
 3405 0110 2E       		.uleb128 0x2e
 3406 0111 00       		.byte	0
 3407 0112 03       		.uleb128 0x3
 3408 0113 08       		.uleb128 0x8
 3409 0114 3A       		.uleb128 0x3a
 3410 0115 0B       		.uleb128 0xb
 3411 0116 3B       		.uleb128 0x3b
 3412 0117 0B       		.uleb128 0xb
 3413 0118 39       		.uleb128 0x39
 3414 0119 0B       		.uleb128 0xb
 3415 011a 11       		.uleb128 0x11
 3416 011b 01       		.uleb128 0x1
 3417 011c 12       		.uleb128 0x12
 3418 011d 06       		.uleb128 0x6
 3419 011e 40       		.uleb128 0x40
 3420 011f 18       		.uleb128 0x18
 3421 0120 9642     		.uleb128 0x2116
 3422 0122 19       		.uleb128 0x19
 3423 0123 00       		.byte	0
 3424 0124 00       		.byte	0
 3425 0125 15       		.uleb128 0x15
 3426 0126 2E       		.uleb128 0x2e
 3427 0127 01       		.byte	0x1
 3428 0128 03       		.uleb128 0x3
GAS LISTING C:\Users\PRESID~1\AppData\Local\Temp\ccCA8Smq.s 			page 95


 3429 0129 08       		.uleb128 0x8
 3430 012a 3A       		.uleb128 0x3a
 3431 012b 0B       		.uleb128 0xb
 3432 012c 3B       		.uleb128 0x3b
 3433 012d 0B       		.uleb128 0xb
 3434 012e 39       		.uleb128 0x39
 3435 012f 0B       		.uleb128 0xb
 3436 0130 27       		.uleb128 0x27
 3437 0131 19       		.uleb128 0x19
 3438 0132 49       		.uleb128 0x49
 3439 0133 13       		.uleb128 0x13
 3440 0134 11       		.uleb128 0x11
 3441 0135 01       		.uleb128 0x1
 3442 0136 12       		.uleb128 0x12
 3443 0137 06       		.uleb128 0x6
 3444 0138 40       		.uleb128 0x40
 3445 0139 18       		.uleb128 0x18
 3446 013a 9742     		.uleb128 0x2117
 3447 013c 19       		.uleb128 0x19
 3448 013d 01       		.uleb128 0x1
 3449 013e 13       		.uleb128 0x13
 3450 013f 00       		.byte	0
 3451 0140 00       		.byte	0
 3452 0141 16       		.uleb128 0x16
 3453 0142 2E       		.uleb128 0x2e
 3454 0143 01       		.byte	0x1
 3455 0144 03       		.uleb128 0x3
 3456 0145 08       		.uleb128 0x8
 3457 0146 3A       		.uleb128 0x3a
 3458 0147 0B       		.uleb128 0xb
 3459 0148 3B       		.uleb128 0x3b
 3460 0149 05       		.uleb128 0x5
 3461 014a 39       		.uleb128 0x39
 3462 014b 0B       		.uleb128 0xb
 3463 014c 27       		.uleb128 0x27
 3464 014d 19       		.uleb128 0x19
 3465 014e 49       		.uleb128 0x49
 3466 014f 13       		.uleb128 0x13
 3467 0150 11       		.uleb128 0x11
 3468 0151 01       		.uleb128 0x1
 3469 0152 12       		.uleb128 0x12
 3470 0153 06       		.uleb128 0x6
 3471 0154 40       		.uleb128 0x40
 3472 0155 18       		.uleb128 0x18
 3473 0156 9642     		.uleb128 0x2116
 3474 0158 19       		.uleb128 0x19
 3475 0159 00       		.byte	0
 3476 015a 00       		.byte	0
 3477 015b 17       		.uleb128 0x17
 3478 015c 05       		.uleb128 0x5
 3479 015d 00       		.byte	0
 3480 015e 03       		.uleb128 0x3
 3481 015f 08       		.uleb128 0x8
 3482 0160 3A       		.uleb128 0x3a
 3483 0161 0B       		.uleb128 0xb
 3484 0162 3B       		.uleb128 0x3b
 3485 0163 05       		.uleb128 0x5
GAS LISTING C:\Users\PRESID~1\AppData\Local\Temp\ccCA8Smq.s 			page 96


 3486 0164 39       		.uleb128 0x39
 3487 0165 0B       		.uleb128 0xb
 3488 0166 49       		.uleb128 0x49
 3489 0167 13       		.uleb128 0x13
 3490 0168 02       		.uleb128 0x2
 3491 0169 18       		.uleb128 0x18
 3492 016a 00       		.byte	0
 3493 016b 00       		.byte	0
 3494 016c 18       		.uleb128 0x18
 3495 016d 18       		.uleb128 0x18
 3496 016e 00       		.byte	0
 3497 016f 00       		.byte	0
 3498 0170 00       		.byte	0
 3499 0171 19       		.uleb128 0x19
 3500 0172 34       		.uleb128 0x34
 3501 0173 00       		.byte	0
 3502 0174 03       		.uleb128 0x3
 3503 0175 08       		.uleb128 0x8
 3504 0176 3A       		.uleb128 0x3a
 3505 0177 0B       		.uleb128 0xb
 3506 0178 3B       		.uleb128 0x3b
 3507 0179 05       		.uleb128 0x5
 3508 017a 39       		.uleb128 0x39
 3509 017b 0B       		.uleb128 0xb
 3510 017c 49       		.uleb128 0x49
 3511 017d 13       		.uleb128 0x13
 3512 017e 02       		.uleb128 0x2
 3513 017f 18       		.uleb128 0x18
 3514 0180 00       		.byte	0
 3515 0181 00       		.byte	0
 3516 0182 00       		.byte	0
 3517              		.section	.debug_aranges,"dr"
 3518 0000 1C000000 		.long	0x1c
 3519 0004 0200     		.word	0x2
 3520 0006 00000000 		.secrel32	Ldebug_info0
 3521 000a 04       		.byte	0x4
 3522 000b 00       		.byte	0
 3523 000c 0000     		.word	0
 3524 000e 0000     		.word	0
 3525 0010 00000000 		.long	Ltext0
 3526 0014 EC240000 		.long	Letext0-Ltext0
 3527 0018 00000000 		.long	0
 3528 001c 00000000 		.long	0
 3529              		.section	.debug_macro,"dr"
 3530              	Ldebug_macro0:
 3531 0000 0400     		.word	0x4
 3532 0002 02       		.byte	0x2
 3533 0003 00000000 		.secrel32	Ldebug_line0
 3534 0007 01       		.byte	0x1
 3535 0008 00       		.uleb128 0
 3536 0009 5F5F5354 		.ascii "__STDC__ 1\0"
 3536      44435F5F 
 3536      203100
 3537 0014 01       		.byte	0x1
 3538 0015 00       		.uleb128 0
 3539 0016 5F5F5354 		.ascii "__STDC_HOSTED__ 1\0"
 3539      44435F48 
GAS LISTING C:\Users\PRESID~1\AppData\Local\Temp\ccCA8Smq.s 			page 97


 3539      4F535445 
 3539      445F5F20 
 3539      3100
 3540 0028 01       		.byte	0x1
 3541 0029 00       		.uleb128 0
 3542 002a 5F5F474E 		.ascii "__GNUC__ 8\0"
 3542      55435F5F 
 3542      203800
 3543 0035 01       		.byte	0x1
 3544 0036 00       		.uleb128 0
 3545 0037 5F5F474E 		.ascii "__GNUC_MINOR__ 2\0"
 3545      55435F4D 
 3545      494E4F52 
 3545      5F5F2032 
 3545      00
 3546 0048 01       		.byte	0x1
 3547 0049 00       		.uleb128 0
 3548 004a 5F5F474E 		.ascii "__GNUC_PATCHLEVEL__ 0\0"
 3548      55435F50 
 3548      41544348 
 3548      4C455645 
 3548      4C5F5F20 
 3549 0060 01       		.byte	0x1
 3550 0061 00       		.uleb128 0
 3551 0062 5F5F5645 		.ascii "__VERSION__ \"8.2.0\"\0"
 3551      5253494F 
 3551      4E5F5F20 
 3551      22382E32 
 3551      2E302200 
 3552 0076 01       		.byte	0x1
 3553 0077 00       		.uleb128 0
 3554 0078 5F5F4154 		.ascii "__ATOMIC_RELAXED 0\0"
 3554      4F4D4943 
 3554      5F52454C 
 3554      41584544 
 3554      203000
 3555 008b 01       		.byte	0x1
 3556 008c 00       		.uleb128 0
 3557 008d 5F5F4154 		.ascii "__ATOMIC_SEQ_CST 5\0"
 3557      4F4D4943 
 3557      5F534551 
 3557      5F435354 
 3557      203500
 3558 00a0 01       		.byte	0x1
 3559 00a1 00       		.uleb128 0
 3560 00a2 5F5F4154 		.ascii "__ATOMIC_ACQUIRE 2\0"
 3560      4F4D4943 
 3560      5F414351 
 3560      55495245 
 3560      203200
 3561 00b5 01       		.byte	0x1
 3562 00b6 00       		.uleb128 0
 3563 00b7 5F5F4154 		.ascii "__ATOMIC_RELEASE 3\0"
 3563      4F4D4943 
 3563      5F52454C 
 3563      45415345 
 3563      203300
GAS LISTING C:\Users\PRESID~1\AppData\Local\Temp\ccCA8Smq.s 			page 98


 3564 00ca 01       		.byte	0x1
 3565 00cb 00       		.uleb128 0
 3566 00cc 5F5F4154 		.ascii "__ATOMIC_ACQ_REL 4\0"
 3566      4F4D4943 
 3566      5F414351 
 3566      5F52454C 
 3566      203400
 3567 00df 01       		.byte	0x1
 3568 00e0 00       		.uleb128 0
 3569 00e1 5F5F4154 		.ascii "__ATOMIC_CONSUME 1\0"
 3569      4F4D4943 
 3569      5F434F4E 
 3569      53554D45 
 3569      203100
 3570 00f4 01       		.byte	0x1
 3571 00f5 00       		.uleb128 0
 3572 00f6 5F5F4649 		.ascii "__FINITE_MATH_ONLY__ 0\0"
 3572      4E495445 
 3572      5F4D4154 
 3572      485F4F4E 
 3572      4C595F5F 
 3573 010d 01       		.byte	0x1
 3574 010e 00       		.uleb128 0
 3575 010f 5F5F5349 		.ascii "__SIZEOF_INT__ 4\0"
 3575      5A454F46 
 3575      5F494E54 
 3575      5F5F2034 
 3575      00
 3576 0120 01       		.byte	0x1
 3577 0121 00       		.uleb128 0
 3578 0122 5F5F5349 		.ascii "__SIZEOF_LONG__ 4\0"
 3578      5A454F46 
 3578      5F4C4F4E 
 3578      475F5F20 
 3578      3400
 3579 0134 01       		.byte	0x1
 3580 0135 00       		.uleb128 0
 3581 0136 5F5F5349 		.ascii "__SIZEOF_LONG_LONG__ 8\0"
 3581      5A454F46 
 3581      5F4C4F4E 
 3581      475F4C4F 
 3581      4E475F5F 
 3582 014d 01       		.byte	0x1
 3583 014e 00       		.uleb128 0
 3584 014f 5F5F5349 		.ascii "__SIZEOF_SHORT__ 2\0"
 3584      5A454F46 
 3584      5F53484F 
 3584      52545F5F 
 3584      203200
 3585 0162 01       		.byte	0x1
 3586 0163 00       		.uleb128 0
 3587 0164 5F5F5349 		.ascii "__SIZEOF_FLOAT__ 4\0"
 3587      5A454F46 
 3587      5F464C4F 
 3587      41545F5F 
 3587      203400
 3588 0177 01       		.byte	0x1
GAS LISTING C:\Users\PRESID~1\AppData\Local\Temp\ccCA8Smq.s 			page 99


 3589 0178 00       		.uleb128 0
 3590 0179 5F5F5349 		.ascii "__SIZEOF_DOUBLE__ 8\0"
 3590      5A454F46 
 3590      5F444F55 
 3590      424C455F 
 3590      5F203800 
 3591 018d 01       		.byte	0x1
 3592 018e 00       		.uleb128 0
 3593 018f 5F5F5349 		.ascii "__SIZEOF_LONG_DOUBLE__ 12\0"
 3593      5A454F46 
 3593      5F4C4F4E 
 3593      475F444F 
 3593      55424C45 
 3594 01a9 01       		.byte	0x1
 3595 01aa 00       		.uleb128 0
 3596 01ab 5F5F5349 		.ascii "__SIZEOF_SIZE_T__ 4\0"
 3596      5A454F46 
 3596      5F53495A 
 3596      455F545F 
 3596      5F203400 
 3597 01bf 01       		.byte	0x1
 3598 01c0 00       		.uleb128 0
 3599 01c1 5F5F4348 		.ascii "__CHAR_BIT__ 8\0"
 3599      41525F42 
 3599      49545F5F 
 3599      203800
 3600 01d0 01       		.byte	0x1
 3601 01d1 00       		.uleb128 0
 3602 01d2 5F5F4249 		.ascii "__BIGGEST_ALIGNMENT__ 16\0"
 3602      47474553 
 3602      545F414C 
 3602      49474E4D 
 3602      454E545F 
 3603 01eb 01       		.byte	0x1
 3604 01ec 00       		.uleb128 0
 3605 01ed 5F5F4F52 		.ascii "__ORDER_LITTLE_ENDIAN__ 1234\0"
 3605      4445525F 
 3605      4C495454 
 3605      4C455F45 
 3605      4E444941 
 3606 020a 01       		.byte	0x1
 3607 020b 00       		.uleb128 0
 3608 020c 5F5F4F52 		.ascii "__ORDER_BIG_ENDIAN__ 4321\0"
 3608      4445525F 
 3608      4249475F 
 3608      454E4449 
 3608      414E5F5F 
 3609 0226 01       		.byte	0x1
 3610 0227 00       		.uleb128 0
 3611 0228 5F5F4F52 		.ascii "__ORDER_PDP_ENDIAN__ 3412\0"
 3611      4445525F 
 3611      5044505F 
 3611      454E4449 
 3611      414E5F5F 
 3612 0242 01       		.byte	0x1
 3613 0243 00       		.uleb128 0
 3614 0244 5F5F4259 		.ascii "__BYTE_ORDER__ __ORDER_LITTLE_ENDIAN__\0"
GAS LISTING C:\Users\PRESID~1\AppData\Local\Temp\ccCA8Smq.s 			page 100


 3614      54455F4F 
 3614      52444552 
 3614      5F5F205F 
 3614      5F4F5244 
 3615 026b 01       		.byte	0x1
 3616 026c 00       		.uleb128 0
 3617 026d 5F5F464C 		.ascii "__FLOAT_WORD_ORDER__ __ORDER_LITTLE_ENDIAN__\0"
 3617      4F41545F 
 3617      574F5244 
 3617      5F4F5244 
 3617      45525F5F 
 3618 029a 01       		.byte	0x1
 3619 029b 00       		.uleb128 0
 3620 029c 5F5F5349 		.ascii "__SIZEOF_POINTER__ 4\0"
 3620      5A454F46 
 3620      5F504F49 
 3620      4E544552 
 3620      5F5F2034 
 3621 02b1 01       		.byte	0x1
 3622 02b2 00       		.uleb128 0
 3623 02b3 5F5F5349 		.ascii "__SIZE_TYPE__ unsigned int\0"
 3623      5A455F54 
 3623      5950455F 
 3623      5F20756E 
 3623      7369676E 
 3624 02ce 01       		.byte	0x1
 3625 02cf 00       		.uleb128 0
 3626 02d0 5F5F5054 		.ascii "__PTRDIFF_TYPE__ int\0"
 3626      52444946 
 3626      465F5459 
 3626      50455F5F 
 3626      20696E74 
 3627 02e5 01       		.byte	0x1
 3628 02e6 00       		.uleb128 0
 3629 02e7 5F5F5743 		.ascii "__WCHAR_TYPE__ short unsigned int\0"
 3629      4841525F 
 3629      54595045 
 3629      5F5F2073 
 3629      686F7274 
 3630 0309 01       		.byte	0x1
 3631 030a 00       		.uleb128 0
 3632 030b 5F5F5749 		.ascii "__WINT_TYPE__ short unsigned int\0"
 3632      4E545F54 
 3632      5950455F 
 3632      5F207368 
 3632      6F727420 
 3633 032c 01       		.byte	0x1
 3634 032d 00       		.uleb128 0
 3635 032e 5F5F494E 		.ascii "__INTMAX_TYPE__ long long int\0"
 3635      544D4158 
 3635      5F545950 
 3635      455F5F20 
 3635      6C6F6E67 
 3636 034c 01       		.byte	0x1
 3637 034d 00       		.uleb128 0
 3638 034e 5F5F5549 		.ascii "__UINTMAX_TYPE__ long long unsigned int\0"
 3638      4E544D41 
GAS LISTING C:\Users\PRESID~1\AppData\Local\Temp\ccCA8Smq.s 			page 101


 3638      585F5459 
 3638      50455F5F 
 3638      206C6F6E 
 3639 0376 01       		.byte	0x1
 3640 0377 00       		.uleb128 0
 3641 0378 5F5F4348 		.ascii "__CHAR16_TYPE__ short unsigned int\0"
 3641      41523136 
 3641      5F545950 
 3641      455F5F20 
 3641      73686F72 
 3642 039b 01       		.byte	0x1
 3643 039c 00       		.uleb128 0
 3644 039d 5F5F4348 		.ascii "__CHAR32_TYPE__ unsigned int\0"
 3644      41523332 
 3644      5F545950 
 3644      455F5F20 
 3644      756E7369 
 3645 03ba 01       		.byte	0x1
 3646 03bb 00       		.uleb128 0
 3647 03bc 5F5F5349 		.ascii "__SIG_ATOMIC_TYPE__ int\0"
 3647      475F4154 
 3647      4F4D4943 
 3647      5F545950 
 3647      455F5F20 
 3648 03d4 01       		.byte	0x1
 3649 03d5 00       		.uleb128 0
 3650 03d6 5F5F494E 		.ascii "__INT8_TYPE__ signed char\0"
 3650      54385F54 
 3650      5950455F 
 3650      5F207369 
 3650      676E6564 
 3651 03f0 01       		.byte	0x1
 3652 03f1 00       		.uleb128 0
 3653 03f2 5F5F494E 		.ascii "__INT16_TYPE__ short int\0"
 3653      5431365F 
 3653      54595045 
 3653      5F5F2073 
 3653      686F7274 
 3654 040b 01       		.byte	0x1
 3655 040c 00       		.uleb128 0
 3656 040d 5F5F494E 		.ascii "__INT32_TYPE__ int\0"
 3656      5433325F 
 3656      54595045 
 3656      5F5F2069 
 3656      6E7400
 3657 0420 01       		.byte	0x1
 3658 0421 00       		.uleb128 0
 3659 0422 5F5F494E 		.ascii "__INT64_TYPE__ long long int\0"
 3659      5436345F 
 3659      54595045 
 3659      5F5F206C 
 3659      6F6E6720 
 3660 043f 01       		.byte	0x1
 3661 0440 00       		.uleb128 0
 3662 0441 5F5F5549 		.ascii "__UINT8_TYPE__ unsigned char\0"
 3662      4E54385F 
 3662      54595045 
GAS LISTING C:\Users\PRESID~1\AppData\Local\Temp\ccCA8Smq.s 			page 102


 3662      5F5F2075 
 3662      6E736967 
 3663 045e 01       		.byte	0x1
 3664 045f 00       		.uleb128 0
 3665 0460 5F5F5549 		.ascii "__UINT16_TYPE__ short unsigned int\0"
 3665      4E543136 
 3665      5F545950 
 3665      455F5F20 
 3665      73686F72 
 3666 0483 01       		.byte	0x1
 3667 0484 00       		.uleb128 0
 3668 0485 5F5F5549 		.ascii "__UINT32_TYPE__ unsigned int\0"
 3668      4E543332 
 3668      5F545950 
 3668      455F5F20 
 3668      756E7369 
 3669 04a2 01       		.byte	0x1
 3670 04a3 00       		.uleb128 0
 3671 04a4 5F5F5549 		.ascii "__UINT64_TYPE__ long long unsigned int\0"
 3671      4E543634 
 3671      5F545950 
 3671      455F5F20 
 3671      6C6F6E67 
 3672 04cb 01       		.byte	0x1
 3673 04cc 00       		.uleb128 0
 3674 04cd 5F5F494E 		.ascii "__INT_LEAST8_TYPE__ signed char\0"
 3674      545F4C45 
 3674      41535438 
 3674      5F545950 
 3674      455F5F20 
 3675 04ed 01       		.byte	0x1
 3676 04ee 00       		.uleb128 0
 3677 04ef 5F5F494E 		.ascii "__INT_LEAST16_TYPE__ short int\0"
 3677      545F4C45 
 3677      41535431 
 3677      365F5459 
 3677      50455F5F 
 3678 050e 01       		.byte	0x1
 3679 050f 00       		.uleb128 0
 3680 0510 5F5F494E 		.ascii "__INT_LEAST32_TYPE__ int\0"
 3680      545F4C45 
 3680      41535433 
 3680      325F5459 
 3680      50455F5F 
 3681 0529 01       		.byte	0x1
 3682 052a 00       		.uleb128 0
 3683 052b 5F5F494E 		.ascii "__INT_LEAST64_TYPE__ long long int\0"
 3683      545F4C45 
 3683      41535436 
 3683      345F5459 
 3683      50455F5F 
 3684 054e 01       		.byte	0x1
 3685 054f 00       		.uleb128 0
 3686 0550 5F5F5549 		.ascii "__UINT_LEAST8_TYPE__ unsigned char\0"
 3686      4E545F4C 
 3686      45415354 
 3686      385F5459 
GAS LISTING C:\Users\PRESID~1\AppData\Local\Temp\ccCA8Smq.s 			page 103


 3686      50455F5F 
 3687 0573 01       		.byte	0x1
 3688 0574 00       		.uleb128 0
 3689 0575 5F5F5549 		.ascii "__UINT_LEAST16_TYPE__ short unsigned int\0"
 3689      4E545F4C 
 3689      45415354 
 3689      31365F54 
 3689      5950455F 
 3690 059e 01       		.byte	0x1
 3691 059f 00       		.uleb128 0
 3692 05a0 5F5F5549 		.ascii "__UINT_LEAST32_TYPE__ unsigned int\0"
 3692      4E545F4C 
 3692      45415354 
 3692      33325F54 
 3692      5950455F 
 3693 05c3 01       		.byte	0x1
 3694 05c4 00       		.uleb128 0
 3695 05c5 5F5F5549 		.ascii "__UINT_LEAST64_TYPE__ long long unsigned int\0"
 3695      4E545F4C 
 3695      45415354 
 3695      36345F54 
 3695      5950455F 
 3696 05f2 01       		.byte	0x1
 3697 05f3 00       		.uleb128 0
 3698 05f4 5F5F494E 		.ascii "__INT_FAST8_TYPE__ signed char\0"
 3698      545F4641 
 3698      5354385F 
 3698      54595045 
 3698      5F5F2073 
 3699 0613 01       		.byte	0x1
 3700 0614 00       		.uleb128 0
 3701 0615 5F5F494E 		.ascii "__INT_FAST16_TYPE__ short int\0"
 3701      545F4641 
 3701      53543136 
 3701      5F545950 
 3701      455F5F20 
 3702 0633 01       		.byte	0x1
 3703 0634 00       		.uleb128 0
 3704 0635 5F5F494E 		.ascii "__INT_FAST32_TYPE__ int\0"
 3704      545F4641 
 3704      53543332 
 3704      5F545950 
 3704      455F5F20 
 3705 064d 01       		.byte	0x1
 3706 064e 00       		.uleb128 0
 3707 064f 5F5F494E 		.ascii "__INT_FAST64_TYPE__ long long int\0"
 3707      545F4641 
 3707      53543634 
 3707      5F545950 
 3707      455F5F20 
 3708 0671 01       		.byte	0x1
 3709 0672 00       		.uleb128 0
 3710 0673 5F5F5549 		.ascii "__UINT_FAST8_TYPE__ unsigned char\0"
 3710      4E545F46 
 3710      41535438 
 3710      5F545950 
 3710      455F5F20 
GAS LISTING C:\Users\PRESID~1\AppData\Local\Temp\ccCA8Smq.s 			page 104


 3711 0695 01       		.byte	0x1
 3712 0696 00       		.uleb128 0
 3713 0697 5F5F5549 		.ascii "__UINT_FAST16_TYPE__ short unsigned int\0"
 3713      4E545F46 
 3713      41535431 
 3713      365F5459 
 3713      50455F5F 
 3714 06bf 01       		.byte	0x1
 3715 06c0 00       		.uleb128 0
 3716 06c1 5F5F5549 		.ascii "__UINT_FAST32_TYPE__ unsigned int\0"
 3716      4E545F46 
 3716      41535433 
 3716      325F5459 
 3716      50455F5F 
 3717 06e3 01       		.byte	0x1
 3718 06e4 00       		.uleb128 0
 3719 06e5 5F5F5549 		.ascii "__UINT_FAST64_TYPE__ long long unsigned int\0"
 3719      4E545F46 
 3719      41535436 
 3719      345F5459 
 3719      50455F5F 
 3720 0711 01       		.byte	0x1
 3721 0712 00       		.uleb128 0
 3722 0713 5F5F494E 		.ascii "__INTPTR_TYPE__ int\0"
 3722      54505452 
 3722      5F545950 
 3722      455F5F20 
 3722      696E7400 
 3723 0727 01       		.byte	0x1
 3724 0728 00       		.uleb128 0
 3725 0729 5F5F5549 		.ascii "__UINTPTR_TYPE__ unsigned int\0"
 3725      4E545054 
 3725      525F5459 
 3725      50455F5F 
 3725      20756E73 
 3726 0747 01       		.byte	0x1
 3727 0748 00       		.uleb128 0
 3728 0749 5F5F6861 		.ascii "__has_include(STR) __has_include__(STR)\0"
 3728      735F696E 
 3728      636C7564 
 3728      65285354 
 3728      5229205F 
 3729 0771 01       		.byte	0x1
 3730 0772 00       		.uleb128 0
 3731 0773 5F5F6861 		.ascii "__has_include_next(STR) __has_include_next__(STR)\0"
 3731      735F696E 
 3731      636C7564 
 3731      655F6E65 
 3731      78742853 
 3732 07a5 01       		.byte	0x1
 3733 07a6 00       		.uleb128 0
 3734 07a7 5F5F4758 		.ascii "__GXX_ABI_VERSION 1013\0"
 3734      585F4142 
 3734      495F5645 
 3734      5253494F 
 3734      4E203130 
 3735 07be 01       		.byte	0x1
GAS LISTING C:\Users\PRESID~1\AppData\Local\Temp\ccCA8Smq.s 			page 105


 3736 07bf 00       		.uleb128 0
 3737 07c0 5F5F5343 		.ascii "__SCHAR_MAX__ 0x7f\0"
 3737      4841525F 
 3737      4D41585F 
 3737      5F203078 
 3737      376600
 3738 07d3 01       		.byte	0x1
 3739 07d4 00       		.uleb128 0
 3740 07d5 5F5F5348 		.ascii "__SHRT_MAX__ 0x7fff\0"
 3740      52545F4D 
 3740      41585F5F 
 3740      20307837 
 3740      66666600 
 3741 07e9 01       		.byte	0x1
 3742 07ea 00       		.uleb128 0
 3743 07eb 5F5F494E 		.ascii "__INT_MAX__ 0x7fffffff\0"
 3743      545F4D41 
 3743      585F5F20 
 3743      30783766 
 3743      66666666 
 3744 0802 01       		.byte	0x1
 3745 0803 00       		.uleb128 0
 3746 0804 5F5F4C4F 		.ascii "__LONG_MAX__ 0x7fffffffL\0"
 3746      4E475F4D 
 3746      41585F5F 
 3746      20307837 
 3746      66666666 
 3747 081d 01       		.byte	0x1
 3748 081e 00       		.uleb128 0
 3749 081f 5F5F4C4F 		.ascii "__LONG_LONG_MAX__ 0x7fffffffffffffffLL\0"
 3749      4E475F4C 
 3749      4F4E475F 
 3749      4D41585F 
 3749      5F203078 
 3750 0846 01       		.byte	0x1
 3751 0847 00       		.uleb128 0
 3752 0848 5F5F5743 		.ascii "__WCHAR_MAX__ 0xffff\0"
 3752      4841525F 
 3752      4D41585F 
 3752      5F203078 
 3752      66666666 
 3753 085d 01       		.byte	0x1
 3754 085e 00       		.uleb128 0
 3755 085f 5F5F5743 		.ascii "__WCHAR_MIN__ 0\0"
 3755      4841525F 
 3755      4D494E5F 
 3755      5F203000 
 3756 086f 01       		.byte	0x1
 3757 0870 00       		.uleb128 0
 3758 0871 5F5F5749 		.ascii "__WINT_MAX__ 0xffff\0"
 3758      4E545F4D 
 3758      41585F5F 
 3758      20307866 
 3758      66666600 
 3759 0885 01       		.byte	0x1
 3760 0886 00       		.uleb128 0
 3761 0887 5F5F5749 		.ascii "__WINT_MIN__ 0\0"
GAS LISTING C:\Users\PRESID~1\AppData\Local\Temp\ccCA8Smq.s 			page 106


 3761      4E545F4D 
 3761      494E5F5F 
 3761      203000
 3762 0896 01       		.byte	0x1
 3763 0897 00       		.uleb128 0
 3764 0898 5F5F5054 		.ascii "__PTRDIFF_MAX__ 0x7fffffff\0"
 3764      52444946 
 3764      465F4D41 
 3764      585F5F20 
 3764      30783766 
 3765 08b3 01       		.byte	0x1
 3766 08b4 00       		.uleb128 0
 3767 08b5 5F5F5349 		.ascii "__SIZE_MAX__ 0xffffffffU\0"
 3767      5A455F4D 
 3767      41585F5F 
 3767      20307866 
 3767      66666666 
 3768 08ce 01       		.byte	0x1
 3769 08cf 00       		.uleb128 0
 3770 08d0 5F5F5343 		.ascii "__SCHAR_WIDTH__ 8\0"
 3770      4841525F 
 3770      57494454 
 3770      485F5F20 
 3770      3800
 3771 08e2 01       		.byte	0x1
 3772 08e3 00       		.uleb128 0
 3773 08e4 5F5F5348 		.ascii "__SHRT_WIDTH__ 16\0"
 3773      52545F57 
 3773      49445448 
 3773      5F5F2031 
 3773      3600
 3774 08f6 01       		.byte	0x1
 3775 08f7 00       		.uleb128 0
 3776 08f8 5F5F494E 		.ascii "__INT_WIDTH__ 32\0"
 3776      545F5749 
 3776      4454485F 
 3776      5F203332 
 3776      00
 3777 0909 01       		.byte	0x1
 3778 090a 00       		.uleb128 0
 3779 090b 5F5F4C4F 		.ascii "__LONG_WIDTH__ 32\0"
 3779      4E475F57 
 3779      49445448 
 3779      5F5F2033 
 3779      3200
 3780 091d 01       		.byte	0x1
 3781 091e 00       		.uleb128 0
 3782 091f 5F5F4C4F 		.ascii "__LONG_LONG_WIDTH__ 64\0"
 3782      4E475F4C 
 3782      4F4E475F 
 3782      57494454 
 3782      485F5F20 
 3783 0936 01       		.byte	0x1
 3784 0937 00       		.uleb128 0
 3785 0938 5F5F5743 		.ascii "__WCHAR_WIDTH__ 16\0"
 3785      4841525F 
 3785      57494454 
GAS LISTING C:\Users\PRESID~1\AppData\Local\Temp\ccCA8Smq.s 			page 107


 3785      485F5F20 
 3785      313600
 3786 094b 01       		.byte	0x1
 3787 094c 00       		.uleb128 0
 3788 094d 5F5F5749 		.ascii "__WINT_WIDTH__ 16\0"
 3788      4E545F57 
 3788      49445448 
 3788      5F5F2031 
 3788      3600
 3789 095f 01       		.byte	0x1
 3790 0960 00       		.uleb128 0
 3791 0961 5F5F5054 		.ascii "__PTRDIFF_WIDTH__ 32\0"
 3791      52444946 
 3791      465F5749 
 3791      4454485F 
 3791      5F203332 
 3792 0976 01       		.byte	0x1
 3793 0977 00       		.uleb128 0
 3794 0978 5F5F5349 		.ascii "__SIZE_WIDTH__ 32\0"
 3794      5A455F57 
 3794      49445448 
 3794      5F5F2033 
 3794      3200
 3795 098a 01       		.byte	0x1
 3796 098b 00       		.uleb128 0
 3797 098c 5F5F494E 		.ascii "__INTMAX_MAX__ 0x7fffffffffffffffLL\0"
 3797      544D4158 
 3797      5F4D4158 
 3797      5F5F2030 
 3797      78376666 
 3798 09b0 01       		.byte	0x1
 3799 09b1 00       		.uleb128 0
 3800 09b2 5F5F494E 		.ascii "__INTMAX_C(c) c ## LL\0"
 3800      544D4158 
 3800      5F432863 
 3800      29206320 
 3800      2323204C 
 3801 09c8 01       		.byte	0x1
 3802 09c9 00       		.uleb128 0
 3803 09ca 5F5F5549 		.ascii "__UINTMAX_MAX__ 0xffffffffffffffffULL\0"
 3803      4E544D41 
 3803      585F4D41 
 3803      585F5F20 
 3803      30786666 
 3804 09f0 01       		.byte	0x1
 3805 09f1 00       		.uleb128 0
 3806 09f2 5F5F5549 		.ascii "__UINTMAX_C(c) c ## ULL\0"
 3806      4E544D41 
 3806      585F4328 
 3806      63292063 
 3806      20232320 
 3807 0a0a 01       		.byte	0x1
 3808 0a0b 00       		.uleb128 0
 3809 0a0c 5F5F494E 		.ascii "__INTMAX_WIDTH__ 64\0"
 3809      544D4158 
 3809      5F574944 
 3809      54485F5F 
GAS LISTING C:\Users\PRESID~1\AppData\Local\Temp\ccCA8Smq.s 			page 108


 3809      20363400 
 3810 0a20 01       		.byte	0x1
 3811 0a21 00       		.uleb128 0
 3812 0a22 5F5F5349 		.ascii "__SIG_ATOMIC_MAX__ 0x7fffffff\0"
 3812      475F4154 
 3812      4F4D4943 
 3812      5F4D4158 
 3812      5F5F2030 
 3813 0a40 01       		.byte	0x1
 3814 0a41 00       		.uleb128 0
 3815 0a42 5F5F5349 		.ascii "__SIG_ATOMIC_MIN__ (-__SIG_ATOMIC_MAX__ - 1)\0"
 3815      475F4154 
 3815      4F4D4943 
 3815      5F4D494E 
 3815      5F5F2028 
 3816 0a6f 01       		.byte	0x1
 3817 0a70 00       		.uleb128 0
 3818 0a71 5F5F5349 		.ascii "__SIG_ATOMIC_WIDTH__ 32\0"
 3818      475F4154 
 3818      4F4D4943 
 3818      5F574944 
 3818      54485F5F 
 3819 0a89 01       		.byte	0x1
 3820 0a8a 00       		.uleb128 0
 3821 0a8b 5F5F494E 		.ascii "__INT8_MAX__ 0x7f\0"
 3821      54385F4D 
 3821      41585F5F 
 3821      20307837 
 3821      6600
 3822 0a9d 01       		.byte	0x1
 3823 0a9e 00       		.uleb128 0
 3824 0a9f 5F5F494E 		.ascii "__INT16_MAX__ 0x7fff\0"
 3824      5431365F 
 3824      4D41585F 
 3824      5F203078 
 3824      37666666 
 3825 0ab4 01       		.byte	0x1
 3826 0ab5 00       		.uleb128 0
 3827 0ab6 5F5F494E 		.ascii "__INT32_MAX__ 0x7fffffff\0"
 3827      5433325F 
 3827      4D41585F 
 3827      5F203078 
 3827      37666666 
 3828 0acf 01       		.byte	0x1
 3829 0ad0 00       		.uleb128 0
 3830 0ad1 5F5F494E 		.ascii "__INT64_MAX__ 0x7fffffffffffffffLL\0"
 3830      5436345F 
 3830      4D41585F 
 3830      5F203078 
 3830      37666666 
 3831 0af4 01       		.byte	0x1
 3832 0af5 00       		.uleb128 0
 3833 0af6 5F5F5549 		.ascii "__UINT8_MAX__ 0xff\0"
 3833      4E54385F 
 3833      4D41585F 
 3833      5F203078 
 3833      666600
GAS LISTING C:\Users\PRESID~1\AppData\Local\Temp\ccCA8Smq.s 			page 109


 3834 0b09 01       		.byte	0x1
 3835 0b0a 00       		.uleb128 0
 3836 0b0b 5F5F5549 		.ascii "__UINT16_MAX__ 0xffff\0"
 3836      4E543136 
 3836      5F4D4158 
 3836      5F5F2030 
 3836      78666666 
 3837 0b21 01       		.byte	0x1
 3838 0b22 00       		.uleb128 0
 3839 0b23 5F5F5549 		.ascii "__UINT32_MAX__ 0xffffffffU\0"
 3839      4E543332 
 3839      5F4D4158 
 3839      5F5F2030 
 3839      78666666 
 3840 0b3e 01       		.byte	0x1
 3841 0b3f 00       		.uleb128 0
 3842 0b40 5F5F5549 		.ascii "__UINT64_MAX__ 0xffffffffffffffffULL\0"
 3842      4E543634 
 3842      5F4D4158 
 3842      5F5F2030 
 3842      78666666 
 3843 0b65 01       		.byte	0x1
 3844 0b66 00       		.uleb128 0
 3845 0b67 5F5F494E 		.ascii "__INT_LEAST8_MAX__ 0x7f\0"
 3845      545F4C45 
 3845      41535438 
 3845      5F4D4158 
 3845      5F5F2030 
 3846 0b7f 01       		.byte	0x1
 3847 0b80 00       		.uleb128 0
 3848 0b81 5F5F494E 		.ascii "__INT8_C(c) c\0"
 3848      54385F43 
 3848      28632920 
 3848      6300
 3849 0b8f 01       		.byte	0x1
 3850 0b90 00       		.uleb128 0
 3851 0b91 5F5F494E 		.ascii "__INT_LEAST8_WIDTH__ 8\0"
 3851      545F4C45 
 3851      41535438 
 3851      5F574944 
 3851      54485F5F 
 3852 0ba8 01       		.byte	0x1
 3853 0ba9 00       		.uleb128 0
 3854 0baa 5F5F494E 		.ascii "__INT_LEAST16_MAX__ 0x7fff\0"
 3854      545F4C45 
 3854      41535431 
 3854      365F4D41 
 3854      585F5F20 
 3855 0bc5 01       		.byte	0x1
 3856 0bc6 00       		.uleb128 0
 3857 0bc7 5F5F494E 		.ascii "__INT16_C(c) c\0"
 3857      5431365F 
 3857      43286329 
 3857      206300
 3858 0bd6 01       		.byte	0x1
 3859 0bd7 00       		.uleb128 0
 3860 0bd8 5F5F494E 		.ascii "__INT_LEAST16_WIDTH__ 16\0"
GAS LISTING C:\Users\PRESID~1\AppData\Local\Temp\ccCA8Smq.s 			page 110


 3860      545F4C45 
 3860      41535431 
 3860      365F5749 
 3860      4454485F 
 3861 0bf1 01       		.byte	0x1
 3862 0bf2 00       		.uleb128 0
 3863 0bf3 5F5F494E 		.ascii "__INT_LEAST32_MAX__ 0x7fffffff\0"
 3863      545F4C45 
 3863      41535433 
 3863      325F4D41 
 3863      585F5F20 
 3864 0c12 01       		.byte	0x1
 3865 0c13 00       		.uleb128 0
 3866 0c14 5F5F494E 		.ascii "__INT32_C(c) c\0"
 3866      5433325F 
 3866      43286329 
 3866      206300
 3867 0c23 01       		.byte	0x1
 3868 0c24 00       		.uleb128 0
 3869 0c25 5F5F494E 		.ascii "__INT_LEAST32_WIDTH__ 32\0"
 3869      545F4C45 
 3869      41535433 
 3869      325F5749 
 3869      4454485F 
 3870 0c3e 01       		.byte	0x1
 3871 0c3f 00       		.uleb128 0
 3872 0c40 5F5F494E 		.ascii "__INT_LEAST64_MAX__ 0x7fffffffffffffffLL\0"
 3872      545F4C45 
 3872      41535436 
 3872      345F4D41 
 3872      585F5F20 
 3873 0c69 01       		.byte	0x1
 3874 0c6a 00       		.uleb128 0
 3875 0c6b 5F5F494E 		.ascii "__INT64_C(c) c ## LL\0"
 3875      5436345F 
 3875      43286329 
 3875      20632023 
 3875      23204C4C 
 3876 0c80 01       		.byte	0x1
 3877 0c81 00       		.uleb128 0
 3878 0c82 5F5F494E 		.ascii "__INT_LEAST64_WIDTH__ 64\0"
 3878      545F4C45 
 3878      41535436 
 3878      345F5749 
 3878      4454485F 
 3879 0c9b 01       		.byte	0x1
 3880 0c9c 00       		.uleb128 0
 3881 0c9d 5F5F5549 		.ascii "__UINT_LEAST8_MAX__ 0xff\0"
 3881      4E545F4C 
 3881      45415354 
 3881      385F4D41 
 3881      585F5F20 
 3882 0cb6 01       		.byte	0x1
 3883 0cb7 00       		.uleb128 0
 3884 0cb8 5F5F5549 		.ascii "__UINT8_C(c) c\0"
 3884      4E54385F 
 3884      43286329 
GAS LISTING C:\Users\PRESID~1\AppData\Local\Temp\ccCA8Smq.s 			page 111


 3884      206300
 3885 0cc7 01       		.byte	0x1
 3886 0cc8 00       		.uleb128 0
 3887 0cc9 5F5F5549 		.ascii "__UINT_LEAST16_MAX__ 0xffff\0"
 3887      4E545F4C 
 3887      45415354 
 3887      31365F4D 
 3887      41585F5F 
 3888 0ce5 01       		.byte	0x1
 3889 0ce6 00       		.uleb128 0
 3890 0ce7 5F5F5549 		.ascii "__UINT16_C(c) c\0"
 3890      4E543136 
 3890      5F432863 
 3890      29206300 
 3891 0cf7 01       		.byte	0x1
 3892 0cf8 00       		.uleb128 0
 3893 0cf9 5F5F5549 		.ascii "__UINT_LEAST32_MAX__ 0xffffffffU\0"
 3893      4E545F4C 
 3893      45415354 
 3893      33325F4D 
 3893      41585F5F 
 3894 0d1a 01       		.byte	0x1
 3895 0d1b 00       		.uleb128 0
 3896 0d1c 5F5F5549 		.ascii "__UINT32_C(c) c ## U\0"
 3896      4E543332 
 3896      5F432863 
 3896      29206320 
 3896      23232055 
 3897 0d31 01       		.byte	0x1
 3898 0d32 00       		.uleb128 0
 3899 0d33 5F5F5549 		.ascii "__UINT_LEAST64_MAX__ 0xffffffffffffffffULL\0"
 3899      4E545F4C 
 3899      45415354 
 3899      36345F4D 
 3899      41585F5F 
 3900 0d5e 01       		.byte	0x1
 3901 0d5f 00       		.uleb128 0
 3902 0d60 5F5F5549 		.ascii "__UINT64_C(c) c ## ULL\0"
 3902      4E543634 
 3902      5F432863 
 3902      29206320 
 3902      23232055 
 3903 0d77 01       		.byte	0x1
 3904 0d78 00       		.uleb128 0
 3905 0d79 5F5F494E 		.ascii "__INT_FAST8_MAX__ 0x7f\0"
 3905      545F4641 
 3905      5354385F 
 3905      4D41585F 
 3905      5F203078 
 3906 0d90 01       		.byte	0x1
 3907 0d91 00       		.uleb128 0
 3908 0d92 5F5F494E 		.ascii "__INT_FAST8_WIDTH__ 8\0"
 3908      545F4641 
 3908      5354385F 
 3908      57494454 
 3908      485F5F20 
 3909 0da8 01       		.byte	0x1
GAS LISTING C:\Users\PRESID~1\AppData\Local\Temp\ccCA8Smq.s 			page 112


 3910 0da9 00       		.uleb128 0
 3911 0daa 5F5F494E 		.ascii "__INT_FAST16_MAX__ 0x7fff\0"
 3911      545F4641 
 3911      53543136 
 3911      5F4D4158 
 3911      5F5F2030 
 3912 0dc4 01       		.byte	0x1
 3913 0dc5 00       		.uleb128 0
 3914 0dc6 5F5F494E 		.ascii "__INT_FAST16_WIDTH__ 16\0"
 3914      545F4641 
 3914      53543136 
 3914      5F574944 
 3914      54485F5F 
 3915 0dde 01       		.byte	0x1
 3916 0ddf 00       		.uleb128 0
 3917 0de0 5F5F494E 		.ascii "__INT_FAST32_MAX__ 0x7fffffff\0"
 3917      545F4641 
 3917      53543332 
 3917      5F4D4158 
 3917      5F5F2030 
 3918 0dfe 01       		.byte	0x1
 3919 0dff 00       		.uleb128 0
 3920 0e00 5F5F494E 		.ascii "__INT_FAST32_WIDTH__ 32\0"
 3920      545F4641 
 3920      53543332 
 3920      5F574944 
 3920      54485F5F 
 3921 0e18 01       		.byte	0x1
 3922 0e19 00       		.uleb128 0
 3923 0e1a 5F5F494E 		.ascii "__INT_FAST64_MAX__ 0x7fffffffffffffffLL\0"
 3923      545F4641 
 3923      53543634 
 3923      5F4D4158 
 3923      5F5F2030 
 3924 0e42 01       		.byte	0x1
 3925 0e43 00       		.uleb128 0
 3926 0e44 5F5F494E 		.ascii "__INT_FAST64_WIDTH__ 64\0"
 3926      545F4641 
 3926      53543634 
 3926      5F574944 
 3926      54485F5F 
 3927 0e5c 01       		.byte	0x1
 3928 0e5d 00       		.uleb128 0
 3929 0e5e 5F5F5549 		.ascii "__UINT_FAST8_MAX__ 0xff\0"
 3929      4E545F46 
 3929      41535438 
 3929      5F4D4158 
 3929      5F5F2030 
 3930 0e76 01       		.byte	0x1
 3931 0e77 00       		.uleb128 0
 3932 0e78 5F5F5549 		.ascii "__UINT_FAST16_MAX__ 0xffff\0"
 3932      4E545F46 
 3932      41535431 
 3932      365F4D41 
 3932      585F5F20 
 3933 0e93 01       		.byte	0x1
 3934 0e94 00       		.uleb128 0
GAS LISTING C:\Users\PRESID~1\AppData\Local\Temp\ccCA8Smq.s 			page 113


 3935 0e95 5F5F5549 		.ascii "__UINT_FAST32_MAX__ 0xffffffffU\0"
 3935      4E545F46 
 3935      41535433 
 3935      325F4D41 
 3935      585F5F20 
 3936 0eb5 01       		.byte	0x1
 3937 0eb6 00       		.uleb128 0
 3938 0eb7 5F5F5549 		.ascii "__UINT_FAST64_MAX__ 0xffffffffffffffffULL\0"
 3938      4E545F46 
 3938      41535436 
 3938      345F4D41 
 3938      585F5F20 
 3939 0ee1 01       		.byte	0x1
 3940 0ee2 00       		.uleb128 0
 3941 0ee3 5F5F494E 		.ascii "__INTPTR_MAX__ 0x7fffffff\0"
 3941      54505452 
 3941      5F4D4158 
 3941      5F5F2030 
 3941      78376666 
 3942 0efd 01       		.byte	0x1
 3943 0efe 00       		.uleb128 0
 3944 0eff 5F5F494E 		.ascii "__INTPTR_WIDTH__ 32\0"
 3944      54505452 
 3944      5F574944 
 3944      54485F5F 
 3944      20333200 
 3945 0f13 01       		.byte	0x1
 3946 0f14 00       		.uleb128 0
 3947 0f15 5F5F5549 		.ascii "__UINTPTR_MAX__ 0xffffffffU\0"
 3947      4E545054 
 3947      525F4D41 
 3947      585F5F20 
 3947      30786666 
 3948 0f31 01       		.byte	0x1
 3949 0f32 00       		.uleb128 0
 3950 0f33 5F5F4743 		.ascii "__GCC_IEC_559 2\0"
 3950      435F4945 
 3950      435F3535 
 3950      39203200 
 3951 0f43 01       		.byte	0x1
 3952 0f44 00       		.uleb128 0
 3953 0f45 5F5F4743 		.ascii "__GCC_IEC_559_COMPLEX 2\0"
 3953      435F4945 
 3953      435F3535 
 3953      395F434F 
 3953      4D504C45 
 3954 0f5d 01       		.byte	0x1
 3955 0f5e 00       		.uleb128 0
 3956 0f5f 5F5F464C 		.ascii "__FLT_EVAL_METHOD__ 2\0"
 3956      545F4556 
 3956      414C5F4D 
 3956      4554484F 
 3956      445F5F20 
 3957 0f75 01       		.byte	0x1
 3958 0f76 00       		.uleb128 0
 3959 0f77 5F5F464C 		.ascii "__FLT_EVAL_METHOD_TS_18661_3__ 2\0"
 3959      545F4556 
GAS LISTING C:\Users\PRESID~1\AppData\Local\Temp\ccCA8Smq.s 			page 114


 3959      414C5F4D 
 3959      4554484F 
 3959      445F5453 
 3960 0f98 01       		.byte	0x1
 3961 0f99 00       		.uleb128 0
 3962 0f9a 5F5F4445 		.ascii "__DEC_EVAL_METHOD__ 2\0"
 3962      435F4556 
 3962      414C5F4D 
 3962      4554484F 
 3962      445F5F20 
 3963 0fb0 01       		.byte	0x1
 3964 0fb1 00       		.uleb128 0
 3965 0fb2 5F5F464C 		.ascii "__FLT_RADIX__ 2\0"
 3965      545F5241 
 3965      4449585F 
 3965      5F203200 
 3966 0fc2 01       		.byte	0x1
 3967 0fc3 00       		.uleb128 0
 3968 0fc4 5F5F464C 		.ascii "__FLT_MANT_DIG__ 24\0"
 3968      545F4D41 
 3968      4E545F44 
 3968      49475F5F 
 3968      20323400 
 3969 0fd8 01       		.byte	0x1
 3970 0fd9 00       		.uleb128 0
 3971 0fda 5F5F464C 		.ascii "__FLT_DIG__ 6\0"
 3971      545F4449 
 3971      475F5F20 
 3971      3600
 3972 0fe8 01       		.byte	0x1
 3973 0fe9 00       		.uleb128 0
 3974 0fea 5F5F464C 		.ascii "__FLT_MIN_EXP__ (-125)\0"
 3974      545F4D49 
 3974      4E5F4558 
 3974      505F5F20 
 3974      282D3132 
 3975 1001 01       		.byte	0x1
 3976 1002 00       		.uleb128 0
 3977 1003 5F5F464C 		.ascii "__FLT_MIN_10_EXP__ (-37)\0"
 3977      545F4D49 
 3977      4E5F3130 
 3977      5F455850 
 3977      5F5F2028 
 3978 101c 01       		.byte	0x1
 3979 101d 00       		.uleb128 0
 3980 101e 5F5F464C 		.ascii "__FLT_MAX_EXP__ 128\0"
 3980      545F4D41 
 3980      585F4558 
 3980      505F5F20 
 3980      31323800 
 3981 1032 01       		.byte	0x1
 3982 1033 00       		.uleb128 0
 3983 1034 5F5F464C 		.ascii "__FLT_MAX_10_EXP__ 38\0"
 3983      545F4D41 
 3983      585F3130 
 3983      5F455850 
 3983      5F5F2033 
GAS LISTING C:\Users\PRESID~1\AppData\Local\Temp\ccCA8Smq.s 			page 115


 3984 104a 01       		.byte	0x1
 3985 104b 00       		.uleb128 0
 3986 104c 5F5F464C 		.ascii "__FLT_DECIMAL_DIG__ 9\0"
 3986      545F4445 
 3986      43494D41 
 3986      4C5F4449 
 3986      475F5F20 
 3987 1062 01       		.byte	0x1
 3988 1063 00       		.uleb128 0
 3989 1064 5F5F464C 		.ascii "__FLT_MAX__ 3.40282346638528859811704183484516925e+38F\0"
 3989      545F4D41 
 3989      585F5F20 
 3989      332E3430 
 3989      32383233 
 3990 109b 01       		.byte	0x1
 3991 109c 00       		.uleb128 0
 3992 109d 5F5F464C 		.ascii "__FLT_MIN__ 1.17549435082228750796873653722224568e-38F\0"
 3992      545F4D49 
 3992      4E5F5F20 
 3992      312E3137 
 3992      35343934 
 3993 10d4 01       		.byte	0x1
 3994 10d5 00       		.uleb128 0
 3995 10d6 5F5F464C 		.ascii "__FLT_EPSILON__ 1.19209289550781250000000000000000000e-7F\0"
 3995      545F4550 
 3995      53494C4F 
 3995      4E5F5F20 
 3995      312E3139 
 3996 1110 01       		.byte	0x1
 3997 1111 00       		.uleb128 0
 3998 1112 5F5F464C 		.ascii "__FLT_DENORM_MIN__ 1.40129846432481707092372958328991613e-45F\0"
 3998      545F4445 
 3998      4E4F524D 
 3998      5F4D494E 
 3998      5F5F2031 
 3999 1150 01       		.byte	0x1
 4000 1151 00       		.uleb128 0
 4001 1152 5F5F464C 		.ascii "__FLT_HAS_DENORM__ 1\0"
 4001      545F4841 
 4001      535F4445 
 4001      4E4F524D 
 4001      5F5F2031 
 4002 1167 01       		.byte	0x1
 4003 1168 00       		.uleb128 0
 4004 1169 5F5F464C 		.ascii "__FLT_HAS_INFINITY__ 1\0"
 4004      545F4841 
 4004      535F494E 
 4004      46494E49 
 4004      54595F5F 
 4005 1180 01       		.byte	0x1
 4006 1181 00       		.uleb128 0
 4007 1182 5F5F464C 		.ascii "__FLT_HAS_QUIET_NAN__ 1\0"
 4007      545F4841 
 4007      535F5155 
 4007      4945545F 
 4007      4E414E5F 
 4008 119a 01       		.byte	0x1
GAS LISTING C:\Users\PRESID~1\AppData\Local\Temp\ccCA8Smq.s 			page 116


 4009 119b 00       		.uleb128 0
 4010 119c 5F5F4442 		.ascii "__DBL_MANT_DIG__ 53\0"
 4010      4C5F4D41 
 4010      4E545F44 
 4010      49475F5F 
 4010      20353300 
 4011 11b0 01       		.byte	0x1
 4012 11b1 00       		.uleb128 0
 4013 11b2 5F5F4442 		.ascii "__DBL_DIG__ 15\0"
 4013      4C5F4449 
 4013      475F5F20 
 4013      313500
 4014 11c1 01       		.byte	0x1
 4015 11c2 00       		.uleb128 0
 4016 11c3 5F5F4442 		.ascii "__DBL_MIN_EXP__ (-1021)\0"
 4016      4C5F4D49 
 4016      4E5F4558 
 4016      505F5F20 
 4016      282D3130 
 4017 11db 01       		.byte	0x1
 4018 11dc 00       		.uleb128 0
 4019 11dd 5F5F4442 		.ascii "__DBL_MIN_10_EXP__ (-307)\0"
 4019      4C5F4D49 
 4019      4E5F3130 
 4019      5F455850 
 4019      5F5F2028 
 4020 11f7 01       		.byte	0x1
 4021 11f8 00       		.uleb128 0
 4022 11f9 5F5F4442 		.ascii "__DBL_MAX_EXP__ 1024\0"
 4022      4C5F4D41 
 4022      585F4558 
 4022      505F5F20 
 4022      31303234 
 4023 120e 01       		.byte	0x1
 4024 120f 00       		.uleb128 0
 4025 1210 5F5F4442 		.ascii "__DBL_MAX_10_EXP__ 308\0"
 4025      4C5F4D41 
 4025      585F3130 
 4025      5F455850 
 4025      5F5F2033 
 4026 1227 01       		.byte	0x1
 4027 1228 00       		.uleb128 0
 4028 1229 5F5F4442 		.ascii "__DBL_DECIMAL_DIG__ 17\0"
 4028      4C5F4445 
 4028      43494D41 
 4028      4C5F4449 
 4028      475F5F20 
 4029 1240 01       		.byte	0x1
 4030 1241 00       		.uleb128 0
 4031 1242 5F5F4442 		.ascii "__DBL_MAX__ ((double)1.79769313486231570814527423731704357e+308L)\0"
 4031      4C5F4D41 
 4031      585F5F20 
 4031      2828646F 
 4031      75626C65 
 4032 1284 01       		.byte	0x1
 4033 1285 00       		.uleb128 0
 4034 1286 5F5F4442 		.ascii "__DBL_MIN__ ((double)2.22507385850720138309023271733240406e-308L)\0"
GAS LISTING C:\Users\PRESID~1\AppData\Local\Temp\ccCA8Smq.s 			page 117


 4034      4C5F4D49 
 4034      4E5F5F20 
 4034      2828646F 
 4034      75626C65 
 4035 12c8 01       		.byte	0x1
 4036 12c9 00       		.uleb128 0
 4037 12ca 5F5F4442 		.ascii "__DBL_EPSILON__ ((double)2.22044604925031308084726333618164062e-16L)\0"
 4037      4C5F4550 
 4037      53494C4F 
 4037      4E5F5F20 
 4037      2828646F 
 4038 130f 01       		.byte	0x1
 4039 1310 00       		.uleb128 0
 4040 1311 5F5F4442 		.ascii "__DBL_DENORM_MIN__ ((double)4.94065645841246544176568792868221372e-324L)\0"
 4040      4C5F4445 
 4040      4E4F524D 
 4040      5F4D494E 
 4040      5F5F2028 
 4041 135a 01       		.byte	0x1
 4042 135b 00       		.uleb128 0
 4043 135c 5F5F4442 		.ascii "__DBL_HAS_DENORM__ 1\0"
 4043      4C5F4841 
 4043      535F4445 
 4043      4E4F524D 
 4043      5F5F2031 
 4044 1371 01       		.byte	0x1
 4045 1372 00       		.uleb128 0
 4046 1373 5F5F4442 		.ascii "__DBL_HAS_INFINITY__ 1\0"
 4046      4C5F4841 
 4046      535F494E 
 4046      46494E49 
 4046      54595F5F 
 4047 138a 01       		.byte	0x1
 4048 138b 00       		.uleb128 0
 4049 138c 5F5F4442 		.ascii "__DBL_HAS_QUIET_NAN__ 1\0"
 4049      4C5F4841 
 4049      535F5155 
 4049      4945545F 
 4049      4E414E5F 
 4050 13a4 01       		.byte	0x1
 4051 13a5 00       		.uleb128 0
 4052 13a6 5F5F4C44 		.ascii "__LDBL_MANT_DIG__ 64\0"
 4052      424C5F4D 
 4052      414E545F 
 4052      4449475F 
 4052      5F203634 
 4053 13bb 01       		.byte	0x1
 4054 13bc 00       		.uleb128 0
 4055 13bd 5F5F4C44 		.ascii "__LDBL_DIG__ 18\0"
 4055      424C5F44 
 4055      49475F5F 
 4055      20313800 
 4056 13cd 01       		.byte	0x1
 4057 13ce 00       		.uleb128 0
 4058 13cf 5F5F4C44 		.ascii "__LDBL_MIN_EXP__ (-16381)\0"
 4058      424C5F4D 
 4058      494E5F45 
GAS LISTING C:\Users\PRESID~1\AppData\Local\Temp\ccCA8Smq.s 			page 118


 4058      58505F5F 
 4058      20282D31 
 4059 13e9 01       		.byte	0x1
 4060 13ea 00       		.uleb128 0
 4061 13eb 5F5F4C44 		.ascii "__LDBL_MIN_10_EXP__ (-4931)\0"
 4061      424C5F4D 
 4061      494E5F31 
 4061      305F4558 
 4061      505F5F20 
 4062 1407 01       		.byte	0x1
 4063 1408 00       		.uleb128 0
 4064 1409 5F5F4C44 		.ascii "__LDBL_MAX_EXP__ 16384\0"
 4064      424C5F4D 
 4064      41585F45 
 4064      58505F5F 
 4064      20313633 
 4065 1420 01       		.byte	0x1
 4066 1421 00       		.uleb128 0
 4067 1422 5F5F4C44 		.ascii "__LDBL_MAX_10_EXP__ 4932\0"
 4067      424C5F4D 
 4067      41585F31 
 4067      305F4558 
 4067      505F5F20 
 4068 143b 01       		.byte	0x1
 4069 143c 00       		.uleb128 0
 4070 143d 5F5F4445 		.ascii "__DECIMAL_DIG__ 21\0"
 4070      43494D41 
 4070      4C5F4449 
 4070      475F5F20 
 4070      323100
 4071 1450 01       		.byte	0x1
 4072 1451 00       		.uleb128 0
 4073 1452 5F5F4C44 		.ascii "__LDBL_DECIMAL_DIG__ 21\0"
 4073      424C5F44 
 4073      4543494D 
 4073      414C5F44 
 4073      49475F5F 
 4074 146a 01       		.byte	0x1
 4075 146b 00       		.uleb128 0
 4076 146c 5F5F4C44 		.ascii "__LDBL_MAX__ 1.18973149535723176502126385303097021e+4932L\0"
 4076      424C5F4D 
 4076      41585F5F 
 4076      20312E31 
 4076      38393733 
 4077 14a6 01       		.byte	0x1
 4078 14a7 00       		.uleb128 0
 4079 14a8 5F5F4C44 		.ascii "__LDBL_MIN__ 3.36210314311209350626267781732175260e-4932L\0"
 4079      424C5F4D 
 4079      494E5F5F 
 4079      20332E33 
 4079      36323130 
 4080 14e2 01       		.byte	0x1
 4081 14e3 00       		.uleb128 0
 4082 14e4 5F5F4C44 		.ascii "__LDBL_EPSILON__ 1.08420217248550443400745280086994171e-19L\0"
 4082      424C5F45 
 4082      5053494C 
 4082      4F4E5F5F 
GAS LISTING C:\Users\PRESID~1\AppData\Local\Temp\ccCA8Smq.s 			page 119


 4082      20312E30 
 4083 1520 01       		.byte	0x1
 4084 1521 00       		.uleb128 0
 4085 1522 5F5F4C44 		.ascii "__LDBL_DENORM_MIN__ 3.64519953188247460252840593361941982e-4951L\0"
 4085      424C5F44 
 4085      454E4F52 
 4085      4D5F4D49 
 4085      4E5F5F20 
 4086 1563 01       		.byte	0x1
 4087 1564 00       		.uleb128 0
 4088 1565 5F5F4C44 		.ascii "__LDBL_HAS_DENORM__ 1\0"
 4088      424C5F48 
 4088      41535F44 
 4088      454E4F52 
 4088      4D5F5F20 
 4089 157b 01       		.byte	0x1
 4090 157c 00       		.uleb128 0
 4091 157d 5F5F4C44 		.ascii "__LDBL_HAS_INFINITY__ 1\0"
 4091      424C5F48 
 4091      41535F49 
 4091      4E46494E 
 4091      4954595F 
 4092 1595 01       		.byte	0x1
 4093 1596 00       		.uleb128 0
 4094 1597 5F5F4C44 		.ascii "__LDBL_HAS_QUIET_NAN__ 1\0"
 4094      424C5F48 
 4094      41535F51 
 4094      55494554 
 4094      5F4E414E 
 4095 15b0 01       		.byte	0x1
 4096 15b1 00       		.uleb128 0
 4097 15b2 5F5F464C 		.ascii "__FLT32_MANT_DIG__ 24\0"
 4097      5433325F 
 4097      4D414E54 
 4097      5F444947 
 4097      5F5F2032 
 4098 15c8 01       		.byte	0x1
 4099 15c9 00       		.uleb128 0
 4100 15ca 5F5F464C 		.ascii "__FLT32_DIG__ 6\0"
 4100      5433325F 
 4100      4449475F 
 4100      5F203600 
 4101 15da 01       		.byte	0x1
 4102 15db 00       		.uleb128 0
 4103 15dc 5F5F464C 		.ascii "__FLT32_MIN_EXP__ (-125)\0"
 4103      5433325F 
 4103      4D494E5F 
 4103      4558505F 
 4103      5F20282D 
 4104 15f5 01       		.byte	0x1
 4105 15f6 00       		.uleb128 0
 4106 15f7 5F5F464C 		.ascii "__FLT32_MIN_10_EXP__ (-37)\0"
 4106      5433325F 
 4106      4D494E5F 
 4106      31305F45 
 4106      58505F5F 
 4107 1612 01       		.byte	0x1
GAS LISTING C:\Users\PRESID~1\AppData\Local\Temp\ccCA8Smq.s 			page 120


 4108 1613 00       		.uleb128 0
 4109 1614 5F5F464C 		.ascii "__FLT32_MAX_EXP__ 128\0"
 4109      5433325F 
 4109      4D41585F 
 4109      4558505F 
 4109      5F203132 
 4110 162a 01       		.byte	0x1
 4111 162b 00       		.uleb128 0
 4112 162c 5F5F464C 		.ascii "__FLT32_MAX_10_EXP__ 38\0"
 4112      5433325F 
 4112      4D41585F 
 4112      31305F45 
 4112      58505F5F 
 4113 1644 01       		.byte	0x1
 4114 1645 00       		.uleb128 0
 4115 1646 5F5F464C 		.ascii "__FLT32_DECIMAL_DIG__ 9\0"
 4115      5433325F 
 4115      44454349 
 4115      4D414C5F 
 4115      4449475F 
 4116 165e 01       		.byte	0x1
 4117 165f 00       		.uleb128 0
 4118 1660 5F5F464C 		.ascii "__FLT32_MAX__ 3.40282346638528859811704183484516925e+38F32\0"
 4118      5433325F 
 4118      4D41585F 
 4118      5F20332E 
 4118      34303238 
 4119 169b 01       		.byte	0x1
 4120 169c 00       		.uleb128 0
 4121 169d 5F5F464C 		.ascii "__FLT32_MIN__ 1.17549435082228750796873653722224568e-38F32\0"
 4121      5433325F 
 4121      4D494E5F 
 4121      5F20312E 
 4121      31373534 
 4122 16d8 01       		.byte	0x1
 4123 16d9 00       		.uleb128 0
 4124 16da 5F5F464C 		.ascii "__FLT32_EPSILON__ 1.19209289550781250000000000000000000e-7F32\0"
 4124      5433325F 
 4124      45505349 
 4124      4C4F4E5F 
 4124      5F20312E 
 4125 1718 01       		.byte	0x1
 4126 1719 00       		.uleb128 0
 4127 171a 5F5F464C 		.ascii "__FLT32_DENORM_MIN__ 1.40129846432481707092372958328991613e-45F32\0"
 4127      5433325F 
 4127      44454E4F 
 4127      524D5F4D 
 4127      494E5F5F 
 4128 175c 01       		.byte	0x1
 4129 175d 00       		.uleb128 0
 4130 175e 5F5F464C 		.ascii "__FLT32_HAS_DENORM__ 1\0"
 4130      5433325F 
 4130      4841535F 
 4130      44454E4F 
 4130      524D5F5F 
 4131 1775 01       		.byte	0x1
 4132 1776 00       		.uleb128 0
GAS LISTING C:\Users\PRESID~1\AppData\Local\Temp\ccCA8Smq.s 			page 121


 4133 1777 5F5F464C 		.ascii "__FLT32_HAS_INFINITY__ 1\0"
 4133      5433325F 
 4133      4841535F 
 4133      494E4649 
 4133      4E495459 
 4134 1790 01       		.byte	0x1
 4135 1791 00       		.uleb128 0
 4136 1792 5F5F464C 		.ascii "__FLT32_HAS_QUIET_NAN__ 1\0"
 4136      5433325F 
 4136      4841535F 
 4136      51554945 
 4136      545F4E41 
 4137 17ac 01       		.byte	0x1
 4138 17ad 00       		.uleb128 0
 4139 17ae 5F5F464C 		.ascii "__FLT64_MANT_DIG__ 53\0"
 4139      5436345F 
 4139      4D414E54 
 4139      5F444947 
 4139      5F5F2035 
 4140 17c4 01       		.byte	0x1
 4141 17c5 00       		.uleb128 0
 4142 17c6 5F5F464C 		.ascii "__FLT64_DIG__ 15\0"
 4142      5436345F 
 4142      4449475F 
 4142      5F203135 
 4142      00
 4143 17d7 01       		.byte	0x1
 4144 17d8 00       		.uleb128 0
 4145 17d9 5F5F464C 		.ascii "__FLT64_MIN_EXP__ (-1021)\0"
 4145      5436345F 
 4145      4D494E5F 
 4145      4558505F 
 4145      5F20282D 
 4146 17f3 01       		.byte	0x1
 4147 17f4 00       		.uleb128 0
 4148 17f5 5F5F464C 		.ascii "__FLT64_MIN_10_EXP__ (-307)\0"
 4148      5436345F 
 4148      4D494E5F 
 4148      31305F45 
 4148      58505F5F 
 4149 1811 01       		.byte	0x1
 4150 1812 00       		.uleb128 0
 4151 1813 5F5F464C 		.ascii "__FLT64_MAX_EXP__ 1024\0"
 4151      5436345F 
 4151      4D41585F 
 4151      4558505F 
 4151      5F203130 
 4152 182a 01       		.byte	0x1
 4153 182b 00       		.uleb128 0
 4154 182c 5F5F464C 		.ascii "__FLT64_MAX_10_EXP__ 308\0"
 4154      5436345F 
 4154      4D41585F 
 4154      31305F45 
 4154      58505F5F 
 4155 1845 01       		.byte	0x1
 4156 1846 00       		.uleb128 0
 4157 1847 5F5F464C 		.ascii "__FLT64_DECIMAL_DIG__ 17\0"
GAS LISTING C:\Users\PRESID~1\AppData\Local\Temp\ccCA8Smq.s 			page 122


 4157      5436345F 
 4157      44454349 
 4157      4D414C5F 
 4157      4449475F 
 4158 1860 01       		.byte	0x1
 4159 1861 00       		.uleb128 0
 4160 1862 5F5F464C 		.ascii "__FLT64_MAX__ 1.79769313486231570814527423731704357e+308F64\0"
 4160      5436345F 
 4160      4D41585F 
 4160      5F20312E 
 4160      37393736 
 4161 189e 01       		.byte	0x1
 4162 189f 00       		.uleb128 0
 4163 18a0 5F5F464C 		.ascii "__FLT64_MIN__ 2.22507385850720138309023271733240406e-308F64\0"
 4163      5436345F 
 4163      4D494E5F 
 4163      5F20322E 
 4163      32323530 
 4164 18dc 01       		.byte	0x1
 4165 18dd 00       		.uleb128 0
 4166 18de 5F5F464C 		.ascii "__FLT64_EPSILON__ 2.22044604925031308084726333618164062e-16F64\0"
 4166      5436345F 
 4166      45505349 
 4166      4C4F4E5F 
 4166      5F20322E 
 4167 191d 01       		.byte	0x1
 4168 191e 00       		.uleb128 0
 4169 191f 5F5F464C 		.ascii "__FLT64_DENORM_MIN__ 4.94065645841246544176568792868221372e-324F64\0"
 4169      5436345F 
 4169      44454E4F 
 4169      524D5F4D 
 4169      494E5F5F 
 4170 1962 01       		.byte	0x1
 4171 1963 00       		.uleb128 0
 4172 1964 5F5F464C 		.ascii "__FLT64_HAS_DENORM__ 1\0"
 4172      5436345F 
 4172      4841535F 
 4172      44454E4F 
 4172      524D5F5F 
 4173 197b 01       		.byte	0x1
 4174 197c 00       		.uleb128 0
 4175 197d 5F5F464C 		.ascii "__FLT64_HAS_INFINITY__ 1\0"
 4175      5436345F 
 4175      4841535F 
 4175      494E4649 
 4175      4E495459 
 4176 1996 01       		.byte	0x1
 4177 1997 00       		.uleb128 0
 4178 1998 5F5F464C 		.ascii "__FLT64_HAS_QUIET_NAN__ 1\0"
 4178      5436345F 
 4178      4841535F 
 4178      51554945 
 4178      545F4E41 
 4179 19b2 01       		.byte	0x1
 4180 19b3 00       		.uleb128 0
 4181 19b4 5F5F464C 		.ascii "__FLT128_MANT_DIG__ 113\0"
 4181      54313238 
GAS LISTING C:\Users\PRESID~1\AppData\Local\Temp\ccCA8Smq.s 			page 123


 4181      5F4D414E 
 4181      545F4449 
 4181      475F5F20 
 4182 19cc 01       		.byte	0x1
 4183 19cd 00       		.uleb128 0
 4184 19ce 5F5F464C 		.ascii "__FLT128_DIG__ 33\0"
 4184      54313238 
 4184      5F444947 
 4184      5F5F2033 
 4184      3300
 4185 19e0 01       		.byte	0x1
 4186 19e1 00       		.uleb128 0
 4187 19e2 5F5F464C 		.ascii "__FLT128_MIN_EXP__ (-16381)\0"
 4187      54313238 
 4187      5F4D494E 
 4187      5F455850 
 4187      5F5F2028 
 4188 19fe 01       		.byte	0x1
 4189 19ff 00       		.uleb128 0
 4190 1a00 5F5F464C 		.ascii "__FLT128_MIN_10_EXP__ (-4931)\0"
 4190      54313238 
 4190      5F4D494E 
 4190      5F31305F 
 4190      4558505F 
 4191 1a1e 01       		.byte	0x1
 4192 1a1f 00       		.uleb128 0
 4193 1a20 5F5F464C 		.ascii "__FLT128_MAX_EXP__ 16384\0"
 4193      54313238 
 4193      5F4D4158 
 4193      5F455850 
 4193      5F5F2031 
 4194 1a39 01       		.byte	0x1
 4195 1a3a 00       		.uleb128 0
 4196 1a3b 5F5F464C 		.ascii "__FLT128_MAX_10_EXP__ 4932\0"
 4196      54313238 
 4196      5F4D4158 
 4196      5F31305F 
 4196      4558505F 
 4197 1a56 01       		.byte	0x1
 4198 1a57 00       		.uleb128 0
 4199 1a58 5F5F464C 		.ascii "__FLT128_DECIMAL_DIG__ 36\0"
 4199      54313238 
 4199      5F444543 
 4199      494D414C 
 4199      5F444947 
 4200 1a72 01       		.byte	0x1
 4201 1a73 00       		.uleb128 0
 4202 1a74 5F5F464C 		.ascii "__FLT128_MAX__ 1.18973149535723176508575932662800702e+4932F128\0"
 4202      54313238 
 4202      5F4D4158 
 4202      5F5F2031 
 4202      2E313839 
 4203 1ab3 01       		.byte	0x1
 4204 1ab4 00       		.uleb128 0
 4205 1ab5 5F5F464C 		.ascii "__FLT128_MIN__ 3.36210314311209350626267781732175260e-4932F128\0"
 4205      54313238 
 4205      5F4D494E 
GAS LISTING C:\Users\PRESID~1\AppData\Local\Temp\ccCA8Smq.s 			page 124


 4205      5F5F2033 
 4205      2E333632 
 4206 1af4 01       		.byte	0x1
 4207 1af5 00       		.uleb128 0
 4208 1af6 5F5F464C 		.ascii "__FLT128_EPSILON__ 1.92592994438723585305597794258492732e-34F128\0"
 4208      54313238 
 4208      5F455053 
 4208      494C4F4E 
 4208      5F5F2031 
 4209 1b37 01       		.byte	0x1
 4210 1b38 00       		.uleb128 0
 4211 1b39 5F5F464C 		.ascii "__FLT128_DENORM_MIN__ 6.47517511943802511092443895822764655e-4966F128\0"
 4211      54313238 
 4211      5F44454E 
 4211      4F524D5F 
 4211      4D494E5F 
 4212 1b7f 01       		.byte	0x1
 4213 1b80 00       		.uleb128 0
 4214 1b81 5F5F464C 		.ascii "__FLT128_HAS_DENORM__ 1\0"
 4214      54313238 
 4214      5F484153 
 4214      5F44454E 
 4214      4F524D5F 
 4215 1b99 01       		.byte	0x1
 4216 1b9a 00       		.uleb128 0
 4217 1b9b 5F5F464C 		.ascii "__FLT128_HAS_INFINITY__ 1\0"
 4217      54313238 
 4217      5F484153 
 4217      5F494E46 
 4217      494E4954 
 4218 1bb5 01       		.byte	0x1
 4219 1bb6 00       		.uleb128 0
 4220 1bb7 5F5F464C 		.ascii "__FLT128_HAS_QUIET_NAN__ 1\0"
 4220      54313238 
 4220      5F484153 
 4220      5F515549 
 4220      45545F4E 
 4221 1bd2 01       		.byte	0x1
 4222 1bd3 00       		.uleb128 0
 4223 1bd4 5F5F464C 		.ascii "__FLT32X_MANT_DIG__ 53\0"
 4223      54333258 
 4223      5F4D414E 
 4223      545F4449 
 4223      475F5F20 
 4224 1beb 01       		.byte	0x1
 4225 1bec 00       		.uleb128 0
 4226 1bed 5F5F464C 		.ascii "__FLT32X_DIG__ 15\0"
 4226      54333258 
 4226      5F444947 
 4226      5F5F2031 
 4226      3500
 4227 1bff 01       		.byte	0x1
 4228 1c00 00       		.uleb128 0
 4229 1c01 5F5F464C 		.ascii "__FLT32X_MIN_EXP__ (-1021)\0"
 4229      54333258 
 4229      5F4D494E 
 4229      5F455850 
GAS LISTING C:\Users\PRESID~1\AppData\Local\Temp\ccCA8Smq.s 			page 125


 4229      5F5F2028 
 4230 1c1c 01       		.byte	0x1
 4231 1c1d 00       		.uleb128 0
 4232 1c1e 5F5F464C 		.ascii "__FLT32X_MIN_10_EXP__ (-307)\0"
 4232      54333258 
 4232      5F4D494E 
 4232      5F31305F 
 4232      4558505F 
 4233 1c3b 01       		.byte	0x1
 4234 1c3c 00       		.uleb128 0
 4235 1c3d 5F5F464C 		.ascii "__FLT32X_MAX_EXP__ 1024\0"
 4235      54333258 
 4235      5F4D4158 
 4235      5F455850 
 4235      5F5F2031 
 4236 1c55 01       		.byte	0x1
 4237 1c56 00       		.uleb128 0
 4238 1c57 5F5F464C 		.ascii "__FLT32X_MAX_10_EXP__ 308\0"
 4238      54333258 
 4238      5F4D4158 
 4238      5F31305F 
 4238      4558505F 
 4239 1c71 01       		.byte	0x1
 4240 1c72 00       		.uleb128 0
 4241 1c73 5F5F464C 		.ascii "__FLT32X_DECIMAL_DIG__ 17\0"
 4241      54333258 
 4241      5F444543 
 4241      494D414C 
 4241      5F444947 
 4242 1c8d 01       		.byte	0x1
 4243 1c8e 00       		.uleb128 0
 4244 1c8f 5F5F464C 		.ascii "__FLT32X_MAX__ 1.79769313486231570814527423731704357e+308F32x\0"
 4244      54333258 
 4244      5F4D4158 
 4244      5F5F2031 
 4244      2E373937 
 4245 1ccd 01       		.byte	0x1
 4246 1cce 00       		.uleb128 0
 4247 1ccf 5F5F464C 		.ascii "__FLT32X_MIN__ 2.22507385850720138309023271733240406e-308F32x\0"
 4247      54333258 
 4247      5F4D494E 
 4247      5F5F2032 
 4247      2E323235 
 4248 1d0d 01       		.byte	0x1
 4249 1d0e 00       		.uleb128 0
 4250 1d0f 5F5F464C 		.ascii "__FLT32X_EPSILON__ 2.22044604925031308084726333618164062e-16F32x\0"
 4250      54333258 
 4250      5F455053 
 4250      494C4F4E 
 4250      5F5F2032 
 4251 1d50 01       		.byte	0x1
 4252 1d51 00       		.uleb128 0
 4253 1d52 5F5F464C 		.ascii "__FLT32X_DENORM_MIN__ 4.94065645841246544176568792868221372e-324F32x\0"
 4253      54333258 
 4253      5F44454E 
 4253      4F524D5F 
 4253      4D494E5F 
GAS LISTING C:\Users\PRESID~1\AppData\Local\Temp\ccCA8Smq.s 			page 126


 4254 1d97 01       		.byte	0x1
 4255 1d98 00       		.uleb128 0
 4256 1d99 5F5F464C 		.ascii "__FLT32X_HAS_DENORM__ 1\0"
 4256      54333258 
 4256      5F484153 
 4256      5F44454E 
 4256      4F524D5F 
 4257 1db1 01       		.byte	0x1
 4258 1db2 00       		.uleb128 0
 4259 1db3 5F5F464C 		.ascii "__FLT32X_HAS_INFINITY__ 1\0"
 4259      54333258 
 4259      5F484153 
 4259      5F494E46 
 4259      494E4954 
 4260 1dcd 01       		.byte	0x1
 4261 1dce 00       		.uleb128 0
 4262 1dcf 5F5F464C 		.ascii "__FLT32X_HAS_QUIET_NAN__ 1\0"
 4262      54333258 
 4262      5F484153 
 4262      5F515549 
 4262      45545F4E 
 4263 1dea 01       		.byte	0x1
 4264 1deb 00       		.uleb128 0
 4265 1dec 5F5F464C 		.ascii "__FLT64X_MANT_DIG__ 64\0"
 4265      54363458 
 4265      5F4D414E 
 4265      545F4449 
 4265      475F5F20 
 4266 1e03 01       		.byte	0x1
 4267 1e04 00       		.uleb128 0
 4268 1e05 5F5F464C 		.ascii "__FLT64X_DIG__ 18\0"
 4268      54363458 
 4268      5F444947 
 4268      5F5F2031 
 4268      3800
 4269 1e17 01       		.byte	0x1
 4270 1e18 00       		.uleb128 0
 4271 1e19 5F5F464C 		.ascii "__FLT64X_MIN_EXP__ (-16381)\0"
 4271      54363458 
 4271      5F4D494E 
 4271      5F455850 
 4271      5F5F2028 
 4272 1e35 01       		.byte	0x1
 4273 1e36 00       		.uleb128 0
 4274 1e37 5F5F464C 		.ascii "__FLT64X_MIN_10_EXP__ (-4931)\0"
 4274      54363458 
 4274      5F4D494E 
 4274      5F31305F 
 4274      4558505F 
 4275 1e55 01       		.byte	0x1
 4276 1e56 00       		.uleb128 0
 4277 1e57 5F5F464C 		.ascii "__FLT64X_MAX_EXP__ 16384\0"
 4277      54363458 
 4277      5F4D4158 
 4277      5F455850 
 4277      5F5F2031 
 4278 1e70 01       		.byte	0x1
GAS LISTING C:\Users\PRESID~1\AppData\Local\Temp\ccCA8Smq.s 			page 127


 4279 1e71 00       		.uleb128 0
 4280 1e72 5F5F464C 		.ascii "__FLT64X_MAX_10_EXP__ 4932\0"
 4280      54363458 
 4280      5F4D4158 
 4280      5F31305F 
 4280      4558505F 
 4281 1e8d 01       		.byte	0x1
 4282 1e8e 00       		.uleb128 0
 4283 1e8f 5F5F464C 		.ascii "__FLT64X_DECIMAL_DIG__ 21\0"
 4283      54363458 
 4283      5F444543 
 4283      494D414C 
 4283      5F444947 
 4284 1ea9 01       		.byte	0x1
 4285 1eaa 00       		.uleb128 0
 4286 1eab 5F5F464C 		.ascii "__FLT64X_MAX__ 1.18973149535723176502126385303097021e+4932F64x\0"
 4286      54363458 
 4286      5F4D4158 
 4286      5F5F2031 
 4286      2E313839 
 4287 1eea 01       		.byte	0x1
 4288 1eeb 00       		.uleb128 0
 4289 1eec 5F5F464C 		.ascii "__FLT64X_MIN__ 3.36210314311209350626267781732175260e-4932F64x\0"
 4289      54363458 
 4289      5F4D494E 
 4289      5F5F2033 
 4289      2E333632 
 4290 1f2b 01       		.byte	0x1
 4291 1f2c 00       		.uleb128 0
 4292 1f2d 5F5F464C 		.ascii "__FLT64X_EPSILON__ 1.08420217248550443400745280086994171e-19F64x\0"
 4292      54363458 
 4292      5F455053 
 4292      494C4F4E 
 4292      5F5F2031 
 4293 1f6e 01       		.byte	0x1
 4294 1f6f 00       		.uleb128 0
 4295 1f70 5F5F464C 		.ascii "__FLT64X_DENORM_MIN__ 3.64519953188247460252840593361941982e-4951F64x\0"
 4295      54363458 
 4295      5F44454E 
 4295      4F524D5F 
 4295      4D494E5F 
 4296 1fb6 01       		.byte	0x1
 4297 1fb7 00       		.uleb128 0
 4298 1fb8 5F5F464C 		.ascii "__FLT64X_HAS_DENORM__ 1\0"
 4298      54363458 
 4298      5F484153 
 4298      5F44454E 
 4298      4F524D5F 
 4299 1fd0 01       		.byte	0x1
 4300 1fd1 00       		.uleb128 0
 4301 1fd2 5F5F464C 		.ascii "__FLT64X_HAS_INFINITY__ 1\0"
 4301      54363458 
 4301      5F484153 
 4301      5F494E46 
 4301      494E4954 
 4302 1fec 01       		.byte	0x1
 4303 1fed 00       		.uleb128 0
GAS LISTING C:\Users\PRESID~1\AppData\Local\Temp\ccCA8Smq.s 			page 128


 4304 1fee 5F5F464C 		.ascii "__FLT64X_HAS_QUIET_NAN__ 1\0"
 4304      54363458 
 4304      5F484153 
 4304      5F515549 
 4304      45545F4E 
 4305 2009 01       		.byte	0x1
 4306 200a 00       		.uleb128 0
 4307 200b 5F5F4445 		.ascii "__DEC32_MANT_DIG__ 7\0"
 4307      4333325F 
 4307      4D414E54 
 4307      5F444947 
 4307      5F5F2037 
 4308 2020 01       		.byte	0x1
 4309 2021 00       		.uleb128 0
 4310 2022 5F5F4445 		.ascii "__DEC32_MIN_EXP__ (-94)\0"
 4310      4333325F 
 4310      4D494E5F 
 4310      4558505F 
 4310      5F20282D 
 4311 203a 01       		.byte	0x1
 4312 203b 00       		.uleb128 0
 4313 203c 5F5F4445 		.ascii "__DEC32_MAX_EXP__ 97\0"
 4313      4333325F 
 4313      4D41585F 
 4313      4558505F 
 4313      5F203937 
 4314 2051 01       		.byte	0x1
 4315 2052 00       		.uleb128 0
 4316 2053 5F5F4445 		.ascii "__DEC32_MIN__ 1E-95DF\0"
 4316      4333325F 
 4316      4D494E5F 
 4316      5F203145 
 4316      2D393544 
 4317 2069 01       		.byte	0x1
 4318 206a 00       		.uleb128 0
 4319 206b 5F5F4445 		.ascii "__DEC32_MAX__ 9.999999E96DF\0"
 4319      4333325F 
 4319      4D41585F 
 4319      5F20392E 
 4319      39393939 
 4320 2087 01       		.byte	0x1
 4321 2088 00       		.uleb128 0
 4322 2089 5F5F4445 		.ascii "__DEC32_EPSILON__ 1E-6DF\0"
 4322      4333325F 
 4322      45505349 
 4322      4C4F4E5F 
 4322      5F203145 
 4323 20a2 01       		.byte	0x1
 4324 20a3 00       		.uleb128 0
 4325 20a4 5F5F4445 		.ascii "__DEC32_SUBNORMAL_MIN__ 0.000001E-95DF\0"
 4325      4333325F 
 4325      5355424E 
 4325      4F524D41 
 4325      4C5F4D49 
 4326 20cb 01       		.byte	0x1
 4327 20cc 00       		.uleb128 0
 4328 20cd 5F5F4445 		.ascii "__DEC64_MANT_DIG__ 16\0"
GAS LISTING C:\Users\PRESID~1\AppData\Local\Temp\ccCA8Smq.s 			page 129


 4328      4336345F 
 4328      4D414E54 
 4328      5F444947 
 4328      5F5F2031 
 4329 20e3 01       		.byte	0x1
 4330 20e4 00       		.uleb128 0
 4331 20e5 5F5F4445 		.ascii "__DEC64_MIN_EXP__ (-382)\0"
 4331      4336345F 
 4331      4D494E5F 
 4331      4558505F 
 4331      5F20282D 
 4332 20fe 01       		.byte	0x1
 4333 20ff 00       		.uleb128 0
 4334 2100 5F5F4445 		.ascii "__DEC64_MAX_EXP__ 385\0"
 4334      4336345F 
 4334      4D41585F 
 4334      4558505F 
 4334      5F203338 
 4335 2116 01       		.byte	0x1
 4336 2117 00       		.uleb128 0
 4337 2118 5F5F4445 		.ascii "__DEC64_MIN__ 1E-383DD\0"
 4337      4336345F 
 4337      4D494E5F 
 4337      5F203145 
 4337      2D333833 
 4338 212f 01       		.byte	0x1
 4339 2130 00       		.uleb128 0
 4340 2131 5F5F4445 		.ascii "__DEC64_MAX__ 9.999999999999999E384DD\0"
 4340      4336345F 
 4340      4D41585F 
 4340      5F20392E 
 4340      39393939 
 4341 2157 01       		.byte	0x1
 4342 2158 00       		.uleb128 0
 4343 2159 5F5F4445 		.ascii "__DEC64_EPSILON__ 1E-15DD\0"
 4343      4336345F 
 4343      45505349 
 4343      4C4F4E5F 
 4343      5F203145 
 4344 2173 01       		.byte	0x1
 4345 2174 00       		.uleb128 0
 4346 2175 5F5F4445 		.ascii "__DEC64_SUBNORMAL_MIN__ 0.000000000000001E-383DD\0"
 4346      4336345F 
 4346      5355424E 
 4346      4F524D41 
 4346      4C5F4D49 
 4347 21a6 01       		.byte	0x1
 4348 21a7 00       		.uleb128 0
 4349 21a8 5F5F4445 		.ascii "__DEC128_MANT_DIG__ 34\0"
 4349      43313238 
 4349      5F4D414E 
 4349      545F4449 
 4349      475F5F20 
 4350 21bf 01       		.byte	0x1
 4351 21c0 00       		.uleb128 0
 4352 21c1 5F5F4445 		.ascii "__DEC128_MIN_EXP__ (-6142)\0"
 4352      43313238 
GAS LISTING C:\Users\PRESID~1\AppData\Local\Temp\ccCA8Smq.s 			page 130


 4352      5F4D494E 
 4352      5F455850 
 4352      5F5F2028 
 4353 21dc 01       		.byte	0x1
 4354 21dd 00       		.uleb128 0
 4355 21de 5F5F4445 		.ascii "__DEC128_MAX_EXP__ 6145\0"
 4355      43313238 
 4355      5F4D4158 
 4355      5F455850 
 4355      5F5F2036 
 4356 21f6 01       		.byte	0x1
 4357 21f7 00       		.uleb128 0
 4358 21f8 5F5F4445 		.ascii "__DEC128_MIN__ 1E-6143DL\0"
 4358      43313238 
 4358      5F4D494E 
 4358      5F5F2031 
 4358      452D3631 
 4359 2211 01       		.byte	0x1
 4360 2212 00       		.uleb128 0
 4361 2213 5F5F4445 		.ascii "__DEC128_MAX__ 9.999999999999999999999999999999999E6144DL\0"
 4361      43313238 
 4361      5F4D4158 
 4361      5F5F2039 
 4361      2E393939 
 4362 224d 01       		.byte	0x1
 4363 224e 00       		.uleb128 0
 4364 224f 5F5F4445 		.ascii "__DEC128_EPSILON__ 1E-33DL\0"
 4364      43313238 
 4364      5F455053 
 4364      494C4F4E 
 4364      5F5F2031 
 4365 226a 01       		.byte	0x1
 4366 226b 00       		.uleb128 0
 4367 226c 5F5F4445 		.ascii "__DEC128_SUBNORMAL_MIN__ 0.000000000000000000000000000000001E-6143DL\0"
 4367      43313238 
 4367      5F535542 
 4367      4E4F524D 
 4367      414C5F4D 
 4368 22b1 01       		.byte	0x1
 4369 22b2 00       		.uleb128 0
 4370 22b3 5F5F5245 		.ascii "__REGISTER_PREFIX__ \0"
 4370      47495354 
 4370      45525F50 
 4370      52454649 
 4370      585F5F20 
 4371 22c8 01       		.byte	0x1
 4372 22c9 00       		.uleb128 0
 4373 22ca 5F5F5553 		.ascii "__USER_LABEL_PREFIX__ _\0"
 4373      45525F4C 
 4373      4142454C 
 4373      5F505245 
 4373      4649585F 
 4374 22e2 01       		.byte	0x1
 4375 22e3 00       		.uleb128 0
 4376 22e4 5F5F474E 		.ascii "__GNUC_GNU_INLINE__ 1\0"
 4376      55435F47 
 4376      4E555F49 
GAS LISTING C:\Users\PRESID~1\AppData\Local\Temp\ccCA8Smq.s 			page 131


 4376      4E4C494E 
 4376      455F5F20 
 4377 22fa 01       		.byte	0x1
 4378 22fb 00       		.uleb128 0
 4379 22fc 5F5F4E4F 		.ascii "__NO_INLINE__ 1\0"
 4379      5F494E4C 
 4379      494E455F 
 4379      5F203100 
 4380 230c 01       		.byte	0x1
 4381 230d 00       		.uleb128 0
 4382 230e 5F5F5354 		.ascii "__STRICT_ANSI__ 1\0"
 4382      52494354 
 4382      5F414E53 
 4382      495F5F20 
 4382      3100
 4383 2320 01       		.byte	0x1
 4384 2321 00       		.uleb128 0
 4385 2322 5F5F4743 		.ascii "__GCC_ATOMIC_BOOL_LOCK_FREE 1\0"
 4385      435F4154 
 4385      4F4D4943 
 4385      5F424F4F 
 4385      4C5F4C4F 
 4386 2340 01       		.byte	0x1
 4387 2341 00       		.uleb128 0
 4388 2342 5F5F4743 		.ascii "__GCC_ATOMIC_CHAR_LOCK_FREE 1\0"
 4388      435F4154 
 4388      4F4D4943 
 4388      5F434841 
 4388      525F4C4F 
 4389 2360 01       		.byte	0x1
 4390 2361 00       		.uleb128 0
 4391 2362 5F5F4743 		.ascii "__GCC_ATOMIC_CHAR16_T_LOCK_FREE 1\0"
 4391      435F4154 
 4391      4F4D4943 
 4391      5F434841 
 4391      5231365F 
 4392 2384 01       		.byte	0x1
 4393 2385 00       		.uleb128 0
 4394 2386 5F5F4743 		.ascii "__GCC_ATOMIC_CHAR32_T_LOCK_FREE 1\0"
 4394      435F4154 
 4394      4F4D4943 
 4394      5F434841 
 4394      5233325F 
 4395 23a8 01       		.byte	0x1
 4396 23a9 00       		.uleb128 0
 4397 23aa 5F5F4743 		.ascii "__GCC_ATOMIC_WCHAR_T_LOCK_FREE 1\0"
 4397      435F4154 
 4397      4F4D4943 
 4397      5F574348 
 4397      41525F54 
 4398 23cb 01       		.byte	0x1
 4399 23cc 00       		.uleb128 0
 4400 23cd 5F5F4743 		.ascii "__GCC_ATOMIC_SHORT_LOCK_FREE 1\0"
 4400      435F4154 
 4400      4F4D4943 
 4400      5F53484F 
 4400      52545F4C 
GAS LISTING C:\Users\PRESID~1\AppData\Local\Temp\ccCA8Smq.s 			page 132


 4401 23ec 01       		.byte	0x1
 4402 23ed 00       		.uleb128 0
 4403 23ee 5F5F4743 		.ascii "__GCC_ATOMIC_INT_LOCK_FREE 1\0"
 4403      435F4154 
 4403      4F4D4943 
 4403      5F494E54 
 4403      5F4C4F43 
 4404 240b 01       		.byte	0x1
 4405 240c 00       		.uleb128 0
 4406 240d 5F5F4743 		.ascii "__GCC_ATOMIC_LONG_LOCK_FREE 1\0"
 4406      435F4154 
 4406      4F4D4943 
 4406      5F4C4F4E 
 4406      475F4C4F 
 4407 242b 01       		.byte	0x1
 4408 242c 00       		.uleb128 0
 4409 242d 5F5F4743 		.ascii "__GCC_ATOMIC_LLONG_LOCK_FREE 1\0"
 4409      435F4154 
 4409      4F4D4943 
 4409      5F4C4C4F 
 4409      4E475F4C 
 4410 244c 01       		.byte	0x1
 4411 244d 00       		.uleb128 0
 4412 244e 5F5F4743 		.ascii "__GCC_ATOMIC_TEST_AND_SET_TRUEVAL 1\0"
 4412      435F4154 
 4412      4F4D4943 
 4412      5F544553 
 4412      545F414E 
 4413 2472 01       		.byte	0x1
 4414 2473 00       		.uleb128 0
 4415 2474 5F5F4743 		.ascii "__GCC_ATOMIC_POINTER_LOCK_FREE 1\0"
 4415      435F4154 
 4415      4F4D4943 
 4415      5F504F49 
 4415      4E544552 
 4416 2495 01       		.byte	0x1
 4417 2496 00       		.uleb128 0
 4418 2497 5F5F4743 		.ascii "__GCC_HAVE_DWARF2_CFI_ASM 1\0"
 4418      435F4841 
 4418      56455F44 
 4418      57415246 
 4418      325F4346 
 4419 24b3 01       		.byte	0x1
 4420 24b4 00       		.uleb128 0
 4421 24b5 5F5F5052 		.ascii "__PRAGMA_REDEFINE_EXTNAME 1\0"
 4421      41474D41 
 4421      5F524544 
 4421      4546494E 
 4421      455F4558 
 4422 24d1 01       		.byte	0x1
 4423 24d2 00       		.uleb128 0
 4424 24d3 5F5F5349 		.ascii "__SIZEOF_WCHAR_T__ 2\0"
 4424      5A454F46 
 4424      5F574348 
 4424      41525F54 
 4424      5F5F2032 
 4425 24e8 01       		.byte	0x1
GAS LISTING C:\Users\PRESID~1\AppData\Local\Temp\ccCA8Smq.s 			page 133


 4426 24e9 00       		.uleb128 0
 4427 24ea 5F5F5349 		.ascii "__SIZEOF_WINT_T__ 2\0"
 4427      5A454F46 
 4427      5F57494E 
 4427      545F545F 
 4427      5F203200 
 4428 24fe 01       		.byte	0x1
 4429 24ff 00       		.uleb128 0
 4430 2500 5F5F5349 		.ascii "__SIZEOF_PTRDIFF_T__ 4\0"
 4430      5A454F46 
 4430      5F505452 
 4430      44494646 
 4430      5F545F5F 
 4431 2517 01       		.byte	0x1
 4432 2518 00       		.uleb128 0
 4433 2519 5F5F6933 		.ascii "__i386 1\0"
 4433      38362031 
 4433      00
 4434 2522 01       		.byte	0x1
 4435 2523 00       		.uleb128 0
 4436 2524 5F5F6933 		.ascii "__i386__ 1\0"
 4436      38365F5F 
 4436      203100
 4437 252f 01       		.byte	0x1
 4438 2530 00       		.uleb128 0
 4439 2531 5F5F5349 		.ascii "__SIZEOF_FLOAT80__ 12\0"
 4439      5A454F46 
 4439      5F464C4F 
 4439      41543830 
 4439      5F5F2031 
 4440 2547 01       		.byte	0x1
 4441 2548 00       		.uleb128 0
 4442 2549 5F5F5349 		.ascii "__SIZEOF_FLOAT128__ 16\0"
 4442      5A454F46 
 4442      5F464C4F 
 4442      41543132 
 4442      385F5F20 
 4443 2560 01       		.byte	0x1
 4444 2561 00       		.uleb128 0
 4445 2562 5F5F4154 		.ascii "__ATOMIC_HLE_ACQUIRE 65536\0"
 4445      4F4D4943 
 4445      5F484C45 
 4445      5F414351 
 4445      55495245 
 4446 257d 01       		.byte	0x1
 4447 257e 00       		.uleb128 0
 4448 257f 5F5F4154 		.ascii "__ATOMIC_HLE_RELEASE 131072\0"
 4448      4F4D4943 
 4448      5F484C45 
 4448      5F52454C 
 4448      45415345 
 4449 259b 01       		.byte	0x1
 4450 259c 00       		.uleb128 0
 4451 259d 5F5F4743 		.ascii "__GCC_ASM_FLAG_OUTPUTS__ 1\0"
 4451      435F4153 
 4451      4D5F464C 
 4451      41475F4F 
GAS LISTING C:\Users\PRESID~1\AppData\Local\Temp\ccCA8Smq.s 			page 134


 4451      55545055 
 4452 25b8 01       		.byte	0x1
 4453 25b9 00       		.uleb128 0
 4454 25ba 5F5F7475 		.ascii "__tune_i386__ 1\0"
 4454      6E655F69 
 4454      3338365F 
 4454      5F203100 
 4455 25ca 01       		.byte	0x1
 4456 25cb 00       		.uleb128 0
 4457 25cc 5F5F636F 		.ascii "__code_model_32__ 1\0"
 4457      64655F6D 
 4457      6F64656C 
 4457      5F33325F 
 4457      5F203100 
 4458 25e0 01       		.byte	0x1
 4459 25e1 00       		.uleb128 0
 4460 25e2 5F5F5345 		.ascii "__SEG_FS 1\0"
 4460      475F4653 
 4460      203100
 4461 25ed 01       		.byte	0x1
 4462 25ee 00       		.uleb128 0
 4463 25ef 5F5F5345 		.ascii "__SEG_GS 1\0"
 4463      475F4753 
 4463      203100
 4464 25fa 01       		.byte	0x1
 4465 25fb 00       		.uleb128 0
 4466 25fc 5F583836 		.ascii "_X86_ 1\0"
 4466      5F203100 
 4467 2604 01       		.byte	0x1
 4468 2605 00       		.uleb128 0
 4469 2606 5F5F7374 		.ascii "__stdcall __attribute__((__stdcall__))\0"
 4469      6463616C 
 4469      6C205F5F 
 4469      61747472 
 4469      69627574 
 4470 262d 01       		.byte	0x1
 4471 262e 00       		.uleb128 0
 4472 262f 5F5F6661 		.ascii "__fastcall __attribute__((__fastcall__))\0"
 4472      73746361 
 4472      6C6C205F 
 4472      5F617474 
 4472      72696275 
 4473 2658 01       		.byte	0x1
 4474 2659 00       		.uleb128 0
 4475 265a 5F5F7468 		.ascii "__thiscall __attribute__((__thiscall__))\0"
 4475      69736361 
 4475      6C6C205F 
 4475      5F617474 
 4475      72696275 
 4476 2683 01       		.byte	0x1
 4477 2684 00       		.uleb128 0
 4478 2685 5F5F6364 		.ascii "__cdecl __attribute__((__cdecl__))\0"
 4478      65636C20 
 4478      5F5F6174 
 4478      74726962 
 4478      7574655F 
 4479 26a8 01       		.byte	0x1
GAS LISTING C:\Users\PRESID~1\AppData\Local\Temp\ccCA8Smq.s 			page 135


 4480 26a9 00       		.uleb128 0
 4481 26aa 5F5F4758 		.ascii "__GXX_MERGED_TYPEINFO_NAMES 0\0"
 4481      585F4D45 
 4481      52474544 
 4481      5F545950 
 4481      45494E46 
 4482 26c8 01       		.byte	0x1
 4483 26c9 00       		.uleb128 0
 4484 26ca 5F5F4758 		.ascii "__GXX_TYPEINFO_EQUALITY_INLINE 0\0"
 4484      585F5459 
 4484      5045494E 
 4484      464F5F45 
 4484      5155414C 
 4485 26eb 01       		.byte	0x1
 4486 26ec 00       		.uleb128 0
 4487 26ed 5F5F4D53 		.ascii "__MSVCRT__ 1\0"
 4487      56435254 
 4487      5F5F2031 
 4487      00
 4488 26fa 01       		.byte	0x1
 4489 26fb 00       		.uleb128 0
 4490 26fc 5F5F4D49 		.ascii "__MINGW32__ 1\0"
 4490      4E475733 
 4490      325F5F20 
 4490      3100
 4491 270a 01       		.byte	0x1
 4492 270b 00       		.uleb128 0
 4493 270c 5F57494E 		.ascii "_WIN32 1\0"
 4493      33322031 
 4493      00
 4494 2715 01       		.byte	0x1
 4495 2716 00       		.uleb128 0
 4496 2717 5F5F5749 		.ascii "__WIN32 1\0"
 4496      4E333220 
 4496      3100
 4497 2721 01       		.byte	0x1
 4498 2722 00       		.uleb128 0
 4499 2723 5F5F5749 		.ascii "__WIN32__ 1\0"
 4499      4E33325F 
 4499      5F203100 
 4500 272f 01       		.byte	0x1
 4501 2730 00       		.uleb128 0
 4502 2731 5F5F5749 		.ascii "__WINNT 1\0"
 4502      4E4E5420 
 4502      3100
 4503 273b 01       		.byte	0x1
 4504 273c 00       		.uleb128 0
 4505 273d 5F5F5749 		.ascii "__WINNT__ 1\0"
 4505      4E4E545F 
 4505      5F203100 
 4506 2749 01       		.byte	0x1
 4507 274a 00       		.uleb128 0
 4508 274b 5F494E54 		.ascii "_INTEGRAL_MAX_BITS 64\0"
 4508      45475241 
 4508      4C5F4D41 
 4508      585F4249 
 4508      54532036 
GAS LISTING C:\Users\PRESID~1\AppData\Local\Temp\ccCA8Smq.s 			page 136


 4509 2761 01       		.byte	0x1
 4510 2762 00       		.uleb128 0
 4511 2763 5F5F6465 		.ascii "__declspec(x) __attribute__((x))\0"
 4511      636C7370 
 4511      65632878 
 4511      29205F5F 
 4511      61747472 
 4512 2784 01       		.byte	0x1
 4513 2785 00       		.uleb128 0
 4514 2786 5F5F4445 		.ascii "__DECIMAL_BID_FORMAT__ 1\0"
 4514      43494D41 
 4514      4C5F4249 
 4514      445F464F 
 4514      524D4154 
 4515 279f 01       		.byte	0x1
 4516 27a0 00       		.uleb128 0
 4517 27a1 4346475F 		.ascii "CFG_PROCESSOR 3\0"
 4517      50524F43 
 4517      4553534F 
 4517      52203300 
 4518 27b1 03       		.byte	0x3
 4519 27b2 00       		.uleb128 0
 4520 27b3 02       		.uleb128 0x2
 4521 27b4 03       		.byte	0x3
 4522 27b5 01       		.uleb128 0x1
 4523 27b6 01       		.uleb128 0x1
 4524 27b7 01       		.byte	0x1
 4525 27b8 32       		.uleb128 0x32
 4526 27b9 5F535444 		.ascii "_STDIO_H \0"
 4526      494F5F48 
 4526      2000
 4527              		.file 7 "c:/program/mingw/include/_mingw.h"
 4528 27c3 03       		.byte	0x3
 4529 27c4 37       		.uleb128 0x37
 4530 27c5 07       		.uleb128 0x7
 4531 27c6 01       		.byte	0x1
 4532 27c7 22       		.uleb128 0x22
 4533 27c8 5F5F4D49 		.ascii "__MINGW_H \0"
 4533      4E47575F 
 4533      482000
 4534 27d3 01       		.byte	0x1
 4535 27d4 31       		.uleb128 0x31
 4536 27d5 5F5F4D49 		.ascii "__MINGW32_VERSION 5002002L\0"
 4536      4E475733 
 4536      325F5645 
 4536      5253494F 
 4536      4E203530 
 4537 27f0 01       		.byte	0x1
 4538 27f1 32       		.uleb128 0x32
 4539 27f2 5F5F4D49 		.ascii "__MINGW32_MAJOR_VERSION 5\0"
 4539      4E475733 
 4539      325F4D41 
 4539      4A4F525F 
 4539      56455253 
 4540 280c 01       		.byte	0x1
 4541 280d 33       		.uleb128 0x33
 4542 280e 5F5F4D49 		.ascii "__MINGW32_MINOR_VERSION 2\0"
GAS LISTING C:\Users\PRESID~1\AppData\Local\Temp\ccCA8Smq.s 			page 137


 4542      4E475733 
 4542      325F4D49 
 4542      4E4F525F 
 4542      56455253 
 4543 2828 01       		.byte	0x1
 4544 2829 34       		.uleb128 0x34
 4545 282a 5F5F4D49 		.ascii "__MINGW32_PATCHLEVEL 2\0"
 4545      4E475733 
 4545      325F5041 
 4545      5443484C 
 4545      4556454C 
 4546              		.file 8 "c:/program/mingw/include/msvcrtver.h"
 4547 2841 03       		.byte	0x3
 4548 2842 42       		.uleb128 0x42
 4549 2843 08       		.uleb128 0x8
 4550 2844 01       		.byte	0x1
 4551 2845 22       		.uleb128 0x22
 4552 2846 5F4D5356 		.ascii "_MSVCRTVER_H \0"
 4552      43525456 
 4552      45525F48 
 4552      2000
 4553 2854 01       		.byte	0x1
 4554 2855 2A       		.uleb128 0x2a
 4555 2856 5F5F4D53 		.ascii "__MSVCR60_DLL 0x0600\0"
 4555      56435236 
 4555      305F444C 
 4555      4C203078 
 4555      30363030 
 4556 286b 01       		.byte	0x1
 4557 286c 2B       		.uleb128 0x2b
 4558 286d 5F5F4D53 		.ascii "__MSVCR61_DLL 0x0601\0"
 4558      56435236 
 4558      315F444C 
 4558      4C203078 
 4558      30363031 
 4559 2882 01       		.byte	0x1
 4560 2883 2C       		.uleb128 0x2c
 4561 2884 5F5F4D53 		.ascii "__MSVCR70_DLL 0x0700\0"
 4561      56435237 
 4561      305F444C 
 4561      4C203078 
 4561      30373030 
 4562 2899 01       		.byte	0x1
 4563 289a 2D       		.uleb128 0x2d
 4564 289b 5F5F4D53 		.ascii "__MSVCR71_DLL 0x0701\0"
 4564      56435237 
 4564      315F444C 
 4564      4C203078 
 4564      30373031 
 4565 28b0 01       		.byte	0x1
 4566 28b1 2E       		.uleb128 0x2e
 4567 28b2 5F5F4D53 		.ascii "__MSVCR80_DLL 0x0800\0"
 4567      56435238 
 4567      305F444C 
 4567      4C203078 
 4567      30383030 
 4568 28c7 01       		.byte	0x1
GAS LISTING C:\Users\PRESID~1\AppData\Local\Temp\ccCA8Smq.s 			page 138


 4569 28c8 2F       		.uleb128 0x2f
 4570 28c9 5F5F4D53 		.ascii "__MSVCR90_DLL 0x0900\0"
 4570      56435239 
 4570      305F444C 
 4570      4C203078 
 4570      30393030 
 4571 28de 01       		.byte	0x1
 4572 28df 30       		.uleb128 0x30
 4573 28e0 5F5F4D53 		.ascii "__MSVCR100_DLL 0x1000\0"
 4573      56435231 
 4573      30305F44 
 4573      4C4C2030 
 4573      78313030 
 4574 28f6 01       		.byte	0x1
 4575 28f7 31       		.uleb128 0x31
 4576 28f8 5F5F4D53 		.ascii "__MSVCR110_DLL 0x1100\0"
 4576      56435231 
 4576      31305F44 
 4576      4C4C2030 
 4576      78313130 
 4577 290e 01       		.byte	0x1
 4578 290f 32       		.uleb128 0x32
 4579 2910 5F5F4D53 		.ascii "__MSVCR120_DLL 0x1200\0"
 4579      56435231 
 4579      32305F44 
 4579      4C4C2030 
 4579      78313230 
 4580 2926 01       		.byte	0x1
 4581 2927 44       		.uleb128 0x44
 4582 2928 5F5F4D53 		.ascii "__MSVCRT_VERSION__ __MSVCR60_DLL\0"
 4582      56435254 
 4582      5F564552 
 4582      53494F4E 
 4582      5F5F205F 
 4583 2949 04       		.byte	0x4
 4584              		.file 9 "c:/program/mingw/include/w32api.h"
 4585 294a 03       		.byte	0x3
 4586 294b 49       		.uleb128 0x49
 4587 294c 09       		.uleb128 0x9
 4588 294d 01       		.byte	0x1
 4589 294e 22       		.uleb128 0x22
 4590 294f 5F573332 		.ascii "_W32API_H \0"
 4590      4150495F 
 4590      482000
 4591 295a 01       		.byte	0x1
 4592 295b 33       		.uleb128 0x33
 4593 295c 5F5F5733 		.ascii "__W32API_VERSION 5002002L\0"
 4593      32415049 
 4593      5F564552 
 4593      53494F4E 
 4593      20353030 
 4594 2976 01       		.byte	0x1
 4595 2977 34       		.uleb128 0x34
 4596 2978 5F5F5733 		.ascii "__W32API_MAJOR_VERSION 5\0"
 4596      32415049 
 4596      5F4D414A 
 4596      4F525F56 
GAS LISTING C:\Users\PRESID~1\AppData\Local\Temp\ccCA8Smq.s 			page 139


 4596      45525349 
 4597 2991 01       		.byte	0x1
 4598 2992 35       		.uleb128 0x35
 4599 2993 5F5F5733 		.ascii "__W32API_MINOR_VERSION 2\0"
 4599      32415049 
 4599      5F4D494E 
 4599      4F525F56 
 4599      45525349 
 4600 29ac 01       		.byte	0x1
 4601 29ad 36       		.uleb128 0x36
 4602 29ae 5F5F5733 		.ascii "__W32API_PATCHLEVEL 2\0"
 4602      32415049 
 4602      5F504154 
 4602      43484C45 
 4602      56454C20 
 4603              		.file 10 "c:/program/mingw/include/sdkddkver.h"
 4604 29c4 03       		.byte	0x3
 4605 29c5 3B       		.uleb128 0x3b
 4606 29c6 0A       		.uleb128 0xa
 4607 29c7 01       		.byte	0x1
 4608 29c8 22       		.uleb128 0x22
 4609 29c9 5F53444B 		.ascii "_SDKDDKVER_H \0"
 4609      44444B56 
 4609      45525F48 
 4609      2000
 4610 29d7 01       		.byte	0x1
 4611 29d8 29       		.uleb128 0x29
 4612 29d9 4F535645 		.ascii "OSVERSION_MASK 0xFFFF0000\0"
 4612      5253494F 
 4612      4E5F4D41 
 4612      534B2030 
 4612      78464646 
 4613 29f3 01       		.byte	0x1
 4614 29f4 2A       		.uleb128 0x2a
 4615 29f5 53505645 		.ascii "SPVERSION_MASK 0x0000FF00\0"
 4615      5253494F 
 4615      4E5F4D41 
 4615      534B2030 
 4615      78303030 
 4616 2a0f 01       		.byte	0x1
 4617 2a10 2B       		.uleb128 0x2b
 4618 2a11 53554256 		.ascii "SUBVERSION_MASK 0x000000FF\0"
 4618      45525349 
 4618      4F4E5F4D 
 4618      41534B20 
 4618      30783030 
 4619 2a2c 01       		.byte	0x1
 4620 2a2d 30       		.uleb128 0x30
 4621 2a2e 4F535645 		.ascii "OSVER(ver) ((ver) & OSVERSION_MASK)\0"
 4621      52287665 
 4621      72292028 
 4621      28766572 
 4621      29202620 
 4622 2a52 01       		.byte	0x1
 4623 2a53 31       		.uleb128 0x31
 4624 2a54 53505645 		.ascii "SPVER(ver) (((ver) & SPVERSION_MASK) >> 8)\0"
 4624      52287665 
GAS LISTING C:\Users\PRESID~1\AppData\Local\Temp\ccCA8Smq.s 			page 140


 4624      72292028 
 4624      28287665 
 4624      72292026 
 4625 2a7f 01       		.byte	0x1
 4626 2a80 32       		.uleb128 0x32
 4627 2a81 53554256 		.ascii "SUBVER(ver) ((ver) & SUBVERSION_MASK)\0"
 4627      45522876 
 4627      65722920 
 4627      28287665 
 4627      72292026 
 4628 2aa7 01       		.byte	0x1
 4629 2aa8 33       		.uleb128 0x33
 4630 2aa9 57494E4E 		.ascii "WINNTVER(ver) ((ver) >> 16)\0"
 4630      54564552 
 4630      28766572 
 4630      29202828 
 4630      76657229 
 4631 2ac5 01       		.byte	0x1
 4632 2ac6 37       		.uleb128 0x37
 4633 2ac7 4E544444 		.ascii "NTDDI_VERSION_FROM_WIN32_WINNT(ver) _NTDDI_VERSION_FROM_WIN32_WINNT(ver)\0"
 4633      495F5645 
 4633      5253494F 
 4633      4E5F4652 
 4633      4F4D5F57 
 4634 2b10 01       		.byte	0x1
 4635 2b11 38       		.uleb128 0x38
 4636 2b12 5F4E5444 		.ascii "_NTDDI_VERSION_FROM_WIN32_WINNT(ver) ver ##0000\0"
 4636      44495F56 
 4636      45525349 
 4636      4F4E5F46 
 4636      524F4D5F 
 4637 2b42 01       		.byte	0x1
 4638 2b43 3E       		.uleb128 0x3e
 4639 2b44 5F57494E 		.ascii "_WIN32_WINNT_NT4 0x0400\0"
 4639      33325F57 
 4639      494E4E54 
 4639      5F4E5434 
 4639      20307830 
 4640 2b5c 01       		.byte	0x1
 4641 2b5d 3F       		.uleb128 0x3f
 4642 2b5e 5F57494E 		.ascii "_WIN32_WINNT_NT4E 0x0401\0"
 4642      33325F57 
 4642      494E4E54 
 4642      5F4E5434 
 4642      45203078 
 4643 2b77 01       		.byte	0x1
 4644 2b78 40       		.uleb128 0x40
 4645 2b79 5F57494E 		.ascii "_WIN32_WINNT_NT4SP3 0x0403\0"
 4645      33325F57 
 4645      494E4E54 
 4645      5F4E5434 
 4645      53503320 
 4646 2b94 01       		.byte	0x1
 4647 2b95 41       		.uleb128 0x41
 4648 2b96 5F57494E 		.ascii "_WIN32_WINDOWS_95 0x0400\0"
 4648      33325F57 
 4648      494E444F 
GAS LISTING C:\Users\PRESID~1\AppData\Local\Temp\ccCA8Smq.s 			page 141


 4648      57535F39 
 4648      35203078 
 4649 2baf 01       		.byte	0x1
 4650 2bb0 42       		.uleb128 0x42
 4651 2bb1 5F57494E 		.ascii "_WIN32_WINDOWS_98 0x0410\0"
 4651      33325F57 
 4651      494E444F 
 4651      57535F39 
 4651      38203078 
 4652 2bca 01       		.byte	0x1
 4653 2bcb 43       		.uleb128 0x43
 4654 2bcc 5F57494E 		.ascii "_WIN32_WINDOWS_ME 0x0490\0"
 4654      33325F57 
 4654      494E444F 
 4654      57535F4D 
 4654      45203078 
 4655 2be5 01       		.byte	0x1
 4656 2be6 44       		.uleb128 0x44
 4657 2be7 5F57494E 		.ascii "_WIN32_WINNT_WIN2K 0x0500\0"
 4657      33325F57 
 4657      494E4E54 
 4657      5F57494E 
 4657      324B2030 
 4658 2c01 01       		.byte	0x1
 4659 2c02 45       		.uleb128 0x45
 4660 2c03 5F57494E 		.ascii "_WIN32_WINNT_WINXP 0x0501\0"
 4660      33325F57 
 4660      494E4E54 
 4660      5F57494E 
 4660      58502030 
 4661 2c1d 01       		.byte	0x1
 4662 2c1e 46       		.uleb128 0x46
 4663 2c1f 5F57494E 		.ascii "_WIN32_WINNT_WS03 0x0502\0"
 4663      33325F57 
 4663      494E4E54 
 4663      5F575330 
 4663      33203078 
 4664 2c38 01       		.byte	0x1
 4665 2c39 47       		.uleb128 0x47
 4666 2c3a 5F57494E 		.ascii "_WIN32_WINNT_WIN6 0x0600\0"
 4666      33325F57 
 4666      494E4E54 
 4666      5F57494E 
 4666      36203078 
 4667 2c53 01       		.byte	0x1
 4668 2c54 48       		.uleb128 0x48
 4669 2c55 5F57494E 		.ascii "_WIN32_WINNT_VISTA 0x0600\0"
 4669      33325F57 
 4669      494E4E54 
 4669      5F564953 
 4669      54412030 
 4670 2c6f 01       		.byte	0x1
 4671 2c70 49       		.uleb128 0x49
 4672 2c71 5F57494E 		.ascii "_WIN32_WINNT_WS08 0x0600\0"
 4672      33325F57 
 4672      494E4E54 
 4672      5F575330 
GAS LISTING C:\Users\PRESID~1\AppData\Local\Temp\ccCA8Smq.s 			page 142


 4672      38203078 
 4673 2c8a 01       		.byte	0x1
 4674 2c8b 4A       		.uleb128 0x4a
 4675 2c8c 5F57494E 		.ascii "_WIN32_WINNT_LONGHORN 0x0600\0"
 4675      33325F57 
 4675      494E4E54 
 4675      5F4C4F4E 
 4675      47484F52 
 4676 2ca9 01       		.byte	0x1
 4677 2caa 4B       		.uleb128 0x4b
 4678 2cab 5F57494E 		.ascii "_WIN32_WINNT_WIN7 0x0601\0"
 4678      33325F57 
 4678      494E4E54 
 4678      5F57494E 
 4678      37203078 
 4679 2cc4 01       		.byte	0x1
 4680 2cc5 4C       		.uleb128 0x4c
 4681 2cc6 5F57494E 		.ascii "_WIN32_WINNT_WIN8 0x0602\0"
 4681      33325F57 
 4681      494E4E54 
 4681      5F57494E 
 4681      38203078 
 4682 2cdf 01       		.byte	0x1
 4683 2ce0 4D       		.uleb128 0x4d
 4684 2ce1 5F57494E 		.ascii "_WIN32_WINNT_WINBLUE 0x0603\0"
 4684      33325F57 
 4684      494E4E54 
 4684      5F57494E 
 4684      424C5545 
 4685 2cfd 01       		.byte	0x1
 4686 2cfe 52       		.uleb128 0x52
 4687 2cff 5F57494E 		.ascii "_WIN32_IE_IE50 0x0500\0"
 4687      33325F49 
 4687      455F4945 
 4687      35302030 
 4687      78303530 
 4688 2d15 01       		.byte	0x1
 4689 2d16 53       		.uleb128 0x53
 4690 2d17 5F57494E 		.ascii "_WIN32_IE_IE501 0x0501\0"
 4690      33325F49 
 4690      455F4945 
 4690      35303120 
 4690      30783035 
 4691 2d2e 01       		.byte	0x1
 4692 2d2f 54       		.uleb128 0x54
 4693 2d30 5F57494E 		.ascii "_WIN32_IE_IE55 0x0550\0"
 4693      33325F49 
 4693      455F4945 
 4693      35352030 
 4693      78303535 
 4694 2d46 01       		.byte	0x1
 4695 2d47 55       		.uleb128 0x55
 4696 2d48 5F57494E 		.ascii "_WIN32_IE_IE56 0x0560\0"
 4696      33325F49 
 4696      455F4945 
 4696      35362030 
 4696      78303536 
GAS LISTING C:\Users\PRESID~1\AppData\Local\Temp\ccCA8Smq.s 			page 143


 4697 2d5e 01       		.byte	0x1
 4698 2d5f 56       		.uleb128 0x56
 4699 2d60 5F57494E 		.ascii "_WIN32_IE_IE60 0x0600\0"
 4699      33325F49 
 4699      455F4945 
 4699      36302030 
 4699      78303630 
 4700 2d76 01       		.byte	0x1
 4701 2d77 57       		.uleb128 0x57
 4702 2d78 5F57494E 		.ascii "_WIN32_IE_IE60SP1 0x0601\0"
 4702      33325F49 
 4702      455F4945 
 4702      36305350 
 4702      31203078 
 4703 2d91 01       		.byte	0x1
 4704 2d92 58       		.uleb128 0x58
 4705 2d93 5F57494E 		.ascii "_WIN32_IE_IE60SP2 0x0603\0"
 4705      33325F49 
 4705      455F4945 
 4705      36305350 
 4705      32203078 
 4706 2dac 01       		.byte	0x1
 4707 2dad 59       		.uleb128 0x59
 4708 2dae 5F57494E 		.ascii "_WIN32_IE_IE70 0x0700\0"
 4708      33325F49 
 4708      455F4945 
 4708      37302030 
 4708      78303730 
 4709 2dc4 01       		.byte	0x1
 4710 2dc5 5A       		.uleb128 0x5a
 4711 2dc6 5F57494E 		.ascii "_WIN32_IE_IE80 0x0800\0"
 4711      33325F49 
 4711      455F4945 
 4711      38302030 
 4711      78303830 
 4712 2ddc 01       		.byte	0x1
 4713 2ddd 5C       		.uleb128 0x5c
 4714 2dde 5F57494E 		.ascii "_WIN32_IE_IE30 0x0300\0"
 4714      33325F49 
 4714      455F4945 
 4714      33302030 
 4714      78303330 
 4715 2df4 01       		.byte	0x1
 4716 2df5 5D       		.uleb128 0x5d
 4717 2df6 5F57494E 		.ascii "_WIN32_IE_IE301 0x0301\0"
 4717      33325F49 
 4717      455F4945 
 4717      33303120 
 4717      30783033 
 4718 2e0d 01       		.byte	0x1
 4719 2e0e 5E       		.uleb128 0x5e
 4720 2e0f 5F57494E 		.ascii "_WIN32_IE_IE302 0x0302\0"
 4720      33325F49 
 4720      455F4945 
 4720      33303220 
 4720      30783033 
 4721 2e26 01       		.byte	0x1
GAS LISTING C:\Users\PRESID~1\AppData\Local\Temp\ccCA8Smq.s 			page 144


 4722 2e27 5F       		.uleb128 0x5f
 4723 2e28 5F57494E 		.ascii "_WIN32_IE_IE40 0x0400\0"
 4723      33325F49 
 4723      455F4945 
 4723      34302030 
 4723      78303430 
 4724 2e3e 01       		.byte	0x1
 4725 2e3f 60       		.uleb128 0x60
 4726 2e40 5F57494E 		.ascii "_WIN32_IE_IE401 0x0401\0"
 4726      33325F49 
 4726      455F4945 
 4726      34303120 
 4726      30783034 
 4727 2e57 01       		.byte	0x1
 4728 2e58 65       		.uleb128 0x65
 4729 2e59 5F5F4E54 		.ascii "__NTDDI_WIN5 0x05000000\0"
 4729      4444495F 
 4729      57494E35 
 4729      20307830 
 4729      35303030 
 4730 2e71 01       		.byte	0x1
 4731 2e72 66       		.uleb128 0x66
 4732 2e73 5F5F4E54 		.ascii "__NTDDI_WIN51 0x05010000\0"
 4732      4444495F 
 4732      57494E35 
 4732      31203078 
 4732      30353031 
 4733 2e8c 01       		.byte	0x1
 4734 2e8d 67       		.uleb128 0x67
 4735 2e8e 5F5F4E54 		.ascii "__NTDDI_WIN52 0x05020000\0"
 4735      4444495F 
 4735      57494E35 
 4735      32203078 
 4735      30353032 
 4736 2ea7 01       		.byte	0x1
 4737 2ea8 68       		.uleb128 0x68
 4738 2ea9 5F5F4E54 		.ascii "__NTDDI_WIN6 0x06000000\0"
 4738      4444495F 
 4738      57494E36 
 4738      20307830 
 4738      36303030 
 4739 2ec1 01       		.byte	0x1
 4740 2ec2 69       		.uleb128 0x69
 4741 2ec3 5F5F4E54 		.ascii "__NTDDI_WIN61 0x06010000\0"
 4741      4444495F 
 4741      57494E36 
 4741      31203078 
 4741      30363031 
 4742 2edc 01       		.byte	0x1
 4743 2edd 6A       		.uleb128 0x6a
 4744 2ede 5F5F4E54 		.ascii "__NTDDI_WIN62 0x06020000\0"
 4744      4444495F 
 4744      57494E36 
 4744      32203078 
 4744      30363032 
 4745 2ef7 01       		.byte	0x1
 4746 2ef8 6B       		.uleb128 0x6b
GAS LISTING C:\Users\PRESID~1\AppData\Local\Temp\ccCA8Smq.s 			page 145


 4747 2ef9 5F5F4E54 		.ascii "__NTDDI_WIN63 0x06030000\0"
 4747      4444495F 
 4747      57494E36 
 4747      33203078 
 4747      30363033 
 4748 2f12 01       		.byte	0x1
 4749 2f13 6C       		.uleb128 0x6c
 4750 2f14 5F5F4E54 		.ascii "__NTDDI_SP0 0x00000000\0"
 4750      4444495F 
 4750      53503020 
 4750      30783030 
 4750      30303030 
 4751 2f2b 01       		.byte	0x1
 4752 2f2c 6D       		.uleb128 0x6d
 4753 2f2d 5F5F4E54 		.ascii "__NTDDI_SP1 0x00000100\0"
 4753      4444495F 
 4753      53503120 
 4753      30783030 
 4753      30303031 
 4754 2f44 01       		.byte	0x1
 4755 2f45 6E       		.uleb128 0x6e
 4756 2f46 5F5F4E54 		.ascii "__NTDDI_SP2 0x00000200\0"
 4756      4444495F 
 4756      53503220 
 4756      30783030 
 4756      30303032 
 4757 2f5d 01       		.byte	0x1
 4758 2f5e 6F       		.uleb128 0x6f
 4759 2f5f 5F5F4E54 		.ascii "__NTDDI_SP3 0x00000300\0"
 4759      4444495F 
 4759      53503320 
 4759      30783030 
 4759      30303033 
 4760 2f76 01       		.byte	0x1
 4761 2f77 70       		.uleb128 0x70
 4762 2f78 5F5F4E54 		.ascii "__NTDDI_SP4 0x00000400\0"
 4762      4444495F 
 4762      53503420 
 4762      30783030 
 4762      30303034 
 4763 2f8f 01       		.byte	0x1
 4764 2f90 72       		.uleb128 0x72
 4765 2f91 4E544444 		.ascii "NTDDI_WIN2K __NTDDI_WIN5 + __NTDDI_SP0\0"
 4765      495F5749 
 4765      4E324B20 
 4765      5F5F4E54 
 4765      4444495F 
 4766 2fb8 01       		.byte	0x1
 4767 2fb9 73       		.uleb128 0x73
 4768 2fba 4E544444 		.ascii "NTDDI_WIN2KSP1 __NTDDI_WIN5 + __NTDDI_SP1\0"
 4768      495F5749 
 4768      4E324B53 
 4768      5031205F 
 4768      5F4E5444 
 4769 2fe4 01       		.byte	0x1
 4770 2fe5 74       		.uleb128 0x74
 4771 2fe6 4E544444 		.ascii "NTDDI_WIN2KSP2 __NTDDI_WIN5 + __NTDDI_SP2\0"
GAS LISTING C:\Users\PRESID~1\AppData\Local\Temp\ccCA8Smq.s 			page 146


 4771      495F5749 
 4771      4E324B53 
 4771      5032205F 
 4771      5F4E5444 
 4772 3010 01       		.byte	0x1
 4773 3011 75       		.uleb128 0x75
 4774 3012 4E544444 		.ascii "NTDDI_WIN2KSP3 __NTDDI_WIN5 + __NTDDI_SP3\0"
 4774      495F5749 
 4774      4E324B53 
 4774      5033205F 
 4774      5F4E5444 
 4775 303c 01       		.byte	0x1
 4776 303d 76       		.uleb128 0x76
 4777 303e 4E544444 		.ascii "NTDDI_WIN2KSP4 __NTDDI_WIN5 + __NTDDI_SP4\0"
 4777      495F5749 
 4777      4E324B53 
 4777      5034205F 
 4777      5F4E5444 
 4778 3068 01       		.byte	0x1
 4779 3069 78       		.uleb128 0x78
 4780 306a 4E544444 		.ascii "NTDDI_WINXP __NTDDI_WIN51 + __NTDDI_SP0\0"
 4780      495F5749 
 4780      4E585020 
 4780      5F5F4E54 
 4780      4444495F 
 4781 3092 01       		.byte	0x1
 4782 3093 79       		.uleb128 0x79
 4783 3094 4E544444 		.ascii "NTDDI_WINXPSP1 __NTDDI_WIN51 + __NTDDI_SP1\0"
 4783      495F5749 
 4783      4E585053 
 4783      5031205F 
 4783      5F4E5444 
 4784 30bf 01       		.byte	0x1
 4785 30c0 7A       		.uleb128 0x7a
 4786 30c1 4E544444 		.ascii "NTDDI_WINXPSP2 __NTDDI_WIN51 + __NTDDI_SP2\0"
 4786      495F5749 
 4786      4E585053 
 4786      5032205F 
 4786      5F4E5444 
 4787 30ec 01       		.byte	0x1
 4788 30ed 7B       		.uleb128 0x7b
 4789 30ee 4E544444 		.ascii "NTDDI_WINXPSP3 __NTDDI_WIN51 + __NTDDI_SP3\0"
 4789      495F5749 
 4789      4E585053 
 4789      5033205F 
 4789      5F4E5444 
 4790 3119 01       		.byte	0x1
 4791 311a 7D       		.uleb128 0x7d
 4792 311b 4E544444 		.ascii "NTDDI_WS03 __NTDDI_WIN52 + __NTDDI_SP0\0"
 4792      495F5753 
 4792      3033205F 
 4792      5F4E5444 
 4792      44495F57 
 4793 3142 01       		.byte	0x1
 4794 3143 7E       		.uleb128 0x7e
 4795 3144 4E544444 		.ascii "NTDDI_WS03SP1 __NTDDI_WIN52 + __NTDDI_SP1\0"
 4795      495F5753 
GAS LISTING C:\Users\PRESID~1\AppData\Local\Temp\ccCA8Smq.s 			page 147


 4795      30335350 
 4795      31205F5F 
 4795      4E544444 
 4796 316e 01       		.byte	0x1
 4797 316f 7F       		.uleb128 0x7f
 4798 3170 4E544444 		.ascii "NTDDI_WS03SP2 __NTDDI_WIN52 + __NTDDI_SP2\0"
 4798      495F5753 
 4798      30335350 
 4798      32205F5F 
 4798      4E544444 
 4799 319a 01       		.byte	0x1
 4800 319b 8101     		.uleb128 0x81
 4801 319d 4E544444 		.ascii "NTDDI_VISTA __NTDDI_WIN6 + __NTDDI_SP0\0"
 4801      495F5649 
 4801      53544120 
 4801      5F5F4E54 
 4801      4444495F 
 4802 31c4 01       		.byte	0x1
 4803 31c5 8201     		.uleb128 0x82
 4804 31c7 4E544444 		.ascii "NTDDI_VISTASP1 __NTDDI_WIN6 + __NTDDI_SP1\0"
 4804      495F5649 
 4804      53544153 
 4804      5031205F 
 4804      5F4E5444 
 4805 31f1 01       		.byte	0x1
 4806 31f2 8301     		.uleb128 0x83
 4807 31f4 4E544444 		.ascii "NTDDI_VISTASP2 __NTDDI_WIN6 + __NTDDI_SP2\0"
 4807      495F5649 
 4807      53544153 
 4807      5032205F 
 4807      5F4E5444 
 4808 321e 01       		.byte	0x1
 4809 321f 8501     		.uleb128 0x85
 4810 3221 4E544444 		.ascii "NTDDI_LONGHORN NTDDI_VISTA\0"
 4810      495F4C4F 
 4810      4E47484F 
 4810      524E204E 
 4810      54444449 
 4811 323c 01       		.byte	0x1
 4812 323d 8701     		.uleb128 0x87
 4813 323f 4E544444 		.ascii "NTDDI_WIN6 NTDDI_VISTA\0"
 4813      495F5749 
 4813      4E36204E 
 4813      54444449 
 4813      5F564953 
 4814 3256 01       		.byte	0x1
 4815 3257 8801     		.uleb128 0x88
 4816 3259 4E544444 		.ascii "NTDDI_WIN6SP1 NTDDI_VISTASP1\0"
 4816      495F5749 
 4816      4E365350 
 4816      31204E54 
 4816      4444495F 
 4817 3276 01       		.byte	0x1
 4818 3277 8901     		.uleb128 0x89
 4819 3279 4E544444 		.ascii "NTDDI_WIN6SP2 NTDDI_VISTASP2\0"
 4819      495F5749 
 4819      4E365350 
GAS LISTING C:\Users\PRESID~1\AppData\Local\Temp\ccCA8Smq.s 			page 148


 4819      32204E54 
 4819      4444495F 
 4820 3296 01       		.byte	0x1
 4821 3297 8B01     		.uleb128 0x8b
 4822 3299 4E544444 		.ascii "NTDDI_WS08 __NTDDI_WIN6 + __NTDDI_SP1\0"
 4822      495F5753 
 4822      3038205F 
 4822      5F4E5444 
 4822      44495F57 
 4823 32bf 01       		.byte	0x1
 4824 32c0 8D01     		.uleb128 0x8d
 4825 32c2 4E544444 		.ascii "NTDDI_WIN7 __NTDDI_WIN61 + __NTDDI_SP0\0"
 4825      495F5749 
 4825      4E37205F 
 4825      5F4E5444 
 4825      44495F57 
 4826 32e9 01       		.byte	0x1
 4827 32ea 8F01     		.uleb128 0x8f
 4828 32ec 4E544444 		.ascii "NTDDI_WIN8 __NTDDI_WIN62 + __NTDDI_SP0\0"
 4828      495F5749 
 4828      4E38205F 
 4828      5F4E5444 
 4828      44495F57 
 4829 3313 01       		.byte	0x1
 4830 3314 9101     		.uleb128 0x91
 4831 3316 4E544444 		.ascii "NTDDI_WINBLUE __NTDDI_WIN63 + __NTDDI_SP0\0"
 4831      495F5749 
 4831      4E424C55 
 4831      45205F5F 
 4831      4E544444 
 4832 3340 01       		.byte	0x1
 4833 3341 B901     		.uleb128 0xb9
 4834 3343 5F57494E 		.ascii "_WIN32_WINNT _WIN32_WINNT_WIN2K\0"
 4834      33325F57 
 4834      494E4E54 
 4834      205F5749 
 4834      4E33325F 
 4835 3363 01       		.byte	0x1
 4836 3364 BE01     		.uleb128 0xbe
 4837 3366 57494E56 		.ascii "WINVER _WIN32_WINNT\0"
 4837      4552205F 
 4837      57494E33 
 4837      325F5749 
 4837      4E4E5400 
 4838 337a 01       		.byte	0x1
 4839 337b C901     		.uleb128 0xc9
 4840 337d 4E544444 		.ascii "NTDDI_VERSION NTDDI_VERSION_FROM_WIN32_WINNT(_WIN32_WINNT)\0"
 4840      495F5645 
 4840      5253494F 
 4840      4E204E54 
 4840      4444495F 
 4841 33b8 01       		.byte	0x1
 4842 33b9 D401     		.uleb128 0xd4
 4843 33bb 5F57494E 		.ascii "_WIN32_IE _WIN32_IE_IE50\0"
 4843      33325F49 
 4843      45205F57 
 4843      494E3332 
GAS LISTING C:\Users\PRESID~1\AppData\Local\Temp\ccCA8Smq.s 			page 149


 4843      5F49455F 
 4844 33d4 01       		.byte	0x1
 4845 33d5 ED01     		.uleb128 0xed
 4846 33d7 5F4D5F49 		.ascii "_M_IX86 300\0"
 4846      58383620 
 4846      33303000 
 4847 33e3 01       		.byte	0x1
 4848 33e4 9102     		.uleb128 0x111
 4849 33e6 5F4D5F49 		.ascii "_M_IX86_FP 0\0"
 4849      5838365F 
 4849      46502030 
 4849      00
 4850 33f3 04       		.byte	0x4
 4851 33f4 01       		.byte	0x1
 4852 33f5 4F       		.uleb128 0x4f
 4853 33f6 57696E64 		.ascii "Windows95 _WIN32_WINDOWS_95\0"
 4853      6F777339 
 4853      35205F57 
 4853      494E3332 
 4853      5F57494E 
 4854 3412 01       		.byte	0x1
 4855 3413 50       		.uleb128 0x50
 4856 3414 57696E64 		.ascii "Windows98 _WIN32_WINDOWS_98\0"
 4856      6F777339 
 4856      38205F57 
 4856      494E3332 
 4856      5F57494E 
 4857 3430 01       		.byte	0x1
 4858 3431 51       		.uleb128 0x51
 4859 3432 57696E64 		.ascii "WindowsME _WIN32_WINDOWS_ME\0"
 4859      6F77734D 
 4859      45205F57 
 4859      494E3332 
 4859      5F57494E 
 4860 344e 01       		.byte	0x1
 4861 344f 59       		.uleb128 0x59
 4862 3450 57696E64 		.ascii "WindowsNT4 _WIN32_WINNT_NT4\0"
 4862      6F77734E 
 4862      5434205F 
 4862      57494E33 
 4862      325F5749 
 4863 346c 01       		.byte	0x1
 4864 346d 5A       		.uleb128 0x5a
 4865 346e 57696E64 		.ascii "Windows2000 _WIN32_WINNT_WIN2K\0"
 4865      6F777332 
 4865      30303020 
 4865      5F57494E 
 4865      33325F57 
 4866 348d 01       		.byte	0x1
 4867 348e 5B       		.uleb128 0x5b
 4868 348f 57696E64 		.ascii "WindowsXP _WIN32_WINNT_WINXP\0"
 4868      6F777358 
 4868      50205F57 
 4868      494E3332 
 4868      5F57494E 
 4869 34ac 01       		.byte	0x1
 4870 34ad 5C       		.uleb128 0x5c
GAS LISTING C:\Users\PRESID~1\AppData\Local\Temp\ccCA8Smq.s 			page 150


 4871 34ae 57696E64 		.ascii "Windows2003 _WIN32_WINNT_WS03\0"
 4871      6F777332 
 4871      30303320 
 4871      5F57494E 
 4871      33325F57 
 4872 34cc 01       		.byte	0x1
 4873 34cd 5D       		.uleb128 0x5d
 4874 34ce 57696E64 		.ascii "WindowsVista _WIN32_WINNT_VISTA\0"
 4874      6F777356 
 4874      69737461 
 4874      205F5749 
 4874      4E33325F 
 4875 34ee 01       		.byte	0x1
 4876 34ef 65       		.uleb128 0x65
 4877 34f0 49453320 		.ascii "IE3 _WIN32_IE_IE30\0"
 4877      5F57494E 
 4877      33325F49 
 4877      455F4945 
 4877      333000
 4878 3503 01       		.byte	0x1
 4879 3504 66       		.uleb128 0x66
 4880 3505 49453330 		.ascii "IE301 _WIN32_IE_IE301\0"
 4880      31205F57 
 4880      494E3332 
 4880      5F49455F 
 4880      49453330 
 4881 351b 01       		.byte	0x1
 4882 351c 67       		.uleb128 0x67
 4883 351d 49453330 		.ascii "IE302 _WIN32_IE_IE302\0"
 4883      32205F57 
 4883      494E3332 
 4883      5F49455F 
 4883      49453330 
 4884 3533 01       		.byte	0x1
 4885 3534 68       		.uleb128 0x68
 4886 3535 49453420 		.ascii "IE4 _WIN32_IE_IE40\0"
 4886      5F57494E 
 4886      33325F49 
 4886      455F4945 
 4886      343000
 4887 3548 01       		.byte	0x1
 4888 3549 69       		.uleb128 0x69
 4889 354a 49453430 		.ascii "IE401 _WIN32_IE_IE401\0"
 4889      31205F57 
 4889      494E3332 
 4889      5F49455F 
 4889      49453430 
 4890 3560 01       		.byte	0x1
 4891 3561 6A       		.uleb128 0x6a
 4892 3562 49453520 		.ascii "IE5 _WIN32_IE_IE50\0"
 4892      5F57494E 
 4892      33325F49 
 4892      455F4945 
 4892      353000
 4893 3575 01       		.byte	0x1
 4894 3576 6B       		.uleb128 0x6b
 4895 3577 49453561 		.ascii "IE5a _WIN32_IE_IE50\0"
GAS LISTING C:\Users\PRESID~1\AppData\Local\Temp\ccCA8Smq.s 			page 151


 4895      205F5749 
 4895      4E33325F 
 4895      49455F49 
 4895      45353000 
 4896 358b 01       		.byte	0x1
 4897 358c 6C       		.uleb128 0x6c
 4898 358d 49453562 		.ascii "IE5b _WIN32_IE_IE50\0"
 4898      205F5749 
 4898      4E33325F 
 4898      49455F49 
 4898      45353000 
 4899 35a1 01       		.byte	0x1
 4900 35a2 6D       		.uleb128 0x6d
 4901 35a3 49453530 		.ascii "IE501 _WIN32_IE_IE501\0"
 4901      31205F57 
 4901      494E3332 
 4901      5F49455F 
 4901      49453530 
 4902 35b9 01       		.byte	0x1
 4903 35ba 6E       		.uleb128 0x6e
 4904 35bb 49453535 		.ascii "IE55 _WIN32_IE_IE55\0"
 4904      205F5749 
 4904      4E33325F 
 4904      49455F49 
 4904      45353500 
 4905 35cf 01       		.byte	0x1
 4906 35d0 6F       		.uleb128 0x6f
 4907 35d1 49453536 		.ascii "IE56 _WIN32_IE_IE56\0"
 4907      205F5749 
 4907      4E33325F 
 4907      49455F49 
 4907      45353600 
 4908 35e5 01       		.byte	0x1
 4909 35e6 70       		.uleb128 0x70
 4910 35e7 49453620 		.ascii "IE6 _WIN32_IE_IE60\0"
 4910      5F57494E 
 4910      33325F49 
 4910      455F4945 
 4910      363000
 4911 35fa 01       		.byte	0x1
 4912 35fb 71       		.uleb128 0x71
 4913 35fc 49453630 		.ascii "IE601 _WIN32_IE_IE60SP1\0"
 4913      31205F57 
 4913      494E3332 
 4913      5F49455F 
 4913      49453630 
 4914 3614 01       		.byte	0x1
 4915 3615 72       		.uleb128 0x72
 4916 3616 49453630 		.ascii "IE602 _WIN32_IE_IE60SP2\0"
 4916      32205F57 
 4916      494E3332 
 4916      5F49455F 
 4916      49453630 
 4917 362e 01       		.byte	0x1
 4918 362f 73       		.uleb128 0x73
 4919 3630 49453720 		.ascii "IE7 _WIN32_IE_IE70\0"
 4919      5F57494E 
GAS LISTING C:\Users\PRESID~1\AppData\Local\Temp\ccCA8Smq.s 			page 152


 4919      33325F49 
 4919      455F4945 
 4919      373000
 4920 3643 01       		.byte	0x1
 4921 3644 9A01     		.uleb128 0x9a
 4922 3646 5F5F4157 		.ascii "__AW_SUFFIXED__(__NAME__) __NAME__ ##A\0"
 4922      5F535546 
 4922      46495845 
 4922      445F5F28 
 4922      5F5F4E41 
 4923 366d 01       		.byte	0x1
 4924 366e A001     		.uleb128 0xa0
 4925 3670 5F5F4157 		.ascii "__AW_EXTENDED__(__NAME__) __AW_SUFFIXED__(__NAME__ ##_)\0"
 4925      5F455854 
 4925      454E4445 
 4925      445F5F28 
 4925      5F5F4E41 
 4926 36a8 01       		.byte	0x1
 4927 36a9 A901     		.uleb128 0xa9
 4928 36ab 5F5F4157 		.ascii "__AW_STRING_A__(__TEXT__) __TEXT__\0"
 4928      5F535452 
 4928      494E475F 
 4928      415F5F28 
 4928      5F5F5445 
 4929 36ce 01       		.byte	0x1
 4930 36cf AA01     		.uleb128 0xaa
 4931 36d1 5F5F4157 		.ascii "__AW__WCHAR_T__(__TEXT__) __AW_STRING_A__(L ##__TEXT__)\0"
 4931      5F5F5743 
 4931      4841525F 
 4931      545F5F28 
 4931      5F5F5445 
 4932 3709 01       		.byte	0x1
 4933 370a AB01     		.uleb128 0xab
 4934 370c 5F5F4157 		.ascii "__AW_STRING_W__(__TEXT__) __AW__WCHAR_T__(__TEXT__)\0"
 4934      5F535452 
 4934      494E475F 
 4934      575F5F28 
 4934      5F5F5445 
 4935 3740 01       		.byte	0x1
 4936 3741 B201     		.uleb128 0xb2
 4937 3743 5F5F4157 		.ascii "__AW_ALIAS__(__NAME__) __AW_SUFFIXED__(__NAME__) __NAME__\0"
 4937      5F414C49 
 4937      41535F5F 
 4937      285F5F4E 
 4937      414D455F 
 4938 377d 01       		.byte	0x1
 4939 377e B301     		.uleb128 0xb3
 4940 3780 5F5F4157 		.ascii "__AW_ALIAS_EX__(__NAME__) __AW_EXTENDED__(__NAME__) __NAME__\0"
 4940      5F414C49 
 4940      41535F45 
 4940      585F5F28 
 4940      5F5F4E41 
 4941 37bd 01       		.byte	0x1
 4942 37be C101     		.uleb128 0xc1
 4943 37c0 5F455854 		.ascii "_EXTERN_C extern\0"
 4943      45524E5F 
 4943      43206578 
GAS LISTING C:\Users\PRESID~1\AppData\Local\Temp\ccCA8Smq.s 			page 153


 4943      7465726E 
 4943      00
 4944 37d1 01       		.byte	0x1
 4945 37d2 C201     		.uleb128 0xc2
 4946 37d4 5F424547 		.ascii "_BEGIN_C_DECLS \0"
 4946      494E5F43 
 4946      5F444543 
 4946      4C532000 
 4947 37e4 01       		.byte	0x1
 4948 37e5 C301     		.uleb128 0xc3
 4949 37e7 5F454E44 		.ascii "_END_C_DECLS \0"
 4949      5F435F44 
 4949      45434C53 
 4949      2000
 4950 37f5 04       		.byte	0x4
 4951 37f6 01       		.byte	0x1
 4952 37f7 6D       		.uleb128 0x6d
 4953 37f8 5F5F4352 		.ascii "__CRT_GLOB_USE_MSVCRT__ 0x0001\0"
 4953      545F474C 
 4953      4F425F55 
 4953      53455F4D 
 4953      53564352 
 4954 3817 01       		.byte	0x1
 4955 3818 72       		.uleb128 0x72
 4956 3819 5F5F4352 		.ascii "__CRT_GLOB_USE_MINGW__ 0x0002\0"
 4956      545F474C 
 4956      4F425F55 
 4956      53455F4D 
 4956      494E4757 
 4957 3837 01       		.byte	0x1
 4958 3838 9701     		.uleb128 0x97
 4959 383a 5F5F4352 		.ascii "__CRT_GLOB_USE_SINGLE_QUOTE__ 0x0010\0"
 4959      545F474C 
 4959      4F425F55 
 4959      53455F53 
 4959      494E474C 
 4960 385f 01       		.byte	0x1
 4961 3860 9801     		.uleb128 0x98
 4962 3862 5F5F4352 		.ascii "__CRT_GLOB_BRACKET_GROUPS__ 0x0020\0"
 4962      545F474C 
 4962      4F425F42 
 4962      5241434B 
 4962      45545F47 
 4963 3885 01       		.byte	0x1
 4964 3886 A101     		.uleb128 0xa1
 4965 3888 5F5F4352 		.ascii "__CRT_GLOB_ESCAPE_CHAR__ (char)(127)\0"
 4965      545F474C 
 4965      4F425F45 
 4965      53434150 
 4965      455F4348 
 4966              		.file 11 "c:/program/mingw/include/features.h"
 4967 38ad 03       		.byte	0x3
 4968 38ae AE01     		.uleb128 0xae
 4969 38b0 0B       		.uleb128 0xb
 4970 38b1 01       		.byte	0x1
 4971 38b2 3D       		.uleb128 0x3d
 4972 38b3 5F5F4D49 		.ascii "__MINGW_FEATURES__ (__MINGW_FEATURES_BEGIN__) __MINGW_FEATURE_IGNORE__ (__MINGW_ANSI_STDIO
GAS LISTING C:\Users\PRESID~1\AppData\Local\Temp\ccCA8Smq.s 			page 154


 4972      4E47575F 
 4972      46454154 
 4972      55524553 
 4972      5F5F2028 
 4973 3989 04       		.byte	0x4
 4974 398a 01       		.byte	0x1
 4975 398b BB01     		.uleb128 0xbb
 4976 398d 5F5F4D49 		.ascii "__MINGW_FEATURE_ENABLE__(__FEATURE__) | (__FEATURE__)\0"
 4976      4E47575F 
 4976      46454154 
 4976      5552455F 
 4976      454E4142 
 4977 39c3 01       		.byte	0x1
 4978 39c4 BC01     		.uleb128 0xbc
 4979 39c6 5F5F4D49 		.ascii "__MINGW_FEATURE_IGNORE__(__FEATURE__) \0"
 4979      4E47575F 
 4979      46454154 
 4979      5552455F 
 4979      49474E4F 
 4980 39ed 01       		.byte	0x1
 4981 39ee BE01     		.uleb128 0xbe
 4982 39f0 5F5F4D49 		.ascii "__MINGW_FEATURES_BEGIN__ 0x0000000000000000ULL\0"
 4982      4E47575F 
 4982      46454154 
 4982      55524553 
 4982      5F424547 
 4983 3a1f 01       		.byte	0x1
 4984 3a20 BF01     		.uleb128 0xbf
 4985 3a22 5F5F4D49 		.ascii "__MINGW_FEATURES_UNSET__ 0x0000000000000000ULL\0"
 4985      4E47575F 
 4985      46454154 
 4985      55524553 
 4985      5F554E53 
 4986 3a51 01       		.byte	0x1
 4987 3a52 C001     		.uleb128 0xc0
 4988 3a54 5F5F4D49 		.ascii "__MINGW_FEATURES_END__ \0"
 4988      4E47575F 
 4988      46454154 
 4988      55524553 
 4988      5F454E44 
 4989 3a6c 01       		.byte	0x1
 4990 3a6d C501     		.uleb128 0xc5
 4991 3a6f 5F5F4D49 		.ascii "__MINGW_ANSI_STDIO__ 0x0000000000000001ULL\0"
 4991      4E47575F 
 4991      414E5349 
 4991      5F535444 
 4991      494F5F5F 
 4992 3a9a 01       		.byte	0x1
 4993 3a9b CA01     		.uleb128 0xca
 4994 3a9d 5F5F4D49 		.ascii "__MINGW_LC_EXTENSIONS__ 0x0000000000000050ULL\0"
 4994      4E47575F 
 4994      4C435F45 
 4994      5854454E 
 4994      53494F4E 
 4995 3acb 01       		.byte	0x1
 4996 3acc CB01     		.uleb128 0xcb
 4997 3ace 5F5F4D49 		.ascii "__MINGW_LC_MESSAGES__ 0x0000000000000010ULL\0"
GAS LISTING C:\Users\PRESID~1\AppData\Local\Temp\ccCA8Smq.s 			page 155


 4997      4E47575F 
 4997      4C435F4D 
 4997      45535341 
 4997      4745535F 
 4998 3afa 01       		.byte	0x1
 4999 3afb CC01     		.uleb128 0xcc
 5000 3afd 5F5F4D49 		.ascii "__MINGW_LC_ENVVARS__ 0x0000000000000040ULL\0"
 5000      4E47575F 
 5000      4C435F45 
 5000      4E565641 
 5000      52535F5F 
 5001 3b28 02       		.byte	0x2
 5002 3b29 D101     		.uleb128 0xd1
 5003 3b2b 5F5F6174 		.ascii "__attribute__\0"
 5003      74726962 
 5003      7574655F 
 5003      5F00
 5004 3b39 01       		.byte	0x1
 5005 3b3a FF01     		.uleb128 0xff
 5006 3b3c 5F5F4D49 		.ascii "__MINGW_IMPORT extern __attribute__((__dllimport__))\0"
 5006      4E47575F 
 5006      494D504F 
 5006      52542065 
 5006      78746572 
 5007 3b71 01       		.byte	0x1
 5008 3b72 8502     		.uleb128 0x105
 5009 3b74 5F435254 		.ascii "_CRTIMP \0"
 5009      494D5020 
 5009      00
 5010 3b7d 01       		.byte	0x1
 5011 3b7e 8802     		.uleb128 0x108
 5012 3b80 5F5F4445 		.ascii "__DECLSPEC_SUPPORTED \0"
 5012      434C5350 
 5012      45435F53 
 5012      5550504F 
 5012      52544544 
 5013 3b96 01       		.byte	0x1
 5014 3b97 9C02     		.uleb128 0x11c
 5015 3b99 5F5F696E 		.ascii "__int64 long long\0"
 5015      74363420 
 5015      6C6F6E67 
 5015      206C6F6E 
 5015      6700
 5016 3bab 01       		.byte	0x1
 5017 3bac 9F02     		.uleb128 0x11f
 5018 3bae 5F5F696E 		.ascii "__int32 long\0"
 5018      74333220 
 5018      6C6F6E67 
 5018      00
 5019 3bbb 01       		.byte	0x1
 5020 3bbc A202     		.uleb128 0x122
 5021 3bbe 5F5F696E 		.ascii "__int16 short\0"
 5021      74313620 
 5021      73686F72 
 5021      7400
 5022 3bcc 01       		.byte	0x1
 5023 3bcd A502     		.uleb128 0x125
GAS LISTING C:\Users\PRESID~1\AppData\Local\Temp\ccCA8Smq.s 			page 156


 5024 3bcf 5F5F696E 		.ascii "__int8 char\0"
 5024      74382063 
 5024      68617200 
 5025 3bdb 01       		.byte	0x1
 5026 3bdc A802     		.uleb128 0x128
 5027 3bde 5F5F736D 		.ascii "__small char\0"
 5027      616C6C20 
 5027      63686172 
 5027      00
 5028 3beb 01       		.byte	0x1
 5029 3bec AB02     		.uleb128 0x12b
 5030 3bee 5F5F6879 		.ascii "__hyper long long\0"
 5030      70657220 
 5030      6C6F6E67 
 5030      206C6F6E 
 5030      6700
 5031 3c00 01       		.byte	0x1
 5032 3c01 B902     		.uleb128 0x139
 5033 3c03 5F5F4D49 		.ascii "__MINGW_GNUC_PREREQ(major,minor) (__GNUC__ > (major) || (__GNUC__ == (major) && __GNUC_MIN
 5033      4E47575F 
 5033      474E5543 
 5033      5F505245 
 5033      52455128 
 5034 3c6f 01       		.byte	0x1
 5035 3c70 C602     		.uleb128 0x146
 5036 3c72 5F5F4352 		.ascii "__CRT_INLINE extern __inline__\0"
 5036      545F494E 
 5036      4C494E45 
 5036      20657874 
 5036      65726E20 
 5037 3c91 01       		.byte	0x1
 5038 3c92 D002     		.uleb128 0x150
 5039 3c94 5F435254 		.ascii "_CRTALIAS __CRT_INLINE __attribute__((__always_inline__))\0"
 5039      414C4941 
 5039      53205F5F 
 5039      4352545F 
 5039      494E4C49 
 5040 3cce 01       		.byte	0x1
 5041 3ccf D102     		.uleb128 0x151
 5042 3cd1 5F5F4352 		.ascii "__CRT_ALIAS __CRT_INLINE __attribute__((__always_inline__))\0"
 5042      545F414C 
 5042      49415320 
 5042      5F5F4352 
 5042      545F494E 
 5043 3d0d 01       		.byte	0x1
 5044 3d0e DF02     		.uleb128 0x15f
 5045 3d10 5F5F4A4D 		.ascii "__JMPSTUB__(__BUILD_HINT__) \0"
 5045      50535455 
 5045      425F5F28 
 5045      5F5F4255 
 5045      494C445F 
 5046 3d2d 01       		.byte	0x1
 5047 3d2e E002     		.uleb128 0x160
 5048 3d30 5F5F4C49 		.ascii "__LIBIMPL__(__BUILD_HINT__) \0"
 5048      42494D50 
 5048      4C5F5F28 
 5048      5F5F4255 
GAS LISTING C:\Users\PRESID~1\AppData\Local\Temp\ccCA8Smq.s 			page 157


 5048      494C445F 
 5049 3d4d 01       		.byte	0x1
 5050 3d4e E602     		.uleb128 0x166
 5051 3d50 5F5F554E 		.ascii "__UNUSED_PARAM(x) x __attribute__((__unused__))\0"
 5051      55534544 
 5051      5F504152 
 5051      414D2878 
 5051      29207820 
 5052 3d80 01       		.byte	0x1
 5053 3d81 ED02     		.uleb128 0x16d
 5054 3d83 5F5F4D49 		.ascii "__MINGW_ATTRIB_NORETURN __attribute__((__noreturn__))\0"
 5054      4E47575F 
 5054      41545452 
 5054      49425F4E 
 5054      4F524554 
 5055 3db9 01       		.byte	0x1
 5056 3dba EE02     		.uleb128 0x16e
 5057 3dbc 5F5F4D49 		.ascii "__MINGW_ATTRIB_CONST __attribute__((__const__))\0"
 5057      4E47575F 
 5057      41545452 
 5057      49425F43 
 5057      4F4E5354 
 5058 3dec 01       		.byte	0x1
 5059 3ded F502     		.uleb128 0x175
 5060 3def 5F5F4D49 		.ascii "__MINGW_ATTRIB_MALLOC __attribute__((__malloc__))\0"
 5060      4E47575F 
 5060      41545452 
 5060      49425F4D 
 5060      414C4C4F 
 5061 3e21 01       		.byte	0x1
 5062 3e22 F602     		.uleb128 0x176
 5063 3e24 5F5F4D49 		.ascii "__MINGW_ATTRIB_PURE __attribute__((__pure__))\0"
 5063      4E47575F 
 5063      41545452 
 5063      49425F50 
 5063      55524520 
 5064 3e52 01       		.byte	0x1
 5065 3e53 8003     		.uleb128 0x180
 5066 3e55 5F5F4D49 		.ascii "__MINGW_ATTRIB_NONNULL(arg) __attribute__((__nonnull__(arg)))\0"
 5066      4E47575F 
 5066      41545452 
 5066      49425F4E 
 5066      4F4E4E55 
 5067 3e93 01       		.byte	0x1
 5068 3e94 8603     		.uleb128 0x186
 5069 3e96 5F5F4D49 		.ascii "__MINGW_ATTRIB_DEPRECATED __attribute__((__deprecated__))\0"
 5069      4E47575F 
 5069      41545452 
 5069      49425F44 
 5069      45505245 
 5070 3ed0 01       		.byte	0x1
 5071 3ed1 8C03     		.uleb128 0x18c
 5072 3ed3 5F5F4D49 		.ascii "__MINGW_NOTHROW __attribute__((__nothrow__))\0"
 5072      4E47575F 
 5072      4E4F5448 
 5072      524F5720 
 5072      5F5F6174 
GAS LISTING C:\Users\PRESID~1\AppData\Local\Temp\ccCA8Smq.s 			page 158


 5073 3f00 01       		.byte	0x1
 5074 3f01 AE03     		.uleb128 0x1ae
 5075 3f03 5F5F5553 		.ascii "__USE_MINGW_ANSI_STDIO __MINGW_ANSI_STDIO__\0"
 5075      455F4D49 
 5075      4E47575F 
 5075      414E5349 
 5075      5F535444 
 5076 3f2f 01       		.byte	0x1
 5077 3f30 BD03     		.uleb128 0x1bd
 5078 3f32 5F5F7061 		.ascii "__paste(prefix,suffix) prefix ## suffix\0"
 5078      73746528 
 5078      70726566 
 5078      69782C73 
 5078      75666669 
 5079 3f5a 01       		.byte	0x1
 5080 3f5b BE03     		.uleb128 0x1be
 5081 3f5d 5F5F7661 		.ascii "__valueless(token) ((token - 0) == 0) && (__paste(token,10) == 10)\0"
 5081      6C75656C 
 5081      65737328 
 5081      746F6B65 
 5081      6E292028 
 5082 3fa0 01       		.byte	0x1
 5083 3fa1 8E04     		.uleb128 0x20e
 5084 3fa3 5F5F504F 		.ascii "__POSIX_1996_DEPRECATED \0"
 5084      5349585F 
 5084      31393936 
 5084      5F444550 
 5084      52454341 
 5085 3fbc 01       		.byte	0x1
 5086 3fbd 9C04     		.uleb128 0x21c
 5087 3fbf 5F5F504F 		.ascii "__POSIX_2001_DEPRECATED \0"
 5087      5349585F 
 5087      32303031 
 5087      5F444550 
 5087      52454341 
 5088 3fd8 01       		.byte	0x1
 5089 3fd9 AA04     		.uleb128 0x22a
 5090 3fdb 5F5F504F 		.ascii "__POSIX_2008_DEPRECATED \0"
 5090      5349585F 
 5090      32303038 
 5090      5F444550 
 5090      52454341 
 5091 3ff4 04       		.byte	0x4
 5092 3ff5 01       		.byte	0x1
 5093 3ff6 40       		.uleb128 0x40
 5094 3ff7 5F5F6E65 		.ascii "__need_NULL \0"
 5094      65645F4E 
 5094      554C4C20 
 5094      00
 5095 4004 01       		.byte	0x1
 5096 4005 41       		.uleb128 0x41
 5097 4006 5F5F6E65 		.ascii "__need_size_t \0"
 5097      65645F73 
 5097      697A655F 
 5097      742000
 5098 4015 01       		.byte	0x1
 5099 4016 42       		.uleb128 0x42
GAS LISTING C:\Users\PRESID~1\AppData\Local\Temp\ccCA8Smq.s 			page 159


 5100 4017 5F5F6E65 		.ascii "__need_wchar_t \0"
 5100      65645F77 
 5100      63686172 
 5100      5F742000 
 5101 4027 01       		.byte	0x1
 5102 4028 43       		.uleb128 0x43
 5103 4029 5F5F6E65 		.ascii "__need_wint_t \0"
 5103      65645F77 
 5103      696E745F 
 5103      742000
 5104              		.file 12 "c:/program/mingw/lib/gcc/mingw32/8.2.0/include/stddef.h"
 5105 4038 03       		.byte	0x3
 5106 4039 44       		.uleb128 0x44
 5107 403a 0C       		.uleb128 0xc
 5108 403b 01       		.byte	0x1
 5109 403c BB01     		.uleb128 0xbb
 5110 403e 5F5F7369 		.ascii "__size_t__ \0"
 5110      7A655F74 
 5110      5F5F2000 
 5111 404a 01       		.byte	0x1
 5112 404b BC01     		.uleb128 0xbc
 5113 404d 5F5F5349 		.ascii "__SIZE_T__ \0"
 5113      5A455F54 
 5113      5F5F2000 
 5114 4059 01       		.byte	0x1
 5115 405a BD01     		.uleb128 0xbd
 5116 405c 5F53495A 		.ascii "_SIZE_T \0"
 5116      455F5420 
 5116      00
 5117 4065 01       		.byte	0x1
 5118 4066 BE01     		.uleb128 0xbe
 5119 4068 5F535953 		.ascii "_SYS_SIZE_T_H \0"
 5119      5F53495A 
 5119      455F545F 
 5119      482000
 5120 4077 01       		.byte	0x1
 5121 4078 BF01     		.uleb128 0xbf
 5122 407a 5F545F53 		.ascii "_T_SIZE_ \0"
 5122      495A455F 
 5122      2000
 5123 4084 01       		.byte	0x1
 5124 4085 C001     		.uleb128 0xc0
 5125 4087 5F545F53 		.ascii "_T_SIZE \0"
 5125      495A4520 
 5125      00
 5126 4090 01       		.byte	0x1
 5127 4091 C101     		.uleb128 0xc1
 5128 4093 5F5F5349 		.ascii "__SIZE_T \0"
 5128      5A455F54 
 5128      2000
 5129 409d 01       		.byte	0x1
 5130 409e C201     		.uleb128 0xc2
 5131 40a0 5F53495A 		.ascii "_SIZE_T_ \0"
 5131      455F545F 
 5131      2000
 5132 40aa 01       		.byte	0x1
 5133 40ab C301     		.uleb128 0xc3
GAS LISTING C:\Users\PRESID~1\AppData\Local\Temp\ccCA8Smq.s 			page 160


 5134 40ad 5F425344 		.ascii "_BSD_SIZE_T_ \0"
 5134      5F53495A 
 5134      455F545F 
 5134      2000
 5135 40bb 01       		.byte	0x1
 5136 40bc C401     		.uleb128 0xc4
 5137 40be 5F53495A 		.ascii "_SIZE_T_DEFINED_ \0"
 5137      455F545F 
 5137      44454649 
 5137      4E45445F 
 5137      2000
 5138 40d0 01       		.byte	0x1
 5139 40d1 C501     		.uleb128 0xc5
 5140 40d3 5F53495A 		.ascii "_SIZE_T_DEFINED \0"
 5140      455F545F 
 5140      44454649 
 5140      4E454420 
 5140      00
 5141 40e4 01       		.byte	0x1
 5142 40e5 C601     		.uleb128 0xc6
 5143 40e7 5F425344 		.ascii "_BSD_SIZE_T_DEFINED_ \0"
 5143      5F53495A 
 5143      455F545F 
 5143      44454649 
 5143      4E45445F 
 5144 40fd 01       		.byte	0x1
 5145 40fe C701     		.uleb128 0xc7
 5146 4100 5F53495A 		.ascii "_SIZE_T_DECLARED \0"
 5146      455F545F 
 5146      4445434C 
 5146      41524544 
 5146      2000
 5147 4112 01       		.byte	0x1
 5148 4113 C801     		.uleb128 0xc8
 5149 4115 5F5F5F69 		.ascii "___int_size_t_h \0"
 5149      6E745F73 
 5149      697A655F 
 5149      745F6820 
 5149      00
 5150 4126 01       		.byte	0x1
 5151 4127 C901     		.uleb128 0xc9
 5152 4129 5F474343 		.ascii "_GCC_SIZE_T \0"
 5152      5F53495A 
 5152      455F5420 
 5152      00
 5153 4136 01       		.byte	0x1
 5154 4137 CA01     		.uleb128 0xca
 5155 4139 5F53495A 		.ascii "_SIZET_ \0"
 5155      45545F20 
 5155      00
 5156 4142 01       		.byte	0x1
 5157 4143 D201     		.uleb128 0xd2
 5158 4145 5F5F7369 		.ascii "__size_t \0"
 5158      7A655F74 
 5158      2000
 5159 414f 02       		.byte	0x2
 5160 4150 EE01     		.uleb128 0xee
GAS LISTING C:\Users\PRESID~1\AppData\Local\Temp\ccCA8Smq.s 			page 161


 5161 4152 5F5F6E65 		.ascii "__need_size_t\0"
 5161      65645F73 
 5161      697A655F 
 5161      7400
 5162 4160 01       		.byte	0x1
 5163 4161 8B02     		.uleb128 0x10b
 5164 4163 5F5F7763 		.ascii "__wchar_t__ \0"
 5164      6861725F 
 5164      745F5F20 
 5164      00
 5165 4170 01       		.byte	0x1
 5166 4171 8C02     		.uleb128 0x10c
 5167 4173 5F5F5743 		.ascii "__WCHAR_T__ \0"
 5167      4841525F 
 5167      545F5F20 
 5167      00
 5168 4180 01       		.byte	0x1
 5169 4181 8D02     		.uleb128 0x10d
 5170 4183 5F574348 		.ascii "_WCHAR_T \0"
 5170      41525F54 
 5170      2000
 5171 418d 01       		.byte	0x1
 5172 418e 8E02     		.uleb128 0x10e
 5173 4190 5F545F57 		.ascii "_T_WCHAR_ \0"
 5173      43484152 
 5173      5F2000
 5174 419b 01       		.byte	0x1
 5175 419c 8F02     		.uleb128 0x10f
 5176 419e 5F545F57 		.ascii "_T_WCHAR \0"
 5176      43484152 
 5176      2000
 5177 41a8 01       		.byte	0x1
 5178 41a9 9002     		.uleb128 0x110
 5179 41ab 5F5F5743 		.ascii "__WCHAR_T \0"
 5179      4841525F 
 5179      542000
 5180 41b6 01       		.byte	0x1
 5181 41b7 9102     		.uleb128 0x111
 5182 41b9 5F574348 		.ascii "_WCHAR_T_ \0"
 5182      41525F54 
 5182      5F2000
 5183 41c4 01       		.byte	0x1
 5184 41c5 9202     		.uleb128 0x112
 5185 41c7 5F425344 		.ascii "_BSD_WCHAR_T_ \0"
 5185      5F574348 
 5185      41525F54 
 5185      5F2000
 5186 41d6 01       		.byte	0x1
 5187 41d7 9302     		.uleb128 0x113
 5188 41d9 5F574348 		.ascii "_WCHAR_T_DEFINED_ \0"
 5188      41525F54 
 5188      5F444546 
 5188      494E4544 
 5188      5F2000
 5189 41ec 01       		.byte	0x1
 5190 41ed 9402     		.uleb128 0x114
 5191 41ef 5F574348 		.ascii "_WCHAR_T_DEFINED \0"
GAS LISTING C:\Users\PRESID~1\AppData\Local\Temp\ccCA8Smq.s 			page 162


 5191      41525F54 
 5191      5F444546 
 5191      494E4544 
 5191      2000
 5192 4201 01       		.byte	0x1
 5193 4202 9502     		.uleb128 0x115
 5194 4204 5F574348 		.ascii "_WCHAR_T_H \0"
 5194      41525F54 
 5194      5F482000 
 5195 4210 01       		.byte	0x1
 5196 4211 9602     		.uleb128 0x116
 5197 4213 5F5F5F69 		.ascii "___int_wchar_t_h \0"
 5197      6E745F77 
 5197      63686172 
 5197      5F745F68 
 5197      2000
 5198 4225 01       		.byte	0x1
 5199 4226 9702     		.uleb128 0x117
 5200 4228 5F5F494E 		.ascii "__INT_WCHAR_T_H \0"
 5200      545F5743 
 5200      4841525F 
 5200      545F4820 
 5200      00
 5201 4239 01       		.byte	0x1
 5202 423a 9802     		.uleb128 0x118
 5203 423c 5F474343 		.ascii "_GCC_WCHAR_T \0"
 5203      5F574348 
 5203      41525F54 
 5203      2000
 5204 424a 01       		.byte	0x1
 5205 424b 9902     		.uleb128 0x119
 5206 424d 5F574348 		.ascii "_WCHAR_T_DECLARED \0"
 5206      41525F54 
 5206      5F444543 
 5206      4C415245 
 5206      442000
 5207 4260 02       		.byte	0x2
 5208 4261 A602     		.uleb128 0x126
 5209 4263 5F425344 		.ascii "_BSD_WCHAR_T_\0"
 5209      5F574348 
 5209      41525F54 
 5209      5F00
 5210 4271 02       		.byte	0x2
 5211 4272 DB02     		.uleb128 0x15b
 5212 4274 5F5F6E65 		.ascii "__need_wchar_t\0"
 5212      65645F77 
 5212      63686172 
 5212      5F7400
 5213 4283 01       		.byte	0x1
 5214 4284 E002     		.uleb128 0x160
 5215 4286 5F57494E 		.ascii "_WINT_T \0"
 5215      545F5420 
 5215      00
 5216 428f 02       		.byte	0x2
 5217 4290 E702     		.uleb128 0x167
 5218 4292 5F5F6E65 		.ascii "__need_wint_t\0"
 5218      65645F77 
GAS LISTING C:\Users\PRESID~1\AppData\Local\Temp\ccCA8Smq.s 			page 163


 5218      696E745F 
 5218      7400
 5219 42a0 02       		.byte	0x2
 5220 42a1 9103     		.uleb128 0x191
 5221 42a3 4E554C4C 		.ascii "NULL\0"
 5221      00
 5222 42a8 01       		.byte	0x1
 5223 42a9 9603     		.uleb128 0x196
 5224 42ab 4E554C4C 		.ascii "NULL ((void *)0)\0"
 5224      20282876 
 5224      6F696420 
 5224      2A293029 
 5224      00
 5225 42bc 02       		.byte	0x2
 5226 42bd 9C03     		.uleb128 0x19c
 5227 42bf 5F5F6E65 		.ascii "__need_NULL\0"
 5227      65645F4E 
 5227      554C4C00 
 5228 42cb 04       		.byte	0x4
 5229 42cc 01       		.byte	0x1
 5230 42cd 55       		.uleb128 0x55
 5231 42ce 5F5F6E65 		.ascii "__need___off64_t \0"
 5231      65645F5F 
 5231      5F6F6666 
 5231      36345F74 
 5231      2000
 5232              		.file 13 "c:/program/mingw/include/sys/types.h"
 5233 42e0 03       		.byte	0x3
 5234 42e1 5F       		.uleb128 0x5f
 5235 42e2 0D       		.uleb128 0xd
 5236 42e3 02       		.byte	0x2
 5237 42e4 54       		.uleb128 0x54
 5238 42e5 5F5F6E65 		.ascii "__need_off_t\0"
 5238      65645F6F 
 5238      66665F74 
 5238      00
 5239 42f2 02       		.byte	0x2
 5240 42f3 6C       		.uleb128 0x6c
 5241 42f4 5F5F6E65 		.ascii "__need___off64_t\0"
 5241      65645F5F 
 5241      5F6F6666 
 5241      36345F74 
 5241      00
 5242 4305 02       		.byte	0x2
 5243 4306 8401     		.uleb128 0x84
 5244 4308 5F5F6E65 		.ascii "__need_ssize_t\0"
 5244      65645F73 
 5244      73697A65 
 5244      5F7400
 5245 4317 02       		.byte	0x2
 5246 4318 A301     		.uleb128 0xa3
 5247 431a 5F5F6E65 		.ascii "__need_time_t\0"
 5247      65645F74 
 5247      696D655F 
 5247      7400
 5248 4328 04       		.byte	0x4
 5249 4329 01       		.byte	0x1
GAS LISTING C:\Users\PRESID~1\AppData\Local\Temp\ccCA8Smq.s 			page 164


 5250 432a 65       		.uleb128 0x65
 5251 432b 5F5F6E65 		.ascii "__need___va_list \0"
 5251      65645F5F 
 5251      5F76615F 
 5251      6C697374 
 5251      2000
 5252              		.file 14 "c:/program/mingw/lib/gcc/mingw32/8.2.0/include/stdarg.h"
 5253 433d 03       		.byte	0x3
 5254 433e 66       		.uleb128 0x66
 5255 433f 0E       		.uleb128 0xe
 5256 4340 02       		.byte	0x2
 5257 4341 22       		.uleb128 0x22
 5258 4342 5F5F6E65 		.ascii "__need___va_list\0"
 5258      65645F5F 
 5258      5F76615F 
 5258      6C697374 
 5258      00
 5259 4353 01       		.byte	0x1
 5260 4354 27       		.uleb128 0x27
 5261 4355 5F5F474E 		.ascii "__GNUC_VA_LIST \0"
 5261      55435F56 
 5261      415F4C49 
 5261      53542000 
 5262 4365 04       		.byte	0x4
 5263 4366 01       		.byte	0x1
 5264 4367 67       		.uleb128 0x67
 5265 4368 5F5F5641 		.ascii "__VALIST __builtin_va_list\0"
 5265      4C495354 
 5265      205F5F62 
 5265      75696C74 
 5265      696E5F76 
 5266 4383 01       		.byte	0x1
 5267 4384 71       		.uleb128 0x71
 5268 4385 5F494F52 		.ascii "_IOREAD 1\0"
 5268      45414420 
 5268      3100
 5269 438f 01       		.byte	0x1
 5270 4390 72       		.uleb128 0x72
 5271 4391 5F494F57 		.ascii "_IOWRT 2\0"
 5271      52542032 
 5271      00
 5272 439a 01       		.byte	0x1
 5273 439b 73       		.uleb128 0x73
 5274 439c 5F494F52 		.ascii "_IORW 0x0080\0"
 5274      57203078 
 5274      30303830 
 5274      00
 5275 43a9 01       		.byte	0x1
 5276 43aa 78       		.uleb128 0x78
 5277 43ab 53544449 		.ascii "STDIN_FILENO 0\0"
 5277      4E5F4649 
 5277      4C454E4F 
 5277      203000
 5278 43ba 01       		.byte	0x1
 5279 43bb 79       		.uleb128 0x79
 5280 43bc 5354444F 		.ascii "STDOUT_FILENO 1\0"
 5280      55545F46 
GAS LISTING C:\Users\PRESID~1\AppData\Local\Temp\ccCA8Smq.s 			page 165


 5280      494C454E 
 5280      4F203100 
 5281 43cc 01       		.byte	0x1
 5282 43cd 7A       		.uleb128 0x7a
 5283 43ce 53544445 		.ascii "STDERR_FILENO 2\0"
 5283      52525F46 
 5283      494C454E 
 5283      4F203200 
 5284 43de 01       		.byte	0x1
 5285 43df 7E       		.uleb128 0x7e
 5286 43e0 454F4620 		.ascii "EOF (-1)\0"
 5286      282D3129 
 5286      00
 5287 43e9 01       		.byte	0x1
 5288 43ea 8D01     		.uleb128 0x8d
 5289 43ec 46494C45 		.ascii "FILENAME_MAX (260)\0"
 5289      4E414D45 
 5289      5F4D4158 
 5289      20283236 
 5289      302900
 5290 43ff 01       		.byte	0x1
 5291 4400 9301     		.uleb128 0x93
 5292 4402 464F5045 		.ascii "FOPEN_MAX (20)\0"
 5292      4E5F4D41 
 5292      58202832 
 5292      302900
 5293 4411 01       		.byte	0x1
 5294 4412 9701     		.uleb128 0x97
 5295 4414 544D505F 		.ascii "TMP_MAX 32767\0"
 5295      4D415820 
 5295      33323736 
 5295      3700
 5296 4422 01       		.byte	0x1
 5297 4423 9E01     		.uleb128 0x9e
 5298 4425 5F505F74 		.ascii "_P_tmpdir \"\\\\\"\0"
 5298      6D706469 
 5298      7220225C 
 5298      5C2200
 5299 4434 01       		.byte	0x1
 5300 4435 A201     		.uleb128 0xa2
 5301 4437 5F77505F 		.ascii "_wP_tmpdir L\"\\\\\"\0"
 5301      746D7064 
 5301      6972204C 
 5301      225C5C22 
 5301      00
 5302 4448 01       		.byte	0x1
 5303 4449 A901     		.uleb128 0xa9
 5304 444b 4C5F746D 		.ascii "L_tmpnam (16)\0"
 5304      706E616D 
 5304      20283136 
 5304      2900
 5305 4459 01       		.byte	0x1
 5306 445a AB01     		.uleb128 0xab
 5307 445c 5F494F46 		.ascii "_IOFBF 0x0000\0"
 5307      42462030 
 5307      78303030 
 5307      3000
GAS LISTING C:\Users\PRESID~1\AppData\Local\Temp\ccCA8Smq.s 			page 166


 5308 446a 01       		.byte	0x1
 5309 446b AC01     		.uleb128 0xac
 5310 446d 5F494F4C 		.ascii "_IOLBF 0x0040\0"
 5310      42462030 
 5310      78303034 
 5310      3000
 5311 447b 01       		.byte	0x1
 5312 447c AD01     		.uleb128 0xad
 5313 447e 5F494F4E 		.ascii "_IONBF 0x0004\0"
 5313      42462030 
 5313      78303030 
 5313      3400
 5314 448c 01       		.byte	0x1
 5315 448d AF01     		.uleb128 0xaf
 5316 448f 5F494F4D 		.ascii "_IOMYBUF 0x0008\0"
 5316      59425546 
 5316      20307830 
 5316      30303800 
 5317 449f 01       		.byte	0x1
 5318 44a0 B001     		.uleb128 0xb0
 5319 44a2 5F494F45 		.ascii "_IOEOF 0x0010\0"
 5319      4F462030 
 5319      78303031 
 5319      3000
 5320 44b0 01       		.byte	0x1
 5321 44b1 B101     		.uleb128 0xb1
 5322 44b3 5F494F45 		.ascii "_IOERR 0x0020\0"
 5322      52522030 
 5322      78303032 
 5322      3000
 5323 44c1 01       		.byte	0x1
 5324 44c2 B201     		.uleb128 0xb2
 5325 44c4 5F494F53 		.ascii "_IOSTRG 0x0040\0"
 5325      54524720 
 5325      30783030 
 5325      343000
 5326 44d3 01       		.byte	0x1
 5327 44d4 BA01     		.uleb128 0xba
 5328 44d6 42554653 		.ascii "BUFSIZ 512\0"
 5328      495A2035 
 5328      313200
 5329 44e1 01       		.byte	0x1
 5330 44e2 C001     		.uleb128 0xc0
 5331 44e4 5345454B 		.ascii "SEEK_SET 0\0"
 5331      5F534554 
 5331      203000
 5332 44ef 01       		.byte	0x1
 5333 44f0 C101     		.uleb128 0xc1
 5334 44f2 5345454B 		.ascii "SEEK_CUR 1\0"
 5334      5F435552 
 5334      203100
 5335 44fd 01       		.byte	0x1
 5336 44fe C201     		.uleb128 0xc2
 5337 4500 5345454B 		.ascii "SEEK_END 2\0"
 5337      5F454E44 
 5337      203200
 5338 450b 01       		.byte	0x1
GAS LISTING C:\Users\PRESID~1\AppData\Local\Temp\ccCA8Smq.s 			page 167


 5339 450c F301     		.uleb128 0xf3
 5340 450e 73746469 		.ascii "stdin (&_iob[STDIN_FILENO])\0"
 5340      6E202826 
 5340      5F696F62 
 5340      5B535444 
 5340      494E5F46 
 5341 452a 01       		.byte	0x1
 5342 452b F401     		.uleb128 0xf4
 5343 452d 7374646F 		.ascii "stdout (&_iob[STDOUT_FILENO])\0"
 5343      75742028 
 5343      265F696F 
 5343      625B5354 
 5343      444F5554 
 5344 454b 01       		.byte	0x1
 5345 454c F501     		.uleb128 0xf5
 5346 454e 73746465 		.ascii "stderr (&_iob[STDERR_FILENO])\0"
 5346      72722028 
 5346      265F696F 
 5346      625B5354 
 5346      44455252 
 5347 456c 02       		.byte	0x2
 5348 456d AF02     		.uleb128 0x12f
 5349 456f 5F5F6D69 		.ascii "__mingw_stdio_redirect__\0"
 5349      6E67775F 
 5349      73746469 
 5349      6F5F7265 
 5349      64697265 
 5350 4588 01       		.byte	0x1
 5351 4589 B002     		.uleb128 0x130
 5352 458b 5F5F6D69 		.ascii "__mingw_stdio_redirect__(F) __cdecl __MINGW_NOTHROW __Wformat(F)\0"
 5352      6E67775F 
 5352      73746469 
 5352      6F5F7265 
 5352      64697265 
 5353 45cc 01       		.byte	0x1
 5354 45cd B102     		.uleb128 0x131
 5355 45cf 5F5F5766 		.ascii "__Wformat_mingw_printf(F,A) __attribute__((__format__(__mingw_printf__,F,A)))\0"
 5355      6F726D61 
 5355      745F6D69 
 5355      6E67775F 
 5355      7072696E 
 5356 461d 01       		.byte	0x1
 5357 461e B702     		.uleb128 0x137
 5358 4620 5F5F5766 		.ascii "__Wformat(F) __Wformat_ ##F __mingw_ ##F\0"
 5358      6F726D61 
 5358      74284629 
 5358      205F5F57 
 5358      666F726D 
 5359 4649 01       		.byte	0x1
 5360 464a C902     		.uleb128 0x149
 5361 464c 5F5F5766 		.ascii "__Wformat_printf __Wformat_mingw_printf(1,2)\0"
 5361      6F726D61 
 5361      745F7072 
 5361      696E7466 
 5361      205F5F57 
 5362 4679 01       		.byte	0x1
 5363 467a CA02     		.uleb128 0x14a
GAS LISTING C:\Users\PRESID~1\AppData\Local\Temp\ccCA8Smq.s 			page 168


 5364 467c 5F5F5766 		.ascii "__Wformat_fprintf __Wformat_mingw_printf(2,3)\0"
 5364      6F726D61 
 5364      745F6670 
 5364      72696E74 
 5364      66205F5F 
 5365 46aa 01       		.byte	0x1
 5366 46ab CB02     		.uleb128 0x14b
 5367 46ad 5F5F5766 		.ascii "__Wformat_sprintf __Wformat_mingw_printf(2,3)\0"
 5367      6F726D61 
 5367      745F7370 
 5367      72696E74 
 5367      66205F5F 
 5368 46db 01       		.byte	0x1
 5369 46dc CC02     		.uleb128 0x14c
 5370 46de 5F5F5766 		.ascii "__Wformat_vprintf __Wformat_mingw_printf(1,0)\0"
 5370      6F726D61 
 5370      745F7670 
 5370      72696E74 
 5370      66205F5F 
 5371 470c 01       		.byte	0x1
 5372 470d CD02     		.uleb128 0x14d
 5373 470f 5F5F5766 		.ascii "__Wformat_vfprintf __Wformat_mingw_printf(2,0)\0"
 5373      6F726D61 
 5373      745F7666 
 5373      7072696E 
 5373      7466205F 
 5374 473e 01       		.byte	0x1
 5375 473f CE02     		.uleb128 0x14e
 5376 4741 5F5F5766 		.ascii "__Wformat_vsprintf __Wformat_mingw_printf(2,0)\0"
 5376      6F726D61 
 5376      745F7673 
 5376      7072696E 
 5376      7466205F 
 5377 4770 01       		.byte	0x1
 5378 4771 D302     		.uleb128 0x153
 5379 4773 5F5F5766 		.ascii "__Wformat_snprintf __Wformat_mingw_printf(3,4)\0"
 5379      6F726D61 
 5379      745F736E 
 5379      7072696E 
 5379      7466205F 
 5380 47a2 01       		.byte	0x1
 5381 47a3 D402     		.uleb128 0x154
 5382 47a5 5F5F5766 		.ascii "__Wformat_vsnprintf __Wformat_mingw_printf(3,0)\0"
 5382      6F726D61 
 5382      745F7673 
 5382      6E707269 
 5382      6E746620 
 5383 47d5 01       		.byte	0x1
 5384 47d6 E302     		.uleb128 0x163
 5385 47d8 5F4D5356 		.ascii "_MSVC_PRINTF_QUIRKS 0x0100U\0"
 5385      435F5052 
 5385      494E5446 
 5385      5F515549 
 5385      524B5320 
 5386 47f4 01       		.byte	0x1
 5387 47f5 E402     		.uleb128 0x164
 5388 47f7 5F515545 		.ascii "_QUERY_MSVC_PRINTF_QUIRKS ~0U, 0U\0"
GAS LISTING C:\Users\PRESID~1\AppData\Local\Temp\ccCA8Smq.s 			page 169


 5388      52595F4D 
 5388      5356435F 
 5388      5052494E 
 5388      54465F51 
 5389 4819 01       		.byte	0x1
 5390 481a E502     		.uleb128 0x165
 5391 481c 5F444953 		.ascii "_DISABLE_MSVC_PRINTF_QUIRKS ~_MSVC_PRINTF_QUIRKS, 0U\0"
 5391      41424C45 
 5391      5F4D5356 
 5391      435F5052 
 5391      494E5446 
 5392 4851 01       		.byte	0x1
 5393 4852 E602     		.uleb128 0x166
 5394 4854 5F454E41 		.ascii "_ENABLE_MSVC_PRINTF_QUIRKS ~0U, _MSVC_PRINTF_QUIRKS\0"
 5394      424C455F 
 5394      4D535643 
 5394      5F505249 
 5394      4E54465F 
 5395 4888 02       		.byte	0x2
 5396 4889 FD02     		.uleb128 0x17d
 5397 488b 5F5F6D69 		.ascii "__mingw_stdio_redirect__\0"
 5397      6E67775F 
 5397      73746469 
 5397      6F5F7265 
 5397      64697265 
 5398 48a4 01       		.byte	0x1
 5399 48a5 8A03     		.uleb128 0x18a
 5400 48a7 5F5F6D69 		.ascii "__mingw_stdio_redirect__ static __inline__ __cdecl __MINGW_NOTHROW\0"
 5400      6E67775F 
 5400      73746469 
 5400      6F5F7265 
 5400      64697265 
 5401 48ea 02       		.byte	0x2
 5402 48eb F403     		.uleb128 0x1f4
 5403 48ed 5F5F5766 		.ascii "__Wformat\0"
 5403      6F726D61 
 5403      7400
 5404 48f7 02       		.byte	0x2
 5405 48f8 F503     		.uleb128 0x1f5
 5406 48fa 5F5F6D69 		.ascii "__mingw_stdio_redirect__\0"
 5406      6E67775F 
 5406      73746469 
 5406      6F5F7265 
 5406      64697265 
 5407 4913 01       		.byte	0x1
 5408 4914 F603     		.uleb128 0x1f6
 5409 4916 5F5F6D69 		.ascii "__mingw_stdio_redirect__(F) __cdecl __MINGW_NOTHROW __Wformat(F)\0"
 5409      6E67775F 
 5409      73746469 
 5409      6F5F7265 
 5409      64697265 
 5410 4957 01       		.byte	0x1
 5411 4958 F703     		.uleb128 0x1f7
 5412 495a 5F5F5766 		.ascii "__Wformat_msvcrt_printf(F,A) __attribute__((__format__(__ms_printf__,F,A)))\0"
 5412      6F726D61 
 5412      745F6D73 
 5412      76637274 
GAS LISTING C:\Users\PRESID~1\AppData\Local\Temp\ccCA8Smq.s 			page 170


 5412      5F707269 
 5413 49a6 01       		.byte	0x1
 5414 49a7 F803     		.uleb128 0x1f8
 5415 49a9 5F5F5766 		.ascii "__Wformat(F) __Wformat_ms_ ##F __msvcrt_ ##F\0"
 5415      6F726D61 
 5415      74284629 
 5415      205F5F57 
 5415      666F726D 
 5416 49d6 01       		.byte	0x1
 5417 49d7 FA03     		.uleb128 0x1fa
 5418 49d9 5F5F5766 		.ascii "__Wformat_ms_printf __Wformat_msvcrt_printf(1,2)\0"
 5418      6F726D61 
 5418      745F6D73 
 5418      5F707269 
 5418      6E746620 
 5419 4a0a 01       		.byte	0x1
 5420 4a0b FB03     		.uleb128 0x1fb
 5421 4a0d 5F5F5766 		.ascii "__Wformat_ms_fprintf __Wformat_msvcrt_printf(2,3)\0"
 5421      6F726D61 
 5421      745F6D73 
 5421      5F667072 
 5421      696E7466 
 5422 4a3f 01       		.byte	0x1
 5423 4a40 FC03     		.uleb128 0x1fc
 5424 4a42 5F5F5766 		.ascii "__Wformat_ms_sprintf __Wformat_msvcrt_printf(2,3)\0"
 5424      6F726D61 
 5424      745F6D73 
 5424      5F737072 
 5424      696E7466 
 5425 4a74 01       		.byte	0x1
 5426 4a75 FD03     		.uleb128 0x1fd
 5427 4a77 5F5F5766 		.ascii "__Wformat_ms_vprintf __Wformat_msvcrt_printf(1,0)\0"
 5427      6F726D61 
 5427      745F6D73 
 5427      5F767072 
 5427      696E7466 
 5428 4aa9 01       		.byte	0x1
 5429 4aaa FE03     		.uleb128 0x1fe
 5430 4aac 5F5F5766 		.ascii "__Wformat_ms_vfprintf __Wformat_msvcrt_printf(2,0)\0"
 5430      6F726D61 
 5430      745F6D73 
 5430      5F766670 
 5430      72696E74 
 5431 4adf 01       		.byte	0x1
 5432 4ae0 FF03     		.uleb128 0x1ff
 5433 4ae2 5F5F5766 		.ascii "__Wformat_ms_vsprintf __Wformat_msvcrt_printf(2,0)\0"
 5433      6F726D61 
 5433      745F6D73 
 5433      5F767370 
 5433      72696E74 
 5434 4b15 02       		.byte	0x2
 5435 4b16 8804     		.uleb128 0x208
 5436 4b18 5F5F6D69 		.ascii "__mingw_stdio_redirect__\0"
 5436      6E67775F 
 5436      73746469 
 5436      6F5F7265 
 5436      64697265 
GAS LISTING C:\Users\PRESID~1\AppData\Local\Temp\ccCA8Smq.s 			page 171


 5437 4b31 02       		.byte	0x2
 5438 4b32 8904     		.uleb128 0x209
 5439 4b34 5F5F5766 		.ascii "__Wformat\0"
 5439      6F726D61 
 5439      7400
 5440 4b3e 01       		.byte	0x1
 5441 4b3f F206     		.uleb128 0x372
 5442 4b41 66656F66 		.ascii "feof(__F) ((__F)->_flag & _IOEOF)\0"
 5442      285F5F46 
 5442      29202828 
 5442      5F5F4629 
 5442      2D3E5F66 
 5443 4b63 01       		.byte	0x1
 5444 4b64 F306     		.uleb128 0x373
 5445 4b66 66657272 		.ascii "ferror(__F) ((__F)->_flag & _IOERR)\0"
 5445      6F72285F 
 5445      5F462920 
 5445      28285F5F 
 5445      46292D3E 
 5446 4b8a 04       		.byte	0x4
 5447 4b8b 03       		.byte	0x3
 5448 4b8c 03       		.uleb128 0x3
 5449 4b8d 06       		.uleb128 0x6
 5450 4b8e 01       		.byte	0x1
 5451 4b8f 26       		.uleb128 0x26
 5452 4b90 48415645 		.ascii "HAVE_SPUT_H \0"
 5452      5F535055 
 5452      545F4820 
 5452      00
 5453 4b9d 03       		.byte	0x3
 5454 4b9e 2F       		.uleb128 0x2f
 5455 4b9f 03       		.uleb128 0x3
 5456 4ba0 01       		.byte	0x1
 5457 4ba1 2B       		.uleb128 0x2b
 5458 4ba2 5F535444 		.ascii "_STDLIB_H \0"
 5458      4C49425F 
 5458      482000
 5459 4bad 01       		.byte	0x1
 5460 4bae 34       		.uleb128 0x34
 5461 4baf 5F5F6E65 		.ascii "__need_size_t \0"
 5461      65645F73 
 5461      697A655F 
 5461      742000
 5462 4bbe 01       		.byte	0x1
 5463 4bbf 35       		.uleb128 0x35
 5464 4bc0 5F5F6E65 		.ascii "__need_wchar_t \0"
 5464      65645F77 
 5464      63686172 
 5464      5F742000 
 5465 4bd0 01       		.byte	0x1
 5466 4bd1 36       		.uleb128 0x36
 5467 4bd2 5F5F6E65 		.ascii "__need_NULL \0"
 5467      65645F4E 
 5467      554C4C20 
 5467      00
 5468 4bdf 03       		.byte	0x3
 5469 4be0 37       		.uleb128 0x37
GAS LISTING C:\Users\PRESID~1\AppData\Local\Temp\ccCA8Smq.s 			page 172


 5470 4be1 0C       		.uleb128 0xc
 5471 4be2 02       		.byte	0x2
 5472 4be3 EE01     		.uleb128 0xee
 5473 4be5 5F5F6E65 		.ascii "__need_size_t\0"
 5473      65645F73 
 5473      697A655F 
 5473      7400
 5474 4bf3 02       		.byte	0x2
 5475 4bf4 DB02     		.uleb128 0x15b
 5476 4bf6 5F5F6E65 		.ascii "__need_wchar_t\0"
 5476      65645F77 
 5476      63686172 
 5476      5F7400
 5477 4c05 02       		.byte	0x2
 5478 4c06 9103     		.uleb128 0x191
 5479 4c08 4E554C4C 		.ascii "NULL\0"
 5479      00
 5480 4c0d 01       		.byte	0x1
 5481 4c0e 9603     		.uleb128 0x196
 5482 4c10 4E554C4C 		.ascii "NULL ((void *)0)\0"
 5482      20282876 
 5482      6F696420 
 5482      2A293029 
 5482      00
 5483 4c21 02       		.byte	0x2
 5484 4c22 9C03     		.uleb128 0x19c
 5485 4c24 5F5F6E65 		.ascii "__need_NULL\0"
 5485      65645F4E 
 5485      554C4C00 
 5486 4c30 04       		.byte	0x4
 5487 4c31 01       		.byte	0x1
 5488 4c32 3D       		.uleb128 0x3d
 5489 4c33 52414E44 		.ascii "RAND_MAX 0x7FFF\0"
 5489      5F4D4158 
 5489      20307837 
 5489      46464600 
 5490 4c43 01       		.byte	0x1
 5491 4c44 41       		.uleb128 0x41
 5492 4c45 45584954 		.ascii "EXIT_SUCCESS 0\0"
 5492      5F535543 
 5492      43455353 
 5492      203000
 5493 4c54 01       		.byte	0x1
 5494 4c55 42       		.uleb128 0x42
 5495 4c56 45584954 		.ascii "EXIT_FAILURE 1\0"
 5495      5F464149 
 5495      4C555245 
 5495      203100
 5496 4c65 01       		.byte	0x1
 5497 4c66 8D01     		.uleb128 0x8d
 5498 4c68 4D425F43 		.ascii "MB_CUR_MAX __mb_cur_max\0"
 5498      55525F4D 
 5498      4158205F 
 5498      5F6D625F 
 5498      6375725F 
 5499 4c80 01       		.byte	0x1
 5500 4c81 A701     		.uleb128 0xa7
GAS LISTING C:\Users\PRESID~1\AppData\Local\Temp\ccCA8Smq.s 			page 173


 5501 4c83 6572726E 		.ascii "errno (*_errno())\0"
 5501      6F20282A 
 5501      5F657272 
 5501      6E6F2829 
 5501      2900
 5502 4c95 01       		.byte	0x1
 5503 4c96 AA01     		.uleb128 0xaa
 5504 4c98 5F646F73 		.ascii "_doserrno (*__doserrno())\0"
 5504      6572726E 
 5504      6F20282A 
 5504      5F5F646F 
 5504      73657272 
 5505 4cb2 04       		.byte	0x4
 5506              		.file 15 "c:/program/mingw/include/string.h"
 5507 4cb3 03       		.byte	0x3
 5508 4cb4 30       		.uleb128 0x30
 5509 4cb5 0F       		.uleb128 0xf
 5510 4cb6 01       		.byte	0x1
 5511 4cb7 23       		.uleb128 0x23
 5512 4cb8 5F535452 		.ascii "_STRING_H \0"
 5512      494E475F 
 5512      482000
 5513 4cc3 01       		.byte	0x1
 5514 4cc4 2D       		.uleb128 0x2d
 5515 4cc5 5F5F6E65 		.ascii "__need_NULL \0"
 5515      65645F4E 
 5515      554C4C20 
 5515      00
 5516 4cd2 01       		.byte	0x1
 5517 4cd3 2E       		.uleb128 0x2e
 5518 4cd4 5F5F6E65 		.ascii "__need_size_t \0"
 5518      65645F73 
 5518      697A655F 
 5518      742000
 5519 4ce3 03       		.byte	0x3
 5520 4ce4 35       		.uleb128 0x35
 5521 4ce5 0C       		.uleb128 0xc
 5522 4ce6 02       		.byte	0x2
 5523 4ce7 EE01     		.uleb128 0xee
 5524 4ce9 5F5F6E65 		.ascii "__need_size_t\0"
 5524      65645F73 
 5524      697A655F 
 5524      7400
 5525 4cf7 02       		.byte	0x2
 5526 4cf8 9103     		.uleb128 0x191
 5527 4cfa 4E554C4C 		.ascii "NULL\0"
 5527      00
 5528 4cff 01       		.byte	0x1
 5529 4d00 9603     		.uleb128 0x196
 5530 4d02 4E554C4C 		.ascii "NULL ((void *)0)\0"
 5530      20282876 
 5530      6F696420 
 5530      2A293029 
 5530      00
 5531 4d13 02       		.byte	0x2
 5532 4d14 9C03     		.uleb128 0x19c
 5533 4d16 5F5F6E65 		.ascii "__need_NULL\0"
GAS LISTING C:\Users\PRESID~1\AppData\Local\Temp\ccCA8Smq.s 			page 174


 5533      65645F4E 
 5533      554C4C00 
 5534 4d22 04       		.byte	0x4
 5535 4d23 01       		.byte	0x1
 5536 4d24 43       		.uleb128 0x43
 5537 4d25 5F5F5354 		.ascii "__STRING_H_SOURCED__ \0"
 5537      52494E47 
 5537      5F485F53 
 5537      4F555243 
 5537      45445F5F 
 5538 4d3b 02       		.byte	0x2
 5539 4d3c FB01     		.uleb128 0xfb
 5540 4d3e 5F5F5354 		.ascii "__STRING_H_SOURCED__\0"
 5540      52494E47 
 5540      5F485F53 
 5540      4F555243 
 5540      45445F5F 
 5541 4d53 04       		.byte	0x4
 5542 4d54 03       		.byte	0x3
 5543 4d55 31       		.uleb128 0x31
 5544 4d56 05       		.uleb128 0x5
 5545 4d57 02       		.byte	0x2
 5546 4d58 2B       		.uleb128 0x2b
 5547 4d59 5F5F6E65 		.ascii "__need_time_h\0"
 5547      65645F74 
 5547      696D655F 
 5547      6800
 5548 4d67 01       		.byte	0x1
 5549 4d68 2C       		.uleb128 0x2c
 5550 4d69 5F5F6E65 		.ascii "__need_time_t 1\0"
 5550      65645F74 
 5550      696D655F 
 5550      74203100 
 5551 4d79 03       		.byte	0x3
 5552 4d7a 2D       		.uleb128 0x2d
 5553 4d7b 04       		.uleb128 0x4
 5554 4d7c 02       		.byte	0x2
 5555 4d7d 54       		.uleb128 0x54
 5556 4d7e 5F5F6E65 		.ascii "__need_off_t\0"
 5556      65645F6F 
 5556      66665F74 
 5556      00
 5557 4d8b 02       		.byte	0x2
 5558 4d8c 6C       		.uleb128 0x6c
 5559 4d8d 5F5F6E65 		.ascii "__need___off64_t\0"
 5559      65645F5F 
 5559      5F6F6666 
 5559      36345F74 
 5559      00
 5560 4d9e 02       		.byte	0x2
 5561 4d9f 8401     		.uleb128 0x84
 5562 4da1 5F5F6E65 		.ascii "__need_ssize_t\0"
 5562      65645F73 
 5562      73697A65 
 5562      5F7400
 5563 4db0 01       		.byte	0x1
 5564 4db1 A001     		.uleb128 0xa0
GAS LISTING C:\Users\PRESID~1\AppData\Local\Temp\ccCA8Smq.s 			page 175


 5565 4db3 5F5F6861 		.ascii "__have_typedef_time_t 1\0"
 5565      76655F74 
 5565      79706564 
 5565      65665F74 
 5565      696D655F 
 5566 4dcb 02       		.byte	0x2
 5567 4dcc A301     		.uleb128 0xa3
 5568 4dce 5F5F6E65 		.ascii "__need_time_t\0"
 5568      65645F74 
 5568      696D655F 
 5568      7400
 5569 4ddc 04       		.byte	0x4
 5570 4ddd 02       		.byte	0x2
 5571 4dde 34       		.uleb128 0x34
 5572 4ddf 5F5F6E65 		.ascii "__need_struct_timespec\0"
 5572      65645F73 
 5572      74727563 
 5572      745F7469 
 5572      6D657370 
 5573 4df6 02       		.byte	0x2
 5574 4df7 35       		.uleb128 0x35
 5575 4df8 5F5F6E65 		.ascii "__need_wchar_decls\0"
 5575      65645F77 
 5575      63686172 
 5575      5F646563 
 5575      6C7300
 5576 4e0b 01       		.byte	0x1
 5577 4e0c 53       		.uleb128 0x53
 5578 4e0d 5F54494D 		.ascii "_TIME_H \0"
 5578      455F4820 
 5578      00
 5579 4e16 01       		.byte	0x1
 5580 4e17 5E       		.uleb128 0x5e
 5581 4e18 434C4F43 		.ascii "CLOCKS_PER_SEC ((clock_t)(1000))\0"
 5581      4B535F50 
 5581      45525F53 
 5581      45432028 
 5581      28636C6F 
 5582 4e39 01       		.byte	0x1
 5583 4e3a 5F       		.uleb128 0x5f
 5584 4e3b 434C4B5F 		.ascii "CLK_TCK CLOCKS_PER_SEC\0"
 5584      54434B20 
 5584      434C4F43 
 5584      4B535F50 
 5584      45525F53 
 5585 4e52 01       		.byte	0x1
 5586 4e53 61       		.uleb128 0x61
 5587 4e54 5F5F6E65 		.ascii "__need_struct_timespec 1\0"
 5587      65645F73 
 5587      74727563 
 5587      745F7469 
 5587      6D657370 
 5588 4e6d 01       		.byte	0x1
 5589 4e6e 62       		.uleb128 0x62
 5590 4e6f 5F5F6E65 		.ascii "__need_wchar_decls 1\0"
 5590      65645F77 
 5590      63686172 
GAS LISTING C:\Users\PRESID~1\AppData\Local\Temp\ccCA8Smq.s 			page 176


 5590      5F646563 
 5590      6C732031 
 5591 4e84 01       		.byte	0x1
 5592 4e85 9501     		.uleb128 0x95
 5593 4e87 5F5F7374 		.ascii "__struct_timespec_defined 1\0"
 5593      72756374 
 5593      5F74696D 
 5593      65737065 
 5593      635F6465 
 5594 4ea3 01       		.byte	0x1
 5595 4ea4 AF01     		.uleb128 0xaf
 5596 4ea6 5F5F6E65 		.ascii "__need_NULL \0"
 5596      65645F4E 
 5596      554C4C20 
 5596      00
 5597 4eb3 01       		.byte	0x1
 5598 4eb4 B001     		.uleb128 0xb0
 5599 4eb6 5F5F6E65 		.ascii "__need_wchar_t \0"
 5599      65645F77 
 5599      63686172 
 5599      5F742000 
 5600 4ec6 01       		.byte	0x1
 5601 4ec7 B101     		.uleb128 0xb1
 5602 4ec9 5F5F6E65 		.ascii "__need_size_t \0"
 5602      65645F73 
 5602      697A655F 
 5602      742000
 5603 4ed8 03       		.byte	0x3
 5604 4ed9 B201     		.uleb128 0xb2
 5605 4edb 0C       		.uleb128 0xc
 5606 4edc 02       		.byte	0x2
 5607 4edd EE01     		.uleb128 0xee
 5608 4edf 5F5F6E65 		.ascii "__need_size_t\0"
 5608      65645F73 
 5608      697A655F 
 5608      7400
 5609 4eed 02       		.byte	0x2
 5610 4eee DB02     		.uleb128 0x15b
 5611 4ef0 5F5F6E65 		.ascii "__need_wchar_t\0"
 5611      65645F77 
 5611      63686172 
 5611      5F7400
 5612 4eff 02       		.byte	0x2
 5613 4f00 9103     		.uleb128 0x191
 5614 4f02 4E554C4C 		.ascii "NULL\0"
 5614      00
 5615 4f07 01       		.byte	0x1
 5616 4f08 9603     		.uleb128 0x196
 5617 4f0a 4E554C4C 		.ascii "NULL ((void *)0)\0"
 5617      20282876 
 5617      6F696420 
 5617      2A293029 
 5617      00
 5618 4f1b 02       		.byte	0x2
 5619 4f1c 9C03     		.uleb128 0x19c
 5620 4f1e 5F5F6E65 		.ascii "__need_NULL\0"
 5620      65645F4E 
GAS LISTING C:\Users\PRESID~1\AppData\Local\Temp\ccCA8Smq.s 			page 177


 5620      554C4C00 
 5621 4f2a 04       		.byte	0x4
 5622 4f2b 02       		.byte	0x2
 5623 4f2c A204     		.uleb128 0x222
 5624 4f2e 5F5F6E65 		.ascii "__need_time_t\0"
 5624      65645F74 
 5624      696D655F 
 5624      7400
 5625 4f3c 02       		.byte	0x2
 5626 4f3d A304     		.uleb128 0x223
 5627 4f3f 5F5F6E65 		.ascii "__need_struct_timespec\0"
 5627      65645F73 
 5627      74727563 
 5627      745F7469 
 5627      6D657370 
 5628 4f56 02       		.byte	0x2
 5629 4f57 A404     		.uleb128 0x224
 5630 4f59 5F5F6E65 		.ascii "__need_wchar_decls\0"
 5630      65645F77 
 5630      63686172 
 5630      5F646563 
 5630      6C7300
 5631 4f6c 04       		.byte	0x4
 5632 4f6d 01       		.byte	0x1
 5633 4f6e 38       		.uleb128 0x38
 5634 4f6f 53505554 		.ascii "SPUT_VERSION_MAJOR 1\0"
 5634      5F564552 
 5634      53494F4E 
 5634      5F4D414A 
 5634      4F522031 
 5635 4f84 01       		.byte	0x1
 5636 4f85 39       		.uleb128 0x39
 5637 4f86 53505554 		.ascii "SPUT_VERSION_MINOR 4\0"
 5637      5F564552 
 5637      53494F4E 
 5637      5F4D494E 
 5637      4F522034 
 5638 4f9b 01       		.byte	0x1
 5639 4f9c 3A       		.uleb128 0x3a
 5640 4f9d 53505554 		.ascii "SPUT_VERSION_PATCH 0\0"
 5640      5F564552 
 5640      53494F4E 
 5640      5F504154 
 5640      43482030 
 5641 4fb2 01       		.byte	0x1
 5642 4fb3 3B       		.uleb128 0x3b
 5643 4fb4 53505554 		.ascii "SPUT_VERSION_STRING \"1.4.0\"\0"
 5643      5F564552 
 5643      53494F4E 
 5643      5F535452 
 5643      494E4720 
 5644 4fd0 01       		.byte	0x1
 5645 4fd1 3D       		.uleb128 0x3d
 5646 4fd2 53505554 		.ascii "SPUT_DEFAULT_SUITE_NAME \"Unlabeled Suite\"\0"
 5646      5F444546 
 5646      41554C54 
 5646      5F535549 
GAS LISTING C:\Users\PRESID~1\AppData\Local\Temp\ccCA8Smq.s 			page 178


 5646      54455F4E 
 5647 4ffc 01       		.byte	0x1
 5648 4ffd 3E       		.uleb128 0x3e
 5649 4ffe 53505554 		.ascii "SPUT_DEFAULT_CHECK_NAME \"Unlabeled Check\"\0"
 5649      5F444546 
 5649      41554C54 
 5649      5F434845 
 5649      434B5F4E 
 5650 5028 01       		.byte	0x1
 5651 5029 40       		.uleb128 0x40
 5652 502a 53505554 		.ascii "SPUT_INITIALIZED 0x06\0"
 5652      5F494E49 
 5652      5449414C 
 5652      495A4544 
 5652      20307830 
 5653 5040 01       		.byte	0x1
 5654 5041 77       		.uleb128 0x77
 5655 5042 5F737075 		.ascii "_sput_die_unless_initialized() if (__sput.initialized != SPUT_INITIALIZED) { fputs(\"sput_
 5655      745F6469 
 5655      655F756E 
 5655      6C657373 
 5655      5F696E69 
 5656 50d6 01       		.byte	0x1
 5657 50d7 7F       		.uleb128 0x7f
 5658 50d8 5F737075 		.ascii "_sput_die_unless_suite_set() if (! __sput.suite.name) { fputs(\"sput_enter_suite() omitted
 5658      745F6469 
 5658      655F756E 
 5658      6C657373 
 5658      5F737569 
 5659 5159 01       		.byte	0x1
 5660 515a 8701     		.uleb128 0x87
 5661 515c 5F737075 		.ascii "_sput_die_unless_test_set() if (! __sput.test.name) { fputs(\"sput_run_test() omitted\\n\"
 5661      745F6469 
 5661      655F756E 
 5661      6C657373 
 5661      5F746573 
 5662 51d8 01       		.byte	0x1
 5663 51d9 8F01     		.uleb128 0x8f
 5664 51db 5F737075 		.ascii "_sput_check_failed() { _sput_die_unless_initialized(); _sput_die_unless_suite_set(); __spu
 5664      745F6368 
 5664      65636B5F 
 5664      6661696C 
 5664      65642829 
 5665 535b 01       		.byte	0x1
 5666 535c 9F01     		.uleb128 0x9f
 5667 535e 5F737075 		.ascii "_sput_check_succeeded() { _sput_die_unless_initialized(); _sput_die_unless_suite_set(); __
 5667      745F6368 
 5667      65636B5F 
 5667      73756363 
 5667      65656465 
 5668 5461 01       		.byte	0x1
 5669 5462 B101     		.uleb128 0xb1
 5670 5464 73707574 		.ascii "sput_start_testing() do { memset(&__sput, 0, sizeof(__sput)); __sput.out = stdout; __sput.
 5670      5F737461 
 5670      72745F74 
 5670      65737469 
 5670      6E672829 
GAS LISTING C:\Users\PRESID~1\AppData\Local\Temp\ccCA8Smq.s 			page 179


 5671 550a 01       		.byte	0x1
 5672 550b BA01     		.uleb128 0xba
 5673 550d 73707574 		.ascii "sput_leave_suite() do { float failpls = 0.0f; _sput_die_unless_initialized(); _sput_die_un
 5673      5F6C6561 
 5673      76655F73 
 5673      75697465 
 5673      28292064 
 5674 571f 01       		.byte	0x1
 5675 5720 CD01     		.uleb128 0xcd
 5676 5722 73707574 		.ascii "sput_get_return_value() (__sput.overall.nok > 0 ? EXIT_FAILURE : EXIT_SUCCESS)\0"
 5676      5F676574 
 5676      5F726574 
 5676      75726E5F 
 5676      76616C75 
 5677 5771 01       		.byte	0x1
 5678 5772 D101     		.uleb128 0xd1
 5679 5774 73707574 		.ascii "sput_enter_suite(_name) do { _sput_die_unless_initialized(); if (__sput.suite.name) { sput
 5679      5F656E74 
 5679      65725F73 
 5679      75697465 
 5679      285F6E61 
 5680 58c0 01       		.byte	0x1
 5681 58c1 E001     		.uleb128 0xe0
 5682 58c3 73707574 		.ascii "sput_finish_testing() do { float failpft = 0.0f; _sput_die_unless_initialized(); if (__spu
 5682      5F66696E 
 5682      6973685F 
 5682      74657374 
 5682      696E6728 
 5683 5b3a 01       		.byte	0x1
 5684 5b3b F901     		.uleb128 0xf9
 5685 5b3d 73707574 		.ascii "sput_set_output_stream(_fp) do { __sput.out = _fp != NULL ? _fp : stdout; } while (0)\0"
 5685      5F736574 
 5685      5F6F7574 
 5685      7075745F 
 5685      73747265 
 5686 5b93 01       		.byte	0x1
 5687 5b94 FF01     		.uleb128 0xff
 5688 5b96 73707574 		.ascii "sput_fail_if(_cond,_name) do { _sput_die_unless_initialized(); _sput_die_unless_suite_set(
 5688      5F666169 
 5688      6C5F6966 
 5688      285F636F 
 5688      6E642C5F 
 5689 5d2c 01       		.byte	0x1
 5690 5d2d 9602     		.uleb128 0x116
 5691 5d2f 73707574 		.ascii "sput_fail_unless(_cond,_name) do { _sput_die_unless_initialized(); _sput_die_unless_suite_
 5691      5F666169 
 5691      6C5F756E 
 5691      6C657373 
 5691      285F636F 
 5692 5ecf 01       		.byte	0x1
 5693 5ed0 AD02     		.uleb128 0x12d
 5694 5ed2 73707574 		.ascii "sput_run_test(_func) do { _sput_die_unless_initialized(); _sput_die_unless_suite_set(); me
 5694      5F72756E 
 5694      5F746573 
 5694      74285F66 
 5694      756E6329 
 5695 5f88 04       		.byte	0x4
GAS LISTING C:\Users\PRESID~1\AppData\Local\Temp\ccCA8Smq.s 			page 180


 5696 5f89 04       		.byte	0x4
 5697 5f8a 00       		.byte	0
 5698              		.section	.debug_line,"dr"
 5699              	Ldebug_line0:
 5700 0000 76070000 		.section	.debug_str,"dr"
 5700      03007001 
 5700      00000101 
 5700      FB0E0D00 
 5700      01010101 
 5701              	LASF0:
 5702 0000 6661696C 		.ascii "failpls\0"
 5702      706C7300 
 5703              		.ident	"GCC: (MinGW.org GCC-8.2.0-3) 8.2.0"
GAS LISTING C:\Users\PRESID~1\AppData\Local\Temp\ccCA8Smq.s 			page 181


DEFINED SYMBOLS
                            *ABS*:00000000 os_start_ext_prg_test.c
C:\Users\PRESID~1\AppData\Local\Temp\ccCA8Smq.s:5      .text:00000000 _fprintf
C:\Users\PRESID~1\AppData\Local\Temp\ccCA8Smq.s:42     .bss:00000000 ___sput
C:\Users\PRESID~1\AppData\Local\Temp\ccCA8Smq.s:44     .text:00000030 _count_vowels
C:\Users\PRESID~1\AppData\Local\Temp\ccCA8Smq.s:162    .text:00000086 _test_vowels_present
C:\Users\PRESID~1\AppData\Local\Temp\ccCA8Smq.s:1062   .text:00000e8a _test_no_vowels_present
C:\Users\PRESID~1\AppData\Local\Temp\ccCA8Smq.s:1957   .text:00001c89 _main

UNDEFINED SYMBOLS
__imp___iob
___main
___mingw_vfprintf
_fwrite
_exit
_memset
_time
_difftime
