GAS LISTING C:\Users\PRESID~1\AppData\Local\Temp\cc4dUwFK.s 			page 1


   1              		.file	"hal_driver_fs_fat.c"
   2              		.text
   3              	Ltext0:
   4              		.comm	_FILE_HANDLER_POOL, 20, 2
   5              	.lcomm _FILE_HANDLER_POOL_USED,20,4
   7              	_fopen:
   8              	LFB0:
   9              		.file 1 "E:/NeuOrga/Programmieren/c_cpp/github_os/input/src/os_sim/hal_driver_fs_fat.c"
   1:E:/NeuOrga/Programmieren/c_cpp/github_os/input/src/os_sim\hal_driver_fs_fat.c **** #include "..\os_base\os_firstinc.h"
   2:E:/NeuOrga/Programmieren/c_cpp/github_os/input/src/os_sim\hal_driver_fs_fat.c **** #include "..\os_drivers\hal_driver_fs_fat.h"
   3:E:/NeuOrga/Programmieren/c_cpp/github_os/input/src/os_sim\hal_driver_fs_fat.c **** 
   4:E:/NeuOrga/Programmieren/c_cpp/github_os/input/src/os_sim\hal_driver_fs_fat.c **** #define NR_OF_FILE_HANDLERS 5
   5:E:/NeuOrga/Programmieren/c_cpp/github_os/input/src/os_sim\hal_driver_fs_fat.c **** 
   6:E:/NeuOrga/Programmieren/c_cpp/github_os/input/src/os_sim\hal_driver_fs_fat.c **** FILE* FILE_HANDLER_POOL[NR_OF_FILE_HANDLERS];
   7:E:/NeuOrga/Programmieren/c_cpp/github_os/input/src/os_sim\hal_driver_fs_fat.c **** static unsigned FILE_HANDLER_POOL_USED[NR_OF_FILE_HANDLERS];
   8:E:/NeuOrga/Programmieren/c_cpp/github_os/input/src/os_sim\hal_driver_fs_fat.c **** Local FILE* fopen(const char *filename, const char *mode);
   9:E:/NeuOrga/Programmieren/c_cpp/github_os/input/src/os_sim\hal_driver_fs_fat.c **** Local int fclose(FILE* file_ptr);
  10:E:/NeuOrga/Programmieren/c_cpp/github_os/input/src/os_sim\hal_driver_fs_fat.c **** 
  11:E:/NeuOrga/Programmieren/c_cpp/github_os/input/src/os_sim\hal_driver_fs_fat.c **** FILE* fopen(const char *filename, const char *mode)
  12:E:/NeuOrga/Programmieren/c_cpp/github_os/input/src/os_sim\hal_driver_fs_fat.c **** {
  10              		.loc 1 12 0
  11              		.cfi_startproc
  12 0000 55       		pushl	%ebp
  13              		.cfi_def_cfa_offset 8
  14              		.cfi_offset 5, -8
  15 0001 89E5     		movl	%esp, %ebp
  16              		.cfi_def_cfa_register 5
  17 0003 83EC10   		subl	$16, %esp
  13:E:/NeuOrga/Programmieren/c_cpp/github_os/input/src/os_sim\hal_driver_fs_fat.c ****    uint32 i;
  14:E:/NeuOrga/Programmieren/c_cpp/github_os/input/src/os_sim\hal_driver_fs_fat.c ****    FILE* file_ptr = 0;
  18              		.loc 1 14 0
  19 0006 C745F800 		movl	$0, -8(%ebp)
  19      000000
  15:E:/NeuOrga/Programmieren/c_cpp/github_os/input/src/os_sim\hal_driver_fs_fat.c ****    uint32 current_file_obj_number = 0;
  20              		.loc 1 15 0
  21 000d C745F400 		movl	$0, -12(%ebp)
  21      000000
  16:E:/NeuOrga/Programmieren/c_cpp/github_os/input/src/os_sim\hal_driver_fs_fat.c **** 
  17:E:/NeuOrga/Programmieren/c_cpp/github_os/input/src/os_sim\hal_driver_fs_fat.c ****    for(i = 0; i < NR_OF_FILE_HANDLERS; i++)
  22              		.loc 1 17 0
  23 0014 C745FC00 		movl	$0, -4(%ebp)
  23      000000
  24 001b E91C0100 		jmp	L2
  24      00
  25              	L21:
  18:E:/NeuOrga/Programmieren/c_cpp/github_os/input/src/os_sim\hal_driver_fs_fat.c ****    {
  19:E:/NeuOrga/Programmieren/c_cpp/github_os/input/src/os_sim\hal_driver_fs_fat.c ****       if(FILE_HANDLER_POOL_USED[i] == False)
  26              		.loc 1 19 0
  27 0020 8B45FC   		movl	-4(%ebp), %eax
  28 0023 8B048500 		movl	_FILE_HANDLER_POOL_USED(,%eax,4), %eax
  28      000000
  29 002a 85C0     		testl	%eax, %eax
  30 002c 0F850701 		jne	L3
  30      0000
  20:E:/NeuOrga/Programmieren/c_cpp/github_os/input/src/os_sim\hal_driver_fs_fat.c ****       {
  21:E:/NeuOrga/Programmieren/c_cpp/github_os/input/src/os_sim\hal_driver_fs_fat.c ****          /* get the next free object number */
  22:E:/NeuOrga/Programmieren/c_cpp/github_os/input/src/os_sim\hal_driver_fs_fat.c ****          FILE_HANDLER_POOL_USED[i] = True;
GAS LISTING C:\Users\PRESID~1\AppData\Local\Temp\cc4dUwFK.s 			page 2


  31              		.loc 1 22 0
  32 0032 8B45FC   		movl	-4(%ebp), %eax
  33 0035 C7048500 		movl	$1, _FILE_HANDLER_POOL_USED(,%eax,4)
  33      00000001 
  33      000000
  23:E:/NeuOrga/Programmieren/c_cpp/github_os/input/src/os_sim\hal_driver_fs_fat.c ****          current_file_obj_number   = i;
  34              		.loc 1 23 0
  35 0040 8B45FC   		movl	-4(%ebp), %eax
  36 0043 8945F4   		movl	%eax, -12(%ebp)
  24:E:/NeuOrga/Programmieren/c_cpp/github_os/input/src/os_sim\hal_driver_fs_fat.c **** 
  25:E:/NeuOrga/Programmieren/c_cpp/github_os/input/src/os_sim\hal_driver_fs_fat.c ****          /* get the next free object (via ptr)*/
  26:E:/NeuOrga/Programmieren/c_cpp/github_os/input/src/os_sim\hal_driver_fs_fat.c ****          file_ptr = FILE_HANDLER_POOL[current_file_obj_number];
  37              		.loc 1 26 0
  38 0046 8B45F4   		movl	-12(%ebp), %eax
  39 0049 8B048500 		movl	_FILE_HANDLER_POOL(,%eax,4), %eax
  39      000000
  40 0050 8945F8   		movl	%eax, -8(%ebp)
  27:E:/NeuOrga/Programmieren/c_cpp/github_os/input/src/os_sim\hal_driver_fs_fat.c **** 
  28:E:/NeuOrga/Programmieren/c_cpp/github_os/input/src/os_sim\hal_driver_fs_fat.c ****          /* set the mode:
  29:E:/NeuOrga/Programmieren/c_cpp/github_os/input/src/os_sim\hal_driver_fs_fat.c ****          "r"	Textdatei zum lesen und eröffnen
  30:E:/NeuOrga/Programmieren/c_cpp/github_os/input/src/os_sim\hal_driver_fs_fat.c ****          "w"	Textdatei zum Schreiben erzeugen; gegebenenfalls alten Inhalt wegwerfen
  31:E:/NeuOrga/Programmieren/c_cpp/github_os/input/src/os_sim\hal_driver_fs_fat.c ****          "a"	anfügen; Textdatei zum Schreiben am Dateiende eröffnen oder erzeugen
  32:E:/NeuOrga/Programmieren/c_cpp/github_os/input/src/os_sim\hal_driver_fs_fat.c ****          "r+"	Textdatei zum Ändern eröffnen (Lesen und Schreiben)
  33:E:/NeuOrga/Programmieren/c_cpp/github_os/input/src/os_sim\hal_driver_fs_fat.c ****          "w+"	Textdatei zum Ändern erzeugen; gegebenenfalls alten Inhalt wegwerfen
  34:E:/NeuOrga/Programmieren/c_cpp/github_os/input/src/os_sim\hal_driver_fs_fat.c ****          "a+"	anfügen; Textdatei zum Ändern eröffnen oder erzeugen, Schreiben am Ende*/
  35:E:/NeuOrga/Programmieren/c_cpp/github_os/input/src/os_sim\hal_driver_fs_fat.c ****          switch(*mode)
  41              		.loc 1 35 0
  42 0053 8B450C   		movl	12(%ebp), %eax
  43 0056 8A00     		movb	(%eax), %al
  44 0058 0FBEC0   		movsbl	%al, %eax
  45 005b 83F872   		cmpl	$114, %eax
  46 005e 740C     		je	L5
  47 0060 83F877   		cmpl	$119, %eax
  48 0063 7429     		je	L6
  49 0065 83F861   		cmpl	$97, %eax
  50 0068 7446     		je	L7
  36:E:/NeuOrga/Programmieren/c_cpp/github_os/input/src/os_sim\hal_driver_fs_fat.c ****          {
  37:E:/NeuOrga/Programmieren/c_cpp/github_os/input/src/os_sim\hal_driver_fs_fat.c ****          case 'r':
  38:E:/NeuOrga/Programmieren/c_cpp/github_os/input/src/os_sim\hal_driver_fs_fat.c ****             if(*(mode+1) == '+')
  39:E:/NeuOrga/Programmieren/c_cpp/github_os/input/src/os_sim\hal_driver_fs_fat.c ****             {
  40:E:/NeuOrga/Programmieren/c_cpp/github_os/input/src/os_sim\hal_driver_fs_fat.c ****                file_ptr->mode_rplus = True;
  41:E:/NeuOrga/Programmieren/c_cpp/github_os/input/src/os_sim\hal_driver_fs_fat.c ****             }
  42:E:/NeuOrga/Programmieren/c_cpp/github_os/input/src/os_sim\hal_driver_fs_fat.c ****             else
  43:E:/NeuOrga/Programmieren/c_cpp/github_os/input/src/os_sim\hal_driver_fs_fat.c ****             {
  44:E:/NeuOrga/Programmieren/c_cpp/github_os/input/src/os_sim\hal_driver_fs_fat.c ****                file_ptr->mode_r = True;
  45:E:/NeuOrga/Programmieren/c_cpp/github_os/input/src/os_sim\hal_driver_fs_fat.c ****             }
  46:E:/NeuOrga/Programmieren/c_cpp/github_os/input/src/os_sim\hal_driver_fs_fat.c ****             break;
  47:E:/NeuOrga/Programmieren/c_cpp/github_os/input/src/os_sim\hal_driver_fs_fat.c ****          case 'w':
  48:E:/NeuOrga/Programmieren/c_cpp/github_os/input/src/os_sim\hal_driver_fs_fat.c ****             if(*(mode+1) == '+')
  49:E:/NeuOrga/Programmieren/c_cpp/github_os/input/src/os_sim\hal_driver_fs_fat.c ****             {
  50:E:/NeuOrga/Programmieren/c_cpp/github_os/input/src/os_sim\hal_driver_fs_fat.c ****                file_ptr->mode_wplus = True;
  51:E:/NeuOrga/Programmieren/c_cpp/github_os/input/src/os_sim\hal_driver_fs_fat.c ****             }
  52:E:/NeuOrga/Programmieren/c_cpp/github_os/input/src/os_sim\hal_driver_fs_fat.c ****             else
  53:E:/NeuOrga/Programmieren/c_cpp/github_os/input/src/os_sim\hal_driver_fs_fat.c ****             {
  54:E:/NeuOrga/Programmieren/c_cpp/github_os/input/src/os_sim\hal_driver_fs_fat.c ****                file_ptr->mode_w = True;
  55:E:/NeuOrga/Programmieren/c_cpp/github_os/input/src/os_sim\hal_driver_fs_fat.c ****             }
  56:E:/NeuOrga/Programmieren/c_cpp/github_os/input/src/os_sim\hal_driver_fs_fat.c ****             break;
GAS LISTING C:\Users\PRESID~1\AppData\Local\Temp\cc4dUwFK.s 			page 3


  57:E:/NeuOrga/Programmieren/c_cpp/github_os/input/src/os_sim\hal_driver_fs_fat.c ****          case 'a':
  58:E:/NeuOrga/Programmieren/c_cpp/github_os/input/src/os_sim\hal_driver_fs_fat.c ****             if(*(mode+1) == '+')
  59:E:/NeuOrga/Programmieren/c_cpp/github_os/input/src/os_sim\hal_driver_fs_fat.c ****             {
  60:E:/NeuOrga/Programmieren/c_cpp/github_os/input/src/os_sim\hal_driver_fs_fat.c ****                file_ptr->mode_aplus = True;
  61:E:/NeuOrga/Programmieren/c_cpp/github_os/input/src/os_sim\hal_driver_fs_fat.c ****             }
  62:E:/NeuOrga/Programmieren/c_cpp/github_os/input/src/os_sim\hal_driver_fs_fat.c ****             else
  63:E:/NeuOrga/Programmieren/c_cpp/github_os/input/src/os_sim\hal_driver_fs_fat.c ****             {
  64:E:/NeuOrga/Programmieren/c_cpp/github_os/input/src/os_sim\hal_driver_fs_fat.c ****                file_ptr->mode_a = True;
  65:E:/NeuOrga/Programmieren/c_cpp/github_os/input/src/os_sim\hal_driver_fs_fat.c ****             }
  66:E:/NeuOrga/Programmieren/c_cpp/github_os/input/src/os_sim\hal_driver_fs_fat.c ****             break;
  67:E:/NeuOrga/Programmieren/c_cpp/github_os/input/src/os_sim\hal_driver_fs_fat.c ****          default:
  68:E:/NeuOrga/Programmieren/c_cpp/github_os/input/src/os_sim\hal_driver_fs_fat.c ****             break;
  51              		.loc 1 68 0
  52 006a EB65     		jmp	L10
  53              	L5:
  38:E:/NeuOrga/Programmieren/c_cpp/github_os/input/src/os_sim\hal_driver_fs_fat.c ****             {
  54              		.loc 1 38 0
  55 006c 8B450C   		movl	12(%ebp), %eax
  56 006f 40       		incl	%eax
  57 0070 8A00     		movb	(%eax), %al
  58 0072 3C2B     		cmpb	$43, %al
  59 0074 750C     		jne	L8
  40:E:/NeuOrga/Programmieren/c_cpp/github_os/input/src/os_sim\hal_driver_fs_fat.c ****             }
  60              		.loc 1 40 0
  61 0076 8B45F8   		movl	-8(%ebp), %eax
  62 0079 8A10     		movb	(%eax), %dl
  63 007b 83CA08   		orl	$8, %edx
  64 007e 8810     		movb	%dl, (%eax)
  46:E:/NeuOrga/Programmieren/c_cpp/github_os/input/src/os_sim\hal_driver_fs_fat.c ****          case 'w':
  65              		.loc 1 46 0
  66 0080 EB4F     		jmp	L10
  67              	L8:
  44:E:/NeuOrga/Programmieren/c_cpp/github_os/input/src/os_sim\hal_driver_fs_fat.c ****             }
  68              		.loc 1 44 0
  69 0082 8B45F8   		movl	-8(%ebp), %eax
  70 0085 8A10     		movb	(%eax), %dl
  71 0087 83CA01   		orl	$1, %edx
  72 008a 8810     		movb	%dl, (%eax)
  46:E:/NeuOrga/Programmieren/c_cpp/github_os/input/src/os_sim\hal_driver_fs_fat.c ****          case 'w':
  73              		.loc 1 46 0
  74 008c EB43     		jmp	L10
  75              	L6:
  48:E:/NeuOrga/Programmieren/c_cpp/github_os/input/src/os_sim\hal_driver_fs_fat.c ****             {
  76              		.loc 1 48 0
  77 008e 8B450C   		movl	12(%ebp), %eax
  78 0091 40       		incl	%eax
  79 0092 8A00     		movb	(%eax), %al
  80 0094 3C2B     		cmpb	$43, %al
  81 0096 750C     		jne	L11
  50:E:/NeuOrga/Programmieren/c_cpp/github_os/input/src/os_sim\hal_driver_fs_fat.c ****             }
  82              		.loc 1 50 0
  83 0098 8B45F8   		movl	-8(%ebp), %eax
  84 009b 8A10     		movb	(%eax), %dl
  85 009d 83CA10   		orl	$16, %edx
  86 00a0 8810     		movb	%dl, (%eax)
  56:E:/NeuOrga/Programmieren/c_cpp/github_os/input/src/os_sim\hal_driver_fs_fat.c ****          case 'a':
  87              		.loc 1 56 0
GAS LISTING C:\Users\PRESID~1\AppData\Local\Temp\cc4dUwFK.s 			page 4


  88 00a2 EB2D     		jmp	L10
  89              	L11:
  54:E:/NeuOrga/Programmieren/c_cpp/github_os/input/src/os_sim\hal_driver_fs_fat.c ****             }
  90              		.loc 1 54 0
  91 00a4 8B45F8   		movl	-8(%ebp), %eax
  92 00a7 8A10     		movb	(%eax), %dl
  93 00a9 83CA02   		orl	$2, %edx
  94 00ac 8810     		movb	%dl, (%eax)
  56:E:/NeuOrga/Programmieren/c_cpp/github_os/input/src/os_sim\hal_driver_fs_fat.c ****          case 'a':
  95              		.loc 1 56 0
  96 00ae EB21     		jmp	L10
  97              	L7:
  58:E:/NeuOrga/Programmieren/c_cpp/github_os/input/src/os_sim\hal_driver_fs_fat.c ****             {
  98              		.loc 1 58 0
  99 00b0 8B450C   		movl	12(%ebp), %eax
 100 00b3 40       		incl	%eax
 101 00b4 8A00     		movb	(%eax), %al
 102 00b6 3C2B     		cmpb	$43, %al
 103 00b8 750C     		jne	L13
  60:E:/NeuOrga/Programmieren/c_cpp/github_os/input/src/os_sim\hal_driver_fs_fat.c ****             }
 104              		.loc 1 60 0
 105 00ba 8B45F8   		movl	-8(%ebp), %eax
 106 00bd 8A10     		movb	(%eax), %dl
 107 00bf 83CA20   		orl	$32, %edx
 108 00c2 8810     		movb	%dl, (%eax)
  66:E:/NeuOrga/Programmieren/c_cpp/github_os/input/src/os_sim\hal_driver_fs_fat.c ****          default:
 109              		.loc 1 66 0
 110 00c4 EB0A     		jmp	L23
 111              	L13:
  64:E:/NeuOrga/Programmieren/c_cpp/github_os/input/src/os_sim\hal_driver_fs_fat.c ****             }
 112              		.loc 1 64 0
 113 00c6 8B45F8   		movl	-8(%ebp), %eax
 114 00c9 8A10     		movb	(%eax), %dl
 115 00cb 83CA04   		orl	$4, %edx
 116 00ce 8810     		movb	%dl, (%eax)
 117              	L23:
  66:E:/NeuOrga/Programmieren/c_cpp/github_os/input/src/os_sim\hal_driver_fs_fat.c ****          default:
 118              		.loc 1 66 0
 119 00d0 90       		nop
 120              	L10:
  69:E:/NeuOrga/Programmieren/c_cpp/github_os/input/src/os_sim\hal_driver_fs_fat.c ****          }
  70:E:/NeuOrga/Programmieren/c_cpp/github_os/input/src/os_sim\hal_driver_fs_fat.c ****          /* copy the file name */
  71:E:/NeuOrga/Programmieren/c_cpp/github_os/input/src/os_sim\hal_driver_fs_fat.c ****          for(i = 0; (i < file_ptr->max_file_name_size); i++ )
 121              		.loc 1 71 0
 122 00d1 C745FC00 		movl	$0, -4(%ebp)
 122      000000
 123 00d8 EB1F     		jmp	L15
 124              	L18:
  72:E:/NeuOrga/Programmieren/c_cpp/github_os/input/src/os_sim\hal_driver_fs_fat.c ****          {
  73:E:/NeuOrga/Programmieren/c_cpp/github_os/input/src/os_sim\hal_driver_fs_fat.c ****             if( *(filename+i)=='\0' )
 125              		.loc 1 73 0
 126 00da 8B5508   		movl	8(%ebp), %edx
 127 00dd 8B45FC   		movl	-4(%ebp), %eax
 128 00e0 01D0     		addl	%edx, %eax
 129 00e2 8A00     		movb	(%eax), %al
 130 00e4 84C0     		testb	%al, %al
 131 00e6 750E     		jne	L16
GAS LISTING C:\Users\PRESID~1\AppData\Local\Temp\cc4dUwFK.s 			page 5


  74:E:/NeuOrga/Programmieren/c_cpp/github_os/input/src/os_sim\hal_driver_fs_fat.c ****             {
  75:E:/NeuOrga/Programmieren/c_cpp/github_os/input/src/os_sim\hal_driver_fs_fat.c ****                file_ptr->used_file_name_size = i+1;
 132              		.loc 1 75 0
 133 00e8 8B45FC   		movl	-4(%ebp), %eax
 134 00eb 8D5001   		leal	1(%eax), %edx
 135 00ee 8B45F8   		movl	-8(%ebp), %eax
 136 00f1 895008   		movl	%edx, 8(%eax)
  76:E:/NeuOrga/Programmieren/c_cpp/github_os/input/src/os_sim\hal_driver_fs_fat.c ****                break;
 137              		.loc 1 76 0
 138 00f4 EB0E     		jmp	L17
 139              	L16:
  71:E:/NeuOrga/Programmieren/c_cpp/github_os/input/src/os_sim\hal_driver_fs_fat.c ****          {
 140              		.loc 1 71 0 discriminator 2
 141 00f6 FF45FC   		incl	-4(%ebp)
 142              	L15:
  71:E:/NeuOrga/Programmieren/c_cpp/github_os/input/src/os_sim\hal_driver_fs_fat.c ****          {
 143              		.loc 1 71 0 is_stmt 0 discriminator 1
 144 00f9 8B45F8   		movl	-8(%ebp), %eax
 145 00fc 8B4004   		movl	4(%eax), %eax
 146 00ff 3B45FC   		cmpl	-4(%ebp), %eax
 147 0102 77D6     		ja	L18
 148              	L17:
  77:E:/NeuOrga/Programmieren/c_cpp/github_os/input/src/os_sim\hal_driver_fs_fat.c ****             }
  78:E:/NeuOrga/Programmieren/c_cpp/github_os/input/src/os_sim\hal_driver_fs_fat.c ****          }
  79:E:/NeuOrga/Programmieren/c_cpp/github_os/input/src/os_sim\hal_driver_fs_fat.c ****          for(i = 0; (i < file_ptr->used_file_name_size); i++ )
 149              		.loc 1 79 0 is_stmt 1
 150 0104 C745FC00 		movl	$0, -4(%ebp)
 150      000000
 151 010b EB1A     		jmp	L19
 152              	L20:
  80:E:/NeuOrga/Programmieren/c_cpp/github_os/input/src/os_sim\hal_driver_fs_fat.c ****          {
  81:E:/NeuOrga/Programmieren/c_cpp/github_os/input/src/os_sim\hal_driver_fs_fat.c ****             *(file_ptr->name+i) = *(filename+i);
 153              		.loc 1 81 0 discriminator 3
 154 010d 8B5508   		movl	8(%ebp), %edx
 155 0110 8B45FC   		movl	-4(%ebp), %eax
 156 0113 01D0     		addl	%edx, %eax
 157 0115 8A00     		movb	(%eax), %al
 158 0117 88C2     		movb	%al, %dl
 159 0119 8B4DF8   		movl	-8(%ebp), %ecx
 160 011c 8B45FC   		movl	-4(%ebp), %eax
 161 011f 01C8     		addl	%ecx, %eax
 162 0121 88500C   		movb	%dl, 12(%eax)
  79:E:/NeuOrga/Programmieren/c_cpp/github_os/input/src/os_sim\hal_driver_fs_fat.c ****          {
 163              		.loc 1 79 0 discriminator 3
 164 0124 FF45FC   		incl	-4(%ebp)
 165              	L19:
  79:E:/NeuOrga/Programmieren/c_cpp/github_os/input/src/os_sim\hal_driver_fs_fat.c ****          {
 166              		.loc 1 79 0 is_stmt 0 discriminator 1
 167 0127 8B45F8   		movl	-8(%ebp), %eax
 168 012a 8B4008   		movl	8(%eax), %eax
 169 012d 3B45FC   		cmpl	-4(%ebp), %eax
 170 0130 77DB     		ja	L20
  82:E:/NeuOrga/Programmieren/c_cpp/github_os/input/src/os_sim\hal_driver_fs_fat.c ****          }
  83:E:/NeuOrga/Programmieren/c_cpp/github_os/input/src/os_sim\hal_driver_fs_fat.c ****          if(1/*FS_FILE_EXISTS(file_ptr) == False*/)
  84:E:/NeuOrga/Programmieren/c_cpp/github_os/input/src/os_sim\hal_driver_fs_fat.c ****          {
  85:E:/NeuOrga/Programmieren/c_cpp/github_os/input/src/os_sim\hal_driver_fs_fat.c ****             file_ptr = 0;
 171              		.loc 1 85 0 is_stmt 1
GAS LISTING C:\Users\PRESID~1\AppData\Local\Temp\cc4dUwFK.s 			page 6


 172 0132 C745F800 		movl	$0, -8(%ebp)
 172      000000
 173              	L3:
  17:E:/NeuOrga/Programmieren/c_cpp/github_os/input/src/os_sim\hal_driver_fs_fat.c ****    {
 174              		.loc 1 17 0 discriminator 2
 175 0139 FF45FC   		incl	-4(%ebp)
 176              	L2:
  17:E:/NeuOrga/Programmieren/c_cpp/github_os/input/src/os_sim\hal_driver_fs_fat.c ****    {
 177              		.loc 1 17 0 is_stmt 0 discriminator 1
 178 013c 837DFC04 		cmpl	$4, -4(%ebp)
 179 0140 0F86DAFE 		jbe	L21
 179      FFFF
  86:E:/NeuOrga/Programmieren/c_cpp/github_os/input/src/os_sim\hal_driver_fs_fat.c ****          }
  87:E:/NeuOrga/Programmieren/c_cpp/github_os/input/src/os_sim\hal_driver_fs_fat.c ****       }
  88:E:/NeuOrga/Programmieren/c_cpp/github_os/input/src/os_sim\hal_driver_fs_fat.c ****    }
  89:E:/NeuOrga/Programmieren/c_cpp/github_os/input/src/os_sim\hal_driver_fs_fat.c ****    return file_ptr;
 180              		.loc 1 89 0 is_stmt 1
 181 0146 8B45F8   		movl	-8(%ebp), %eax
  90:E:/NeuOrga/Programmieren/c_cpp/github_os/input/src/os_sim\hal_driver_fs_fat.c **** }
 182              		.loc 1 90 0
 183 0149 C9       		leave
 184              		.cfi_restore 5
 185              		.cfi_def_cfa 4, 4
 186 014a C3       		ret
 187              		.cfi_endproc
 188              	LFE0:
 189              		.globl	_freopen
 191              	_freopen:
 192              	LFB1:
  91:E:/NeuOrga/Programmieren/c_cpp/github_os/input/src/os_sim\hal_driver_fs_fat.c **** FILE* freopen(const char *filename, const char *mode, FILE *stream)
  92:E:/NeuOrga/Programmieren/c_cpp/github_os/input/src/os_sim\hal_driver_fs_fat.c **** {
 193              		.loc 1 92 0
 194              		.cfi_startproc
 195 014b 55       		pushl	%ebp
 196              		.cfi_def_cfa_offset 8
 197              		.cfi_offset 5, -8
 198 014c 89E5     		movl	%esp, %ebp
 199              		.cfi_def_cfa_register 5
 200 014e 83EC18   		subl	$24, %esp
  93:E:/NeuOrga/Programmieren/c_cpp/github_os/input/src/os_sim\hal_driver_fs_fat.c ****    fclose(stream);
 201              		.loc 1 93 0
 202 0151 8B4510   		movl	16(%ebp), %eax
 203 0154 890424   		movl	%eax, (%esp)
 204 0157 E81E0000 		call	_fclose
 204      00
  94:E:/NeuOrga/Programmieren/c_cpp/github_os/input/src/os_sim\hal_driver_fs_fat.c ****    return fopen(filename, mode);
 205              		.loc 1 94 0
 206 015c 8B450C   		movl	12(%ebp), %eax
 207 015f 89442404 		movl	%eax, 4(%esp)
 208 0163 8B4508   		movl	8(%ebp), %eax
 209 0166 890424   		movl	%eax, (%esp)
 210 0169 E892FEFF 		call	_fopen
 210      FF
  95:E:/NeuOrga/Programmieren/c_cpp/github_os/input/src/os_sim\hal_driver_fs_fat.c **** }
 211              		.loc 1 95 0
 212 016e C9       		leave
 213              		.cfi_restore 5
GAS LISTING C:\Users\PRESID~1\AppData\Local\Temp\cc4dUwFK.s 			page 7


 214              		.cfi_def_cfa 4, 4
 215 016f C3       		ret
 216              		.cfi_endproc
 217              	LFE1:
 218              		.globl	_fflush
 220              	_fflush:
 221              	LFB2:
  96:E:/NeuOrga/Programmieren/c_cpp/github_os/input/src/os_sim\hal_driver_fs_fat.c **** int fflush(FILE* stream)
  97:E:/NeuOrga/Programmieren/c_cpp/github_os/input/src/os_sim\hal_driver_fs_fat.c **** {
 222              		.loc 1 97 0
 223              		.cfi_startproc
 224 0170 55       		pushl	%ebp
 225              		.cfi_def_cfa_offset 8
 226              		.cfi_offset 5, -8
 227 0171 89E5     		movl	%esp, %ebp
 228              		.cfi_def_cfa_register 5
  98:E:/NeuOrga/Programmieren/c_cpp/github_os/input/src/os_sim\hal_driver_fs_fat.c ****    /* no buffering implemented -> no need for flush */
  99:E:/NeuOrga/Programmieren/c_cpp/github_os/input/src/os_sim\hal_driver_fs_fat.c ****    return 0;
 229              		.loc 1 99 0
 230 0173 B8000000 		movl	$0, %eax
 230      00
 100:E:/NeuOrga/Programmieren/c_cpp/github_os/input/src/os_sim\hal_driver_fs_fat.c **** }
 231              		.loc 1 100 0
 232 0178 5D       		popl	%ebp
 233              		.cfi_restore 5
 234              		.cfi_def_cfa 4, 4
 235 0179 C3       		ret
 236              		.cfi_endproc
 237              	LFE2:
 239              	_fclose:
 240              	LFB3:
 101:E:/NeuOrga/Programmieren/c_cpp/github_os/input/src/os_sim\hal_driver_fs_fat.c **** int fclose(FILE* file_ptr)
 102:E:/NeuOrga/Programmieren/c_cpp/github_os/input/src/os_sim\hal_driver_fs_fat.c **** {
 241              		.loc 1 102 0
 242              		.cfi_startproc
 243 017a 55       		pushl	%ebp
 244              		.cfi_def_cfa_offset 8
 245              		.cfi_offset 5, -8
 246 017b 89E5     		movl	%esp, %ebp
 247              		.cfi_def_cfa_register 5
 248 017d 83EC10   		subl	$16, %esp
 103:E:/NeuOrga/Programmieren/c_cpp/github_os/input/src/os_sim\hal_driver_fs_fat.c ****    uint8 i = 0;
 249              		.loc 1 103 0
 250 0180 C645FF00 		movb	$0, -1(%ebp)
 104:E:/NeuOrga/Programmieren/c_cpp/github_os/input/src/os_sim\hal_driver_fs_fat.c **** 
 105:E:/NeuOrga/Programmieren/c_cpp/github_os/input/src/os_sim\hal_driver_fs_fat.c ****    file_ptr->mode_r = False;
 251              		.loc 1 105 0
 252 0184 8B4508   		movl	8(%ebp), %eax
 253 0187 8A10     		movb	(%eax), %dl
 254 0189 83E2FE   		andl	$-2, %edx
 255 018c 8810     		movb	%dl, (%eax)
 106:E:/NeuOrga/Programmieren/c_cpp/github_os/input/src/os_sim\hal_driver_fs_fat.c ****    file_ptr->mode_w = False;
 256              		.loc 1 106 0
 257 018e 8B4508   		movl	8(%ebp), %eax
 258 0191 8A10     		movb	(%eax), %dl
 259 0193 83E2FD   		andl	$-3, %edx
 260 0196 8810     		movb	%dl, (%eax)
GAS LISTING C:\Users\PRESID~1\AppData\Local\Temp\cc4dUwFK.s 			page 8


 107:E:/NeuOrga/Programmieren/c_cpp/github_os/input/src/os_sim\hal_driver_fs_fat.c ****    file_ptr->mode_a = False;
 261              		.loc 1 107 0
 262 0198 8B4508   		movl	8(%ebp), %eax
 263 019b 8A10     		movb	(%eax), %dl
 264 019d 83E2FB   		andl	$-5, %edx
 265 01a0 8810     		movb	%dl, (%eax)
 108:E:/NeuOrga/Programmieren/c_cpp/github_os/input/src/os_sim\hal_driver_fs_fat.c ****    file_ptr->mode_rplus = False;
 266              		.loc 1 108 0
 267 01a2 8B4508   		movl	8(%ebp), %eax
 268 01a5 8A10     		movb	(%eax), %dl
 269 01a7 83E2F7   		andl	$-9, %edx
 270 01aa 8810     		movb	%dl, (%eax)
 109:E:/NeuOrga/Programmieren/c_cpp/github_os/input/src/os_sim\hal_driver_fs_fat.c ****    file_ptr->mode_wplus = False;
 271              		.loc 1 109 0
 272 01ac 8B4508   		movl	8(%ebp), %eax
 273 01af 8A10     		movb	(%eax), %dl
 274 01b1 83E2EF   		andl	$-17, %edx
 275 01b4 8810     		movb	%dl, (%eax)
 110:E:/NeuOrga/Programmieren/c_cpp/github_os/input/src/os_sim\hal_driver_fs_fat.c ****    file_ptr->mode_aplus = False;
 276              		.loc 1 110 0
 277 01b6 8B4508   		movl	8(%ebp), %eax
 278 01b9 8A10     		movb	(%eax), %dl
 279 01bb 83E2DF   		andl	$-33, %edx
 280 01be 8810     		movb	%dl, (%eax)
 111:E:/NeuOrga/Programmieren/c_cpp/github_os/input/src/os_sim\hal_driver_fs_fat.c ****    for(i = 0; (i < file_ptr->max_file_name_size); i++ )
 281              		.loc 1 111 0
 282 01c0 C645FF00 		movb	$0, -1(%ebp)
 283 01c4 EB13     		jmp	L29
 284              	L30:
 112:E:/NeuOrga/Programmieren/c_cpp/github_os/input/src/os_sim\hal_driver_fs_fat.c ****    {
 113:E:/NeuOrga/Programmieren/c_cpp/github_os/input/src/os_sim\hal_driver_fs_fat.c ****       *(file_ptr->name+i) = 0x00;
 285              		.loc 1 113 0 discriminator 3
 286 01c6 0FB645FF 		movzbl	-1(%ebp), %eax
 287 01ca 8B5508   		movl	8(%ebp), %edx
 288 01cd C644020C 		movb	$0, 12(%edx,%eax)
 288      00
 111:E:/NeuOrga/Programmieren/c_cpp/github_os/input/src/os_sim\hal_driver_fs_fat.c ****    for(i = 0; (i < file_ptr->max_file_name_size); i++ )
 289              		.loc 1 111 0 discriminator 3
 290 01d2 8A45FF   		movb	-1(%ebp), %al
 291 01d5 40       		incl	%eax
 292 01d6 8845FF   		movb	%al, -1(%ebp)
 293              	L29:
 111:E:/NeuOrga/Programmieren/c_cpp/github_os/input/src/os_sim\hal_driver_fs_fat.c ****    for(i = 0; (i < file_ptr->max_file_name_size); i++ )
 294              		.loc 1 111 0 is_stmt 0 discriminator 1
 295 01d9 0FB655FF 		movzbl	-1(%ebp), %edx
 296 01dd 8B4508   		movl	8(%ebp), %eax
 297 01e0 8B4004   		movl	4(%eax), %eax
 298 01e3 39C2     		cmpl	%eax, %edx
 299 01e5 72DF     		jb	L30
 114:E:/NeuOrga/Programmieren/c_cpp/github_os/input/src/os_sim\hal_driver_fs_fat.c ****    }
 115:E:/NeuOrga/Programmieren/c_cpp/github_os/input/src/os_sim\hal_driver_fs_fat.c ****    file_ptr->used_file_name_size = 0;
 300              		.loc 1 115 0 is_stmt 1
 301 01e7 8B4508   		movl	8(%ebp), %eax
 302 01ea C7400800 		movl	$0, 8(%eax)
 302      000000
 116:E:/NeuOrga/Programmieren/c_cpp/github_os/input/src/os_sim\hal_driver_fs_fat.c ****    file_ptr = 0;
 303              		.loc 1 116 0
GAS LISTING C:\Users\PRESID~1\AppData\Local\Temp\cc4dUwFK.s 			page 9


 304 01f1 C7450800 		movl	$0, 8(%ebp)
 304      000000
 117:E:/NeuOrga/Programmieren/c_cpp/github_os/input/src/os_sim\hal_driver_fs_fat.c ****    return 0;
 305              		.loc 1 117 0
 306 01f8 B8000000 		movl	$0, %eax
 306      00
 118:E:/NeuOrga/Programmieren/c_cpp/github_os/input/src/os_sim\hal_driver_fs_fat.c **** }
 307              		.loc 1 118 0
 308 01fd C9       		leave
 309              		.cfi_restore 5
 310              		.cfi_def_cfa 4, 4
 311 01fe C3       		ret
 312              		.cfi_endproc
 313              	LFE3:
 314              		.globl	_remove
 316              	_remove:
 317              	LFB4:
 119:E:/NeuOrga/Programmieren/c_cpp/github_os/input/src/os_sim\hal_driver_fs_fat.c **** int remove(const char *filename)
 120:E:/NeuOrga/Programmieren/c_cpp/github_os/input/src/os_sim\hal_driver_fs_fat.c **** {
 318              		.loc 1 120 0
 319              		.cfi_startproc
 320 01ff 55       		pushl	%ebp
 321              		.cfi_def_cfa_offset 8
 322              		.cfi_offset 5, -8
 323 0200 89E5     		movl	%esp, %ebp
 324              		.cfi_def_cfa_register 5
 121:E:/NeuOrga/Programmieren/c_cpp/github_os/input/src/os_sim\hal_driver_fs_fat.c ****    /*#warn "fopen"*/
 122:E:/NeuOrga/Programmieren/c_cpp/github_os/input/src/os_sim\hal_driver_fs_fat.c ****    return 0;
 325              		.loc 1 122 0
 326 0202 B8000000 		movl	$0, %eax
 326      00
 123:E:/NeuOrga/Programmieren/c_cpp/github_os/input/src/os_sim\hal_driver_fs_fat.c **** }
 327              		.loc 1 123 0
 328 0207 5D       		popl	%ebp
 329              		.cfi_restore 5
 330              		.cfi_def_cfa 4, 4
 331 0208 C3       		ret
 332              		.cfi_endproc
 333              	LFE4:
 334              		.globl	_rename
 336              	_rename:
 337              	LFB5:
 124:E:/NeuOrga/Programmieren/c_cpp/github_os/input/src/os_sim\hal_driver_fs_fat.c **** int rename(const char *oldname, const char *newname)
 125:E:/NeuOrga/Programmieren/c_cpp/github_os/input/src/os_sim\hal_driver_fs_fat.c **** {
 338              		.loc 1 125 0
 339              		.cfi_startproc
 340 0209 55       		pushl	%ebp
 341              		.cfi_def_cfa_offset 8
 342              		.cfi_offset 5, -8
 343 020a 89E5     		movl	%esp, %ebp
 344              		.cfi_def_cfa_register 5
 126:E:/NeuOrga/Programmieren/c_cpp/github_os/input/src/os_sim\hal_driver_fs_fat.c ****    /*#warn "fopen"*/
 127:E:/NeuOrga/Programmieren/c_cpp/github_os/input/src/os_sim\hal_driver_fs_fat.c ****    return 0;
 345              		.loc 1 127 0
 346 020c B8000000 		movl	$0, %eax
 346      00
 128:E:/NeuOrga/Programmieren/c_cpp/github_os/input/src/os_sim\hal_driver_fs_fat.c **** }
GAS LISTING C:\Users\PRESID~1\AppData\Local\Temp\cc4dUwFK.s 			page 10


 347              		.loc 1 128 0
 348 0211 5D       		popl	%ebp
 349              		.cfi_restore 5
 350              		.cfi_def_cfa 4, 4
 351 0212 C3       		ret
 352              		.cfi_endproc
 353              	LFE5:
 354              		.globl	_fread
 356              	_fread:
 357              	LFB6:
 129:E:/NeuOrga/Programmieren/c_cpp/github_os/input/src/os_sim\hal_driver_fs_fat.c **** uint32 fread(void *ptr, uint32 size, uint32 nobj, FILE *stream)
 130:E:/NeuOrga/Programmieren/c_cpp/github_os/input/src/os_sim\hal_driver_fs_fat.c **** {
 358              		.loc 1 130 0
 359              		.cfi_startproc
 360 0213 55       		pushl	%ebp
 361              		.cfi_def_cfa_offset 8
 362              		.cfi_offset 5, -8
 363 0214 89E5     		movl	%esp, %ebp
 364              		.cfi_def_cfa_register 5
 131:E:/NeuOrga/Programmieren/c_cpp/github_os/input/src/os_sim\hal_driver_fs_fat.c ****    /*#warn "fopen"*/
 132:E:/NeuOrga/Programmieren/c_cpp/github_os/input/src/os_sim\hal_driver_fs_fat.c ****    return 0;
 365              		.loc 1 132 0
 366 0216 B8000000 		movl	$0, %eax
 366      00
 133:E:/NeuOrga/Programmieren/c_cpp/github_os/input/src/os_sim\hal_driver_fs_fat.c **** }
 367              		.loc 1 133 0
 368 021b 5D       		popl	%ebp
 369              		.cfi_restore 5
 370              		.cfi_def_cfa 4, 4
 371 021c C3       		ret
 372              		.cfi_endproc
 373              	LFE6:
 374              		.globl	_fwrite
 376              	_fwrite:
 377              	LFB7:
 134:E:/NeuOrga/Programmieren/c_cpp/github_os/input/src/os_sim\hal_driver_fs_fat.c **** uint32 fwrite(const void *ptr, uint32 size, uint32 nobj, FILE *stream)
 135:E:/NeuOrga/Programmieren/c_cpp/github_os/input/src/os_sim\hal_driver_fs_fat.c **** {
 378              		.loc 1 135 0
 379              		.cfi_startproc
 380 021d 55       		pushl	%ebp
 381              		.cfi_def_cfa_offset 8
 382              		.cfi_offset 5, -8
 383 021e 89E5     		movl	%esp, %ebp
 384              		.cfi_def_cfa_register 5
 136:E:/NeuOrga/Programmieren/c_cpp/github_os/input/src/os_sim\hal_driver_fs_fat.c ****    /*#warn "fopen"*/
 137:E:/NeuOrga/Programmieren/c_cpp/github_os/input/src/os_sim\hal_driver_fs_fat.c ****    return 0;
 385              		.loc 1 137 0
 386 0220 B8000000 		movl	$0, %eax
 386      00
 138:E:/NeuOrga/Programmieren/c_cpp/github_os/input/src/os_sim\hal_driver_fs_fat.c **** }
 387              		.loc 1 138 0
 388 0225 5D       		popl	%ebp
 389              		.cfi_restore 5
 390              		.cfi_def_cfa 4, 4
 391 0226 C3       		ret
 392              		.cfi_endproc
 393              	LFE7:
GAS LISTING C:\Users\PRESID~1\AppData\Local\Temp\cc4dUwFK.s 			page 11


 394              	Letext0:
 395              		.file 2 "E:/NeuOrga/Programmieren/c_cpp/github_os/input/src/os_sim/../os_base/../os_base/os_base_t
 396              		.file 3 "E:/NeuOrga/Programmieren/c_cpp/github_os/input/src/os_sim/../os_drivers/hal_driver_fs_fat
 397 0227 90       		.section	.debug_info,"dr"
 398              	Ldebug_info0:
 399 0000 F5040000 		.long	0x4f5
 400 0004 0400     		.word	0x4
 401 0006 00000000 		.secrel32	Ldebug_abbrev0
 402 000a 04       		.byte	0x4
 403 000b 01       		.uleb128 0x1
 404 000c 474E5520 		.ascii "GNU C 4.9.3 -march=i386 -g3 -O0 -std=c90\0"
 404      4320342E 
 404      392E3320 
 404      2D6D6172 
 404      63683D69 
 405 0035 01       		.byte	0x1
 406 0036 453A5C4E 		.ascii "E:\\NeuOrga\\Programmieren\\c_cpp\\github_os\\input\\src\\os_sim\\hal_driver_fs_fat.c\0"
 406      65754F72 
 406      67615C50 
 406      726F6772 
 406      616D6D69 
 407 0084 00000000 		.long	Ltext0
 408 0088 27020000 		.long	Letext0-Ltext0
 409 008c 00000000 		.secrel32	Ldebug_line0
 410 0090 00000000 		.secrel32	Ldebug_macro0
 411 0094 02       		.uleb128 0x2
 412 0095 756E7369 		.ascii "unsigned_char_t\0"
 412      676E6564 
 412      5F636861 
 412      725F7400 
 413 00a5 02       		.byte	0x2
 414 00a6 1D       		.byte	0x1d
 415 00a7 AB000000 		.long	0xab
 416 00ab 03       		.uleb128 0x3
 417 00ac 01       		.byte	0x1
 418 00ad 08       		.byte	0x8
 419 00ae 756E7369 		.ascii "unsigned char\0"
 419      676E6564 
 419      20636861 
 419      7200
 420 00bc 02       		.uleb128 0x2
 421 00bd 75696E74 		.ascii "uint8\0"
 421      3800
 422 00c3 02       		.byte	0x2
 423 00c4 1F       		.byte	0x1f
 424 00c5 AB000000 		.long	0xab
 425 00c9 03       		.uleb128 0x3
 426 00ca 02       		.byte	0x2
 427 00cb 07       		.byte	0x7
 428 00cc 73686F72 		.ascii "short unsigned int\0"
 428      7420756E 
 428      7369676E 
 428      65642069 
 428      6E7400
 429 00df 03       		.uleb128 0x3
 430 00e0 04       		.byte	0x4
 431 00e1 07       		.byte	0x7
GAS LISTING C:\Users\PRESID~1\AppData\Local\Temp\cc4dUwFK.s 			page 12


 432 00e2 6C6F6E67 		.ascii "long unsigned int\0"
 432      20756E73 
 432      69676E65 
 432      6420696E 
 432      7400
 433 00f4 02       		.uleb128 0x2
 434 00f5 75696E74 		.ascii "uint32\0"
 434      333200
 435 00fc 02       		.byte	0x2
 436 00fd 23       		.byte	0x23
 437 00fe DF000000 		.long	0xdf
 438 0102 04       		.uleb128 0x4
 439 0103 04       		.byte	0x4
 440 0104 03       		.uleb128 0x3
 441 0105 04       		.byte	0x4
 442 0106 07       		.byte	0x7
 443 0107 756E7369 		.ascii "unsigned int\0"
 443      676E6564 
 443      20696E74 
 443      00
 444 0114 05       		.uleb128 0x5
 445 0115 66696C65 		.ascii "file_s\0"
 445      5F7300
 446 011c 1001     		.word	0x110
 447 011e 03       		.byte	0x3
 448 011f 05       		.byte	0x5
 449 0120 07020000 		.long	0x207
 450 0124 06       		.uleb128 0x6
 451 0125 6D6F6465 		.ascii "mode_r\0"
 451      5F7200
 452 012c 03       		.byte	0x3
 453 012d 07       		.byte	0x7
 454 012e 04010000 		.long	0x104
 455 0132 04       		.byte	0x4
 456 0133 01       		.byte	0x1
 457 0134 1F       		.byte	0x1f
 458 0135 00       		.byte	0
 459 0136 06       		.uleb128 0x6
 460 0137 6D6F6465 		.ascii "mode_w\0"
 460      5F7700
 461 013e 03       		.byte	0x3
 462 013f 08       		.byte	0x8
 463 0140 04010000 		.long	0x104
 464 0144 04       		.byte	0x4
 465 0145 01       		.byte	0x1
 466 0146 1E       		.byte	0x1e
 467 0147 00       		.byte	0
 468 0148 06       		.uleb128 0x6
 469 0149 6D6F6465 		.ascii "mode_a\0"
 469      5F6100
 470 0150 03       		.byte	0x3
 471 0151 09       		.byte	0x9
 472 0152 04010000 		.long	0x104
 473 0156 04       		.byte	0x4
 474 0157 01       		.byte	0x1
 475 0158 1D       		.byte	0x1d
 476 0159 00       		.byte	0
GAS LISTING C:\Users\PRESID~1\AppData\Local\Temp\cc4dUwFK.s 			page 13


 477 015a 06       		.uleb128 0x6
 478 015b 6D6F6465 		.ascii "mode_rplus\0"
 478      5F72706C 
 478      757300
 479 0166 03       		.byte	0x3
 480 0167 0A       		.byte	0xa
 481 0168 04010000 		.long	0x104
 482 016c 04       		.byte	0x4
 483 016d 01       		.byte	0x1
 484 016e 1C       		.byte	0x1c
 485 016f 00       		.byte	0
 486 0170 06       		.uleb128 0x6
 487 0171 6D6F6465 		.ascii "mode_wplus\0"
 487      5F77706C 
 487      757300
 488 017c 03       		.byte	0x3
 489 017d 0B       		.byte	0xb
 490 017e 04010000 		.long	0x104
 491 0182 04       		.byte	0x4
 492 0183 01       		.byte	0x1
 493 0184 1B       		.byte	0x1b
 494 0185 00       		.byte	0
 495 0186 06       		.uleb128 0x6
 496 0187 6D6F6465 		.ascii "mode_aplus\0"
 496      5F61706C 
 496      757300
 497 0192 03       		.byte	0x3
 498 0193 0C       		.byte	0xc
 499 0194 04010000 		.long	0x104
 500 0198 04       		.byte	0x4
 501 0199 01       		.byte	0x1
 502 019a 1A       		.byte	0x1a
 503 019b 00       		.byte	0
 504 019c 06       		.uleb128 0x6
 505 019d 66726565 		.ascii "free\0"
 505      00
 506 01a2 03       		.byte	0x3
 507 01a3 0D       		.byte	0xd
 508 01a4 04010000 		.long	0x104
 509 01a8 04       		.byte	0x4
 510 01a9 02       		.byte	0x2
 511 01aa 18       		.byte	0x18
 512 01ab 00       		.byte	0
 513 01ac 07       		.uleb128 0x7
 514 01ad 6D61785F 		.ascii "max_file_name_size\0"
 514      66696C65 
 514      5F6E616D 
 514      655F7369 
 514      7A6500
 515 01c0 03       		.byte	0x3
 516 01c1 0E       		.byte	0xe
 517 01c2 04010000 		.long	0x104
 518 01c6 04       		.byte	0x4
 519 01c7 07       		.uleb128 0x7
 520 01c8 75736564 		.ascii "used_file_name_size\0"
 520      5F66696C 
 520      655F6E61 
GAS LISTING C:\Users\PRESID~1\AppData\Local\Temp\cc4dUwFK.s 			page 14


 520      6D655F73 
 520      697A6500 
 521 01dc 03       		.byte	0x3
 522 01dd 0F       		.byte	0xf
 523 01de 04010000 		.long	0x104
 524 01e2 08       		.byte	0x8
 525 01e3 07       		.uleb128 0x7
 526 01e4 6E616D65 		.ascii "name\0"
 526      00
 527 01e9 03       		.byte	0x3
 528 01ea 10       		.byte	0x10
 529 01eb 07020000 		.long	0x207
 530 01ef 0C       		.byte	0xc
 531 01f0 08       		.uleb128 0x8
 532 01f1 66696C65 		.ascii "file_content\0"
 532      5F636F6E 
 532      74656E74 
 532      00
 533 01fe 03       		.byte	0x3
 534 01ff 11       		.byte	0x11
 535 0200 23020000 		.long	0x223
 536 0204 0C01     		.word	0x10c
 537 0206 00       		.byte	0
 538 0207 09       		.uleb128 0x9
 539 0208 94000000 		.long	0x94
 540 020c 17020000 		.long	0x217
 541 0210 0A       		.uleb128 0xa
 542 0211 17020000 		.long	0x217
 543 0215 FF       		.byte	0xff
 544 0216 00       		.byte	0
 545 0217 03       		.uleb128 0x3
 546 0218 04       		.byte	0x4
 547 0219 07       		.byte	0x7
 548 021a 73697A65 		.ascii "sizetype\0"
 548      74797065 
 548      00
 549 0223 0B       		.uleb128 0xb
 550 0224 04       		.byte	0x4
 551 0225 BC000000 		.long	0xbc
 552 0229 02       		.uleb128 0x2
 553 022a 46494C45 		.ascii "FILE\0"
 553      00
 554 022f 03       		.byte	0x3
 555 0230 12       		.byte	0x12
 556 0231 14010000 		.long	0x114
 557 0235 0C       		.uleb128 0xc
 558 0236 666F7065 		.ascii "fopen\0"
 558      6E00
 559 023c 01       		.byte	0x1
 560 023d 0B       		.byte	0xb
 561 023e AA020000 		.long	0x2aa
 562 0242 00000000 		.long	LFB0
 563 0246 4B010000 		.long	LFE0-LFB0
 564 024a 01       		.uleb128 0x1
 565 024b 9C       		.byte	0x9c
 566 024c AA020000 		.long	0x2aa
 567 0250 0D       		.uleb128 0xd
GAS LISTING C:\Users\PRESID~1\AppData\Local\Temp\cc4dUwFK.s 			page 15


 568 0251 09000000 		.secrel32	LASF0
 569 0255 01       		.byte	0x1
 570 0256 0B       		.byte	0xb
 571 0257 B0020000 		.long	0x2b0
 572 025b 02       		.uleb128 0x2
 573 025c 91       		.byte	0x91
 574 025d 00       		.sleb128 0
 575 025e 0E       		.uleb128 0xe
 576 025f 6D6F6465 		.ascii "mode\0"
 576      00
 577 0264 01       		.byte	0x1
 578 0265 0B       		.byte	0xb
 579 0266 B0020000 		.long	0x2b0
 580 026a 02       		.uleb128 0x2
 581 026b 91       		.byte	0x91
 582 026c 04       		.sleb128 4
 583 026d 0F       		.uleb128 0xf
 584 026e 6900     		.ascii "i\0"
 585 0270 01       		.byte	0x1
 586 0271 0D       		.byte	0xd
 587 0272 F4000000 		.long	0xf4
 588 0276 02       		.uleb128 0x2
 589 0277 91       		.byte	0x91
 590 0278 74       		.sleb128 -12
 591 0279 10       		.uleb128 0x10
 592 027a 00000000 		.secrel32	LASF1
 593 027e 01       		.byte	0x1
 594 027f 0E       		.byte	0xe
 595 0280 AA020000 		.long	0x2aa
 596 0284 02       		.uleb128 0x2
 597 0285 91       		.byte	0x91
 598 0286 70       		.sleb128 -16
 599 0287 0F       		.uleb128 0xf
 600 0288 63757272 		.ascii "current_file_obj_number\0"
 600      656E745F 
 600      66696C65 
 600      5F6F626A 
 600      5F6E756D 
 601 02a0 01       		.byte	0x1
 602 02a1 0F       		.byte	0xf
 603 02a2 F4000000 		.long	0xf4
 604 02a6 02       		.uleb128 0x2
 605 02a7 91       		.byte	0x91
 606 02a8 6C       		.sleb128 -20
 607 02a9 00       		.byte	0
 608 02aa 0B       		.uleb128 0xb
 609 02ab 04       		.byte	0x4
 610 02ac 29020000 		.long	0x229
 611 02b0 0B       		.uleb128 0xb
 612 02b1 04       		.byte	0x4
 613 02b2 B6020000 		.long	0x2b6
 614 02b6 11       		.uleb128 0x11
 615 02b7 BB020000 		.long	0x2bb
 616 02bb 03       		.uleb128 0x3
 617 02bc 01       		.byte	0x1
 618 02bd 06       		.byte	0x6
 619 02be 63686172 		.ascii "char\0"
GAS LISTING C:\Users\PRESID~1\AppData\Local\Temp\cc4dUwFK.s 			page 16


 619      00
 620 02c3 12       		.uleb128 0x12
 621 02c4 6672656F 		.ascii "freopen\0"
 621      70656E00 
 622 02cc 01       		.byte	0x1
 623 02cd 5B       		.byte	0x5b
 624 02ce AA020000 		.long	0x2aa
 625 02d2 4B010000 		.long	LFB1
 626 02d6 25000000 		.long	LFE1-LFB1
 627 02da 01       		.uleb128 0x1
 628 02db 9C       		.byte	0x9c
 629 02dc 0C030000 		.long	0x30c
 630 02e0 0D       		.uleb128 0xd
 631 02e1 09000000 		.secrel32	LASF0
 632 02e5 01       		.byte	0x1
 633 02e6 5B       		.byte	0x5b
 634 02e7 B0020000 		.long	0x2b0
 635 02eb 02       		.uleb128 0x2
 636 02ec 91       		.byte	0x91
 637 02ed 00       		.sleb128 0
 638 02ee 0E       		.uleb128 0xe
 639 02ef 6D6F6465 		.ascii "mode\0"
 639      00
 640 02f4 01       		.byte	0x1
 641 02f5 5B       		.byte	0x5b
 642 02f6 B0020000 		.long	0x2b0
 643 02fa 02       		.uleb128 0x2
 644 02fb 91       		.byte	0x91
 645 02fc 04       		.sleb128 4
 646 02fd 0D       		.uleb128 0xd
 647 02fe 12000000 		.secrel32	LASF2
 648 0302 01       		.byte	0x1
 649 0303 5B       		.byte	0x5b
 650 0304 AA020000 		.long	0x2aa
 651 0308 02       		.uleb128 0x2
 652 0309 91       		.byte	0x91
 653 030a 08       		.sleb128 8
 654 030b 00       		.byte	0
 655 030c 13       		.uleb128 0x13
 656 030d 66666C75 		.ascii "fflush\0"
 656      736800
 657 0314 01       		.byte	0x1
 658 0315 60       		.byte	0x60
 659 0316 37030000 		.long	0x337
 660 031a 70010000 		.long	LFB2
 661 031e 0A000000 		.long	LFE2-LFB2
 662 0322 01       		.uleb128 0x1
 663 0323 9C       		.byte	0x9c
 664 0324 37030000 		.long	0x337
 665 0328 0D       		.uleb128 0xd
 666 0329 12000000 		.secrel32	LASF2
 667 032d 01       		.byte	0x1
 668 032e 60       		.byte	0x60
 669 032f AA020000 		.long	0x2aa
 670 0333 02       		.uleb128 0x2
 671 0334 91       		.byte	0x91
 672 0335 00       		.sleb128 0
GAS LISTING C:\Users\PRESID~1\AppData\Local\Temp\cc4dUwFK.s 			page 17


 673 0336 00       		.byte	0
 674 0337 03       		.uleb128 0x3
 675 0338 04       		.byte	0x4
 676 0339 05       		.byte	0x5
 677 033a 696E7400 		.ascii "int\0"
 678 033e 0C       		.uleb128 0xc
 679 033f 66636C6F 		.ascii "fclose\0"
 679      736500
 680 0346 01       		.byte	0x1
 681 0347 65       		.byte	0x65
 682 0348 37030000 		.long	0x337
 683 034c 7A010000 		.long	LFB3
 684 0350 85000000 		.long	LFE3-LFB3
 685 0354 01       		.uleb128 0x1
 686 0355 9C       		.byte	0x9c
 687 0356 75030000 		.long	0x375
 688 035a 0D       		.uleb128 0xd
 689 035b 00000000 		.secrel32	LASF1
 690 035f 01       		.byte	0x1
 691 0360 65       		.byte	0x65
 692 0361 AA020000 		.long	0x2aa
 693 0365 02       		.uleb128 0x2
 694 0366 91       		.byte	0x91
 695 0367 00       		.sleb128 0
 696 0368 0F       		.uleb128 0xf
 697 0369 6900     		.ascii "i\0"
 698 036b 01       		.byte	0x1
 699 036c 67       		.byte	0x67
 700 036d BC000000 		.long	0xbc
 701 0371 02       		.uleb128 0x2
 702 0372 91       		.byte	0x91
 703 0373 77       		.sleb128 -9
 704 0374 00       		.byte	0
 705 0375 13       		.uleb128 0x13
 706 0376 72656D6F 		.ascii "remove\0"
 706      766500
 707 037d 01       		.byte	0x1
 708 037e 77       		.byte	0x77
 709 037f 37030000 		.long	0x337
 710 0383 FF010000 		.long	LFB4
 711 0387 0A000000 		.long	LFE4-LFB4
 712 038b 01       		.uleb128 0x1
 713 038c 9C       		.byte	0x9c
 714 038d A0030000 		.long	0x3a0
 715 0391 0D       		.uleb128 0xd
 716 0392 09000000 		.secrel32	LASF0
 717 0396 01       		.byte	0x1
 718 0397 77       		.byte	0x77
 719 0398 B0020000 		.long	0x2b0
 720 039c 02       		.uleb128 0x2
 721 039d 91       		.byte	0x91
 722 039e 00       		.sleb128 0
 723 039f 00       		.byte	0
 724 03a0 13       		.uleb128 0x13
 725 03a1 72656E61 		.ascii "rename\0"
 725      6D6500
 726 03a8 01       		.byte	0x1
GAS LISTING C:\Users\PRESID~1\AppData\Local\Temp\cc4dUwFK.s 			page 18


 727 03a9 7C       		.byte	0x7c
 728 03aa 37030000 		.long	0x337
 729 03ae 09020000 		.long	LFB5
 730 03b2 0A000000 		.long	LFE5-LFB5
 731 03b6 01       		.uleb128 0x1
 732 03b7 9C       		.byte	0x9c
 733 03b8 E1030000 		.long	0x3e1
 734 03bc 0E       		.uleb128 0xe
 735 03bd 6F6C646E 		.ascii "oldname\0"
 735      616D6500 
 736 03c5 01       		.byte	0x1
 737 03c6 7C       		.byte	0x7c
 738 03c7 B0020000 		.long	0x2b0
 739 03cb 02       		.uleb128 0x2
 740 03cc 91       		.byte	0x91
 741 03cd 00       		.sleb128 0
 742 03ce 0E       		.uleb128 0xe
 743 03cf 6E65776E 		.ascii "newname\0"
 743      616D6500 
 744 03d7 01       		.byte	0x1
 745 03d8 7C       		.byte	0x7c
 746 03d9 B0020000 		.long	0x2b0
 747 03dd 02       		.uleb128 0x2
 748 03de 91       		.byte	0x91
 749 03df 04       		.sleb128 4
 750 03e0 00       		.byte	0
 751 03e1 13       		.uleb128 0x13
 752 03e2 66726561 		.ascii "fread\0"
 752      6400
 753 03e8 01       		.byte	0x1
 754 03e9 81       		.byte	0x81
 755 03ea F4000000 		.long	0xf4
 756 03ee 13020000 		.long	LFB6
 757 03f2 0A000000 		.long	LFE6-LFB6
 758 03f6 01       		.uleb128 0x1
 759 03f7 9C       		.byte	0x9c
 760 03f8 37040000 		.long	0x437
 761 03fc 0E       		.uleb128 0xe
 762 03fd 70747200 		.ascii "ptr\0"
 763 0401 01       		.byte	0x1
 764 0402 81       		.byte	0x81
 765 0403 02010000 		.long	0x102
 766 0407 02       		.uleb128 0x2
 767 0408 91       		.byte	0x91
 768 0409 00       		.sleb128 0
 769 040a 0E       		.uleb128 0xe
 770 040b 73697A65 		.ascii "size\0"
 770      00
 771 0410 01       		.byte	0x1
 772 0411 81       		.byte	0x81
 773 0412 F4000000 		.long	0xf4
 774 0416 02       		.uleb128 0x2
 775 0417 91       		.byte	0x91
 776 0418 04       		.sleb128 4
 777 0419 0E       		.uleb128 0xe
 778 041a 6E6F626A 		.ascii "nobj\0"
 778      00
GAS LISTING C:\Users\PRESID~1\AppData\Local\Temp\cc4dUwFK.s 			page 19


 779 041f 01       		.byte	0x1
 780 0420 81       		.byte	0x81
 781 0421 F4000000 		.long	0xf4
 782 0425 02       		.uleb128 0x2
 783 0426 91       		.byte	0x91
 784 0427 08       		.sleb128 8
 785 0428 0D       		.uleb128 0xd
 786 0429 12000000 		.secrel32	LASF2
 787 042d 01       		.byte	0x1
 788 042e 81       		.byte	0x81
 789 042f AA020000 		.long	0x2aa
 790 0433 02       		.uleb128 0x2
 791 0434 91       		.byte	0x91
 792 0435 0C       		.sleb128 12
 793 0436 00       		.byte	0
 794 0437 13       		.uleb128 0x13
 795 0438 66777269 		.ascii "fwrite\0"
 795      746500
 796 043f 01       		.byte	0x1
 797 0440 86       		.byte	0x86
 798 0441 F4000000 		.long	0xf4
 799 0445 1D020000 		.long	LFB7
 800 0449 0A000000 		.long	LFE7-LFB7
 801 044d 01       		.uleb128 0x1
 802 044e 9C       		.byte	0x9c
 803 044f 8E040000 		.long	0x48e
 804 0453 0E       		.uleb128 0xe
 805 0454 70747200 		.ascii "ptr\0"
 806 0458 01       		.byte	0x1
 807 0459 86       		.byte	0x86
 808 045a 8E040000 		.long	0x48e
 809 045e 02       		.uleb128 0x2
 810 045f 91       		.byte	0x91
 811 0460 00       		.sleb128 0
 812 0461 0E       		.uleb128 0xe
 813 0462 73697A65 		.ascii "size\0"
 813      00
 814 0467 01       		.byte	0x1
 815 0468 86       		.byte	0x86
 816 0469 F4000000 		.long	0xf4
 817 046d 02       		.uleb128 0x2
 818 046e 91       		.byte	0x91
 819 046f 04       		.sleb128 4
 820 0470 0E       		.uleb128 0xe
 821 0471 6E6F626A 		.ascii "nobj\0"
 821      00
 822 0476 01       		.byte	0x1
 823 0477 86       		.byte	0x86
 824 0478 F4000000 		.long	0xf4
 825 047c 02       		.uleb128 0x2
 826 047d 91       		.byte	0x91
 827 047e 08       		.sleb128 8
 828 047f 0D       		.uleb128 0xd
 829 0480 12000000 		.secrel32	LASF2
 830 0484 01       		.byte	0x1
 831 0485 86       		.byte	0x86
 832 0486 AA020000 		.long	0x2aa
GAS LISTING C:\Users\PRESID~1\AppData\Local\Temp\cc4dUwFK.s 			page 20


 833 048a 02       		.uleb128 0x2
 834 048b 91       		.byte	0x91
 835 048c 0C       		.sleb128 12
 836 048d 00       		.byte	0
 837 048e 0B       		.uleb128 0xb
 838 048f 04       		.byte	0x4
 839 0490 94040000 		.long	0x494
 840 0494 14       		.uleb128 0x14
 841 0495 09       		.uleb128 0x9
 842 0496 04010000 		.long	0x104
 843 049a A5040000 		.long	0x4a5
 844 049e 0A       		.uleb128 0xa
 845 049f 17020000 		.long	0x217
 846 04a3 04       		.byte	0x4
 847 04a4 00       		.byte	0
 848 04a5 0F       		.uleb128 0xf
 849 04a6 46494C45 		.ascii "FILE_HANDLER_POOL_USED\0"
 849      5F48414E 
 849      444C4552 
 849      5F504F4F 
 849      4C5F5553 
 850 04bd 01       		.byte	0x1
 851 04be 07       		.byte	0x7
 852 04bf 95040000 		.long	0x495
 853 04c3 05       		.uleb128 0x5
 854 04c4 03       		.byte	0x3
 855 04c5 00000000 		.long	_FILE_HANDLER_POOL_USED
 856 04c9 09       		.uleb128 0x9
 857 04ca AA020000 		.long	0x2aa
 858 04ce D9040000 		.long	0x4d9
 859 04d2 0A       		.uleb128 0xa
 860 04d3 17020000 		.long	0x217
 861 04d7 04       		.byte	0x4
 862 04d8 00       		.byte	0
 863 04d9 15       		.uleb128 0x15
 864 04da 46494C45 		.ascii "FILE_HANDLER_POOL\0"
 864      5F48414E 
 864      444C4552 
 864      5F504F4F 
 864      4C00
 865 04ec 01       		.byte	0x1
 866 04ed 06       		.byte	0x6
 867 04ee C9040000 		.long	0x4c9
 868 04f2 05       		.uleb128 0x5
 869 04f3 03       		.byte	0x3
 870 04f4 00000000 		.long	_FILE_HANDLER_POOL
 871 04f8 00       		.byte	0
 872              		.section	.debug_abbrev,"dr"
 873              	Ldebug_abbrev0:
 874 0000 01       		.uleb128 0x1
 875 0001 11       		.uleb128 0x11
 876 0002 01       		.byte	0x1
 877 0003 25       		.uleb128 0x25
 878 0004 08       		.uleb128 0x8
 879 0005 13       		.uleb128 0x13
 880 0006 0B       		.uleb128 0xb
 881 0007 03       		.uleb128 0x3
GAS LISTING C:\Users\PRESID~1\AppData\Local\Temp\cc4dUwFK.s 			page 21


 882 0008 08       		.uleb128 0x8
 883 0009 11       		.uleb128 0x11
 884 000a 01       		.uleb128 0x1
 885 000b 12       		.uleb128 0x12
 886 000c 06       		.uleb128 0x6
 887 000d 10       		.uleb128 0x10
 888 000e 17       		.uleb128 0x17
 889 000f 9942     		.uleb128 0x2119
 890 0011 17       		.uleb128 0x17
 891 0012 00       		.byte	0
 892 0013 00       		.byte	0
 893 0014 02       		.uleb128 0x2
 894 0015 16       		.uleb128 0x16
 895 0016 00       		.byte	0
 896 0017 03       		.uleb128 0x3
 897 0018 08       		.uleb128 0x8
 898 0019 3A       		.uleb128 0x3a
 899 001a 0B       		.uleb128 0xb
 900 001b 3B       		.uleb128 0x3b
 901 001c 0B       		.uleb128 0xb
 902 001d 49       		.uleb128 0x49
 903 001e 13       		.uleb128 0x13
 904 001f 00       		.byte	0
 905 0020 00       		.byte	0
 906 0021 03       		.uleb128 0x3
 907 0022 24       		.uleb128 0x24
 908 0023 00       		.byte	0
 909 0024 0B       		.uleb128 0xb
 910 0025 0B       		.uleb128 0xb
 911 0026 3E       		.uleb128 0x3e
 912 0027 0B       		.uleb128 0xb
 913 0028 03       		.uleb128 0x3
 914 0029 08       		.uleb128 0x8
 915 002a 00       		.byte	0
 916 002b 00       		.byte	0
 917 002c 04       		.uleb128 0x4
 918 002d 0F       		.uleb128 0xf
 919 002e 00       		.byte	0
 920 002f 0B       		.uleb128 0xb
 921 0030 0B       		.uleb128 0xb
 922 0031 00       		.byte	0
 923 0032 00       		.byte	0
 924 0033 05       		.uleb128 0x5
 925 0034 13       		.uleb128 0x13
 926 0035 01       		.byte	0x1
 927 0036 03       		.uleb128 0x3
 928 0037 08       		.uleb128 0x8
 929 0038 0B       		.uleb128 0xb
 930 0039 05       		.uleb128 0x5
 931 003a 3A       		.uleb128 0x3a
 932 003b 0B       		.uleb128 0xb
 933 003c 3B       		.uleb128 0x3b
 934 003d 0B       		.uleb128 0xb
 935 003e 01       		.uleb128 0x1
 936 003f 13       		.uleb128 0x13
 937 0040 00       		.byte	0
 938 0041 00       		.byte	0
GAS LISTING C:\Users\PRESID~1\AppData\Local\Temp\cc4dUwFK.s 			page 22


 939 0042 06       		.uleb128 0x6
 940 0043 0D       		.uleb128 0xd
 941 0044 00       		.byte	0
 942 0045 03       		.uleb128 0x3
 943 0046 08       		.uleb128 0x8
 944 0047 3A       		.uleb128 0x3a
 945 0048 0B       		.uleb128 0xb
 946 0049 3B       		.uleb128 0x3b
 947 004a 0B       		.uleb128 0xb
 948 004b 49       		.uleb128 0x49
 949 004c 13       		.uleb128 0x13
 950 004d 0B       		.uleb128 0xb
 951 004e 0B       		.uleb128 0xb
 952 004f 0D       		.uleb128 0xd
 953 0050 0B       		.uleb128 0xb
 954 0051 0C       		.uleb128 0xc
 955 0052 0B       		.uleb128 0xb
 956 0053 38       		.uleb128 0x38
 957 0054 0B       		.uleb128 0xb
 958 0055 00       		.byte	0
 959 0056 00       		.byte	0
 960 0057 07       		.uleb128 0x7
 961 0058 0D       		.uleb128 0xd
 962 0059 00       		.byte	0
 963 005a 03       		.uleb128 0x3
 964 005b 08       		.uleb128 0x8
 965 005c 3A       		.uleb128 0x3a
 966 005d 0B       		.uleb128 0xb
 967 005e 3B       		.uleb128 0x3b
 968 005f 0B       		.uleb128 0xb
 969 0060 49       		.uleb128 0x49
 970 0061 13       		.uleb128 0x13
 971 0062 38       		.uleb128 0x38
 972 0063 0B       		.uleb128 0xb
 973 0064 00       		.byte	0
 974 0065 00       		.byte	0
 975 0066 08       		.uleb128 0x8
 976 0067 0D       		.uleb128 0xd
 977 0068 00       		.byte	0
 978 0069 03       		.uleb128 0x3
 979 006a 08       		.uleb128 0x8
 980 006b 3A       		.uleb128 0x3a
 981 006c 0B       		.uleb128 0xb
 982 006d 3B       		.uleb128 0x3b
 983 006e 0B       		.uleb128 0xb
 984 006f 49       		.uleb128 0x49
 985 0070 13       		.uleb128 0x13
 986 0071 38       		.uleb128 0x38
 987 0072 05       		.uleb128 0x5
 988 0073 00       		.byte	0
 989 0074 00       		.byte	0
 990 0075 09       		.uleb128 0x9
 991 0076 01       		.uleb128 0x1
 992 0077 01       		.byte	0x1
 993 0078 49       		.uleb128 0x49
 994 0079 13       		.uleb128 0x13
 995 007a 01       		.uleb128 0x1
GAS LISTING C:\Users\PRESID~1\AppData\Local\Temp\cc4dUwFK.s 			page 23


 996 007b 13       		.uleb128 0x13
 997 007c 00       		.byte	0
 998 007d 00       		.byte	0
 999 007e 0A       		.uleb128 0xa
 1000 007f 21       		.uleb128 0x21
 1001 0080 00       		.byte	0
 1002 0081 49       		.uleb128 0x49
 1003 0082 13       		.uleb128 0x13
 1004 0083 2F       		.uleb128 0x2f
 1005 0084 0B       		.uleb128 0xb
 1006 0085 00       		.byte	0
 1007 0086 00       		.byte	0
 1008 0087 0B       		.uleb128 0xb
 1009 0088 0F       		.uleb128 0xf
 1010 0089 00       		.byte	0
 1011 008a 0B       		.uleb128 0xb
 1012 008b 0B       		.uleb128 0xb
 1013 008c 49       		.uleb128 0x49
 1014 008d 13       		.uleb128 0x13
 1015 008e 00       		.byte	0
 1016 008f 00       		.byte	0
 1017 0090 0C       		.uleb128 0xc
 1018 0091 2E       		.uleb128 0x2e
 1019 0092 01       		.byte	0x1
 1020 0093 03       		.uleb128 0x3
 1021 0094 08       		.uleb128 0x8
 1022 0095 3A       		.uleb128 0x3a
 1023 0096 0B       		.uleb128 0xb
 1024 0097 3B       		.uleb128 0x3b
 1025 0098 0B       		.uleb128 0xb
 1026 0099 27       		.uleb128 0x27
 1027 009a 19       		.uleb128 0x19
 1028 009b 49       		.uleb128 0x49
 1029 009c 13       		.uleb128 0x13
 1030 009d 11       		.uleb128 0x11
 1031 009e 01       		.uleb128 0x1
 1032 009f 12       		.uleb128 0x12
 1033 00a0 06       		.uleb128 0x6
 1034 00a1 40       		.uleb128 0x40
 1035 00a2 18       		.uleb128 0x18
 1036 00a3 9742     		.uleb128 0x2117
 1037 00a5 19       		.uleb128 0x19
 1038 00a6 01       		.uleb128 0x1
 1039 00a7 13       		.uleb128 0x13
 1040 00a8 00       		.byte	0
 1041 00a9 00       		.byte	0
 1042 00aa 0D       		.uleb128 0xd
 1043 00ab 05       		.uleb128 0x5
 1044 00ac 00       		.byte	0
 1045 00ad 03       		.uleb128 0x3
 1046 00ae 0E       		.uleb128 0xe
 1047 00af 3A       		.uleb128 0x3a
 1048 00b0 0B       		.uleb128 0xb
 1049 00b1 3B       		.uleb128 0x3b
 1050 00b2 0B       		.uleb128 0xb
 1051 00b3 49       		.uleb128 0x49
 1052 00b4 13       		.uleb128 0x13
GAS LISTING C:\Users\PRESID~1\AppData\Local\Temp\cc4dUwFK.s 			page 24


 1053 00b5 02       		.uleb128 0x2
 1054 00b6 18       		.uleb128 0x18
 1055 00b7 00       		.byte	0
 1056 00b8 00       		.byte	0
 1057 00b9 0E       		.uleb128 0xe
 1058 00ba 05       		.uleb128 0x5
 1059 00bb 00       		.byte	0
 1060 00bc 03       		.uleb128 0x3
 1061 00bd 08       		.uleb128 0x8
 1062 00be 3A       		.uleb128 0x3a
 1063 00bf 0B       		.uleb128 0xb
 1064 00c0 3B       		.uleb128 0x3b
 1065 00c1 0B       		.uleb128 0xb
 1066 00c2 49       		.uleb128 0x49
 1067 00c3 13       		.uleb128 0x13
 1068 00c4 02       		.uleb128 0x2
 1069 00c5 18       		.uleb128 0x18
 1070 00c6 00       		.byte	0
 1071 00c7 00       		.byte	0
 1072 00c8 0F       		.uleb128 0xf
 1073 00c9 34       		.uleb128 0x34
 1074 00ca 00       		.byte	0
 1075 00cb 03       		.uleb128 0x3
 1076 00cc 08       		.uleb128 0x8
 1077 00cd 3A       		.uleb128 0x3a
 1078 00ce 0B       		.uleb128 0xb
 1079 00cf 3B       		.uleb128 0x3b
 1080 00d0 0B       		.uleb128 0xb
 1081 00d1 49       		.uleb128 0x49
 1082 00d2 13       		.uleb128 0x13
 1083 00d3 02       		.uleb128 0x2
 1084 00d4 18       		.uleb128 0x18
 1085 00d5 00       		.byte	0
 1086 00d6 00       		.byte	0
 1087 00d7 10       		.uleb128 0x10
 1088 00d8 34       		.uleb128 0x34
 1089 00d9 00       		.byte	0
 1090 00da 03       		.uleb128 0x3
 1091 00db 0E       		.uleb128 0xe
 1092 00dc 3A       		.uleb128 0x3a
 1093 00dd 0B       		.uleb128 0xb
 1094 00de 3B       		.uleb128 0x3b
 1095 00df 0B       		.uleb128 0xb
 1096 00e0 49       		.uleb128 0x49
 1097 00e1 13       		.uleb128 0x13
 1098 00e2 02       		.uleb128 0x2
 1099 00e3 18       		.uleb128 0x18
 1100 00e4 00       		.byte	0
 1101 00e5 00       		.byte	0
 1102 00e6 11       		.uleb128 0x11
 1103 00e7 26       		.uleb128 0x26
 1104 00e8 00       		.byte	0
 1105 00e9 49       		.uleb128 0x49
 1106 00ea 13       		.uleb128 0x13
 1107 00eb 00       		.byte	0
 1108 00ec 00       		.byte	0
 1109 00ed 12       		.uleb128 0x12
GAS LISTING C:\Users\PRESID~1\AppData\Local\Temp\cc4dUwFK.s 			page 25


 1110 00ee 2E       		.uleb128 0x2e
 1111 00ef 01       		.byte	0x1
 1112 00f0 3F       		.uleb128 0x3f
 1113 00f1 19       		.uleb128 0x19
 1114 00f2 03       		.uleb128 0x3
 1115 00f3 08       		.uleb128 0x8
 1116 00f4 3A       		.uleb128 0x3a
 1117 00f5 0B       		.uleb128 0xb
 1118 00f6 3B       		.uleb128 0x3b
 1119 00f7 0B       		.uleb128 0xb
 1120 00f8 27       		.uleb128 0x27
 1121 00f9 19       		.uleb128 0x19
 1122 00fa 49       		.uleb128 0x49
 1123 00fb 13       		.uleb128 0x13
 1124 00fc 11       		.uleb128 0x11
 1125 00fd 01       		.uleb128 0x1
 1126 00fe 12       		.uleb128 0x12
 1127 00ff 06       		.uleb128 0x6
 1128 0100 40       		.uleb128 0x40
 1129 0101 18       		.uleb128 0x18
 1130 0102 9642     		.uleb128 0x2116
 1131 0104 19       		.uleb128 0x19
 1132 0105 01       		.uleb128 0x1
 1133 0106 13       		.uleb128 0x13
 1134 0107 00       		.byte	0
 1135 0108 00       		.byte	0
 1136 0109 13       		.uleb128 0x13
 1137 010a 2E       		.uleb128 0x2e
 1138 010b 01       		.byte	0x1
 1139 010c 3F       		.uleb128 0x3f
 1140 010d 19       		.uleb128 0x19
 1141 010e 03       		.uleb128 0x3
 1142 010f 08       		.uleb128 0x8
 1143 0110 3A       		.uleb128 0x3a
 1144 0111 0B       		.uleb128 0xb
 1145 0112 3B       		.uleb128 0x3b
 1146 0113 0B       		.uleb128 0xb
 1147 0114 27       		.uleb128 0x27
 1148 0115 19       		.uleb128 0x19
 1149 0116 49       		.uleb128 0x49
 1150 0117 13       		.uleb128 0x13
 1151 0118 11       		.uleb128 0x11
 1152 0119 01       		.uleb128 0x1
 1153 011a 12       		.uleb128 0x12
 1154 011b 06       		.uleb128 0x6
 1155 011c 40       		.uleb128 0x40
 1156 011d 18       		.uleb128 0x18
 1157 011e 9742     		.uleb128 0x2117
 1158 0120 19       		.uleb128 0x19
 1159 0121 01       		.uleb128 0x1
 1160 0122 13       		.uleb128 0x13
 1161 0123 00       		.byte	0
 1162 0124 00       		.byte	0
 1163 0125 14       		.uleb128 0x14
 1164 0126 26       		.uleb128 0x26
 1165 0127 00       		.byte	0
 1166 0128 00       		.byte	0
GAS LISTING C:\Users\PRESID~1\AppData\Local\Temp\cc4dUwFK.s 			page 26


 1167 0129 00       		.byte	0
 1168 012a 15       		.uleb128 0x15
 1169 012b 34       		.uleb128 0x34
 1170 012c 00       		.byte	0
 1171 012d 03       		.uleb128 0x3
 1172 012e 08       		.uleb128 0x8
 1173 012f 3A       		.uleb128 0x3a
 1174 0130 0B       		.uleb128 0xb
 1175 0131 3B       		.uleb128 0x3b
 1176 0132 0B       		.uleb128 0xb
 1177 0133 49       		.uleb128 0x49
 1178 0134 13       		.uleb128 0x13
 1179 0135 3F       		.uleb128 0x3f
 1180 0136 19       		.uleb128 0x19
 1181 0137 02       		.uleb128 0x2
 1182 0138 18       		.uleb128 0x18
 1183 0139 00       		.byte	0
 1184 013a 00       		.byte	0
 1185 013b 00       		.byte	0
 1186              		.section	.debug_aranges,"dr"
 1187 0000 1C000000 		.long	0x1c
 1188 0004 0200     		.word	0x2
 1189 0006 00000000 		.secrel32	Ldebug_info0
 1190 000a 04       		.byte	0x4
 1191 000b 00       		.byte	0
 1192 000c 0000     		.word	0
 1193 000e 0000     		.word	0
 1194 0010 00000000 		.long	Ltext0
 1195 0014 27020000 		.long	Letext0-Ltext0
 1196 0018 00000000 		.long	0
 1197 001c 00000000 		.long	0
 1198              		.section	.debug_macro,"dr"
 1199              	Ldebug_macro0:
 1200 0000 0400     		.word	0x4
 1201 0002 02       		.byte	0x2
 1202 0003 00000000 		.secrel32	Ldebug_line0
 1203 0007 01       		.byte	0x1
 1204 0008 00       		.uleb128 0
 1205 0009 5F5F5354 		.ascii "__STDC__ 1\0"
 1205      44435F5F 
 1205      203100
 1206 0014 01       		.byte	0x1
 1207 0015 00       		.uleb128 0
 1208 0016 5F5F5354 		.ascii "__STDC_HOSTED__ 1\0"
 1208      44435F48 
 1208      4F535445 
 1208      445F5F20 
 1208      3100
 1209 0028 01       		.byte	0x1
 1210 0029 00       		.uleb128 0
 1211 002a 5F5F474E 		.ascii "__GNUC__ 4\0"
 1211      55435F5F 
 1211      203400
 1212 0035 01       		.byte	0x1
 1213 0036 00       		.uleb128 0
 1214 0037 5F5F474E 		.ascii "__GNUC_MINOR__ 9\0"
 1214      55435F4D 
GAS LISTING C:\Users\PRESID~1\AppData\Local\Temp\cc4dUwFK.s 			page 27


 1214      494E4F52 
 1214      5F5F2039 
 1214      00
 1215 0048 01       		.byte	0x1
 1216 0049 00       		.uleb128 0
 1217 004a 5F5F474E 		.ascii "__GNUC_PATCHLEVEL__ 3\0"
 1217      55435F50 
 1217      41544348 
 1217      4C455645 
 1217      4C5F5F20 
 1218 0060 01       		.byte	0x1
 1219 0061 00       		.uleb128 0
 1220 0062 5F5F5645 		.ascii "__VERSION__ \"4.9.3\"\0"
 1220      5253494F 
 1220      4E5F5F20 
 1220      22342E39 
 1220      2E332200 
 1221 0076 01       		.byte	0x1
 1222 0077 00       		.uleb128 0
 1223 0078 5F5F4154 		.ascii "__ATOMIC_RELAXED 0\0"
 1223      4F4D4943 
 1223      5F52454C 
 1223      41584544 
 1223      203000
 1224 008b 01       		.byte	0x1
 1225 008c 00       		.uleb128 0
 1226 008d 5F5F4154 		.ascii "__ATOMIC_SEQ_CST 5\0"
 1226      4F4D4943 
 1226      5F534551 
 1226      5F435354 
 1226      203500
 1227 00a0 01       		.byte	0x1
 1228 00a1 00       		.uleb128 0
 1229 00a2 5F5F4154 		.ascii "__ATOMIC_ACQUIRE 2\0"
 1229      4F4D4943 
 1229      5F414351 
 1229      55495245 
 1229      203200
 1230 00b5 01       		.byte	0x1
 1231 00b6 00       		.uleb128 0
 1232 00b7 5F5F4154 		.ascii "__ATOMIC_RELEASE 3\0"
 1232      4F4D4943 
 1232      5F52454C 
 1232      45415345 
 1232      203300
 1233 00ca 01       		.byte	0x1
 1234 00cb 00       		.uleb128 0
 1235 00cc 5F5F4154 		.ascii "__ATOMIC_ACQ_REL 4\0"
 1235      4F4D4943 
 1235      5F414351 
 1235      5F52454C 
 1235      203400
 1236 00df 01       		.byte	0x1
 1237 00e0 00       		.uleb128 0
 1238 00e1 5F5F4154 		.ascii "__ATOMIC_CONSUME 1\0"
 1238      4F4D4943 
 1238      5F434F4E 
GAS LISTING C:\Users\PRESID~1\AppData\Local\Temp\cc4dUwFK.s 			page 28


 1238      53554D45 
 1238      203100
 1239 00f4 01       		.byte	0x1
 1240 00f5 00       		.uleb128 0
 1241 00f6 5F5F4649 		.ascii "__FINITE_MATH_ONLY__ 0\0"
 1241      4E495445 
 1241      5F4D4154 
 1241      485F4F4E 
 1241      4C595F5F 
 1242 010d 01       		.byte	0x1
 1243 010e 00       		.uleb128 0
 1244 010f 5F5F5349 		.ascii "__SIZEOF_INT__ 4\0"
 1244      5A454F46 
 1244      5F494E54 
 1244      5F5F2034 
 1244      00
 1245 0120 01       		.byte	0x1
 1246 0121 00       		.uleb128 0
 1247 0122 5F5F5349 		.ascii "__SIZEOF_LONG__ 4\0"
 1247      5A454F46 
 1247      5F4C4F4E 
 1247      475F5F20 
 1247      3400
 1248 0134 01       		.byte	0x1
 1249 0135 00       		.uleb128 0
 1250 0136 5F5F5349 		.ascii "__SIZEOF_LONG_LONG__ 8\0"
 1250      5A454F46 
 1250      5F4C4F4E 
 1250      475F4C4F 
 1250      4E475F5F 
 1251 014d 01       		.byte	0x1
 1252 014e 00       		.uleb128 0
 1253 014f 5F5F5349 		.ascii "__SIZEOF_SHORT__ 2\0"
 1253      5A454F46 
 1253      5F53484F 
 1253      52545F5F 
 1253      203200
 1254 0162 01       		.byte	0x1
 1255 0163 00       		.uleb128 0
 1256 0164 5F5F5349 		.ascii "__SIZEOF_FLOAT__ 4\0"
 1256      5A454F46 
 1256      5F464C4F 
 1256      41545F5F 
 1256      203400
 1257 0177 01       		.byte	0x1
 1258 0178 00       		.uleb128 0
 1259 0179 5F5F5349 		.ascii "__SIZEOF_DOUBLE__ 8\0"
 1259      5A454F46 
 1259      5F444F55 
 1259      424C455F 
 1259      5F203800 
 1260 018d 01       		.byte	0x1
 1261 018e 00       		.uleb128 0
 1262 018f 5F5F5349 		.ascii "__SIZEOF_LONG_DOUBLE__ 12\0"
 1262      5A454F46 
 1262      5F4C4F4E 
 1262      475F444F 
GAS LISTING C:\Users\PRESID~1\AppData\Local\Temp\cc4dUwFK.s 			page 29


 1262      55424C45 
 1263 01a9 01       		.byte	0x1
 1264 01aa 00       		.uleb128 0
 1265 01ab 5F5F5349 		.ascii "__SIZEOF_SIZE_T__ 4\0"
 1265      5A454F46 
 1265      5F53495A 
 1265      455F545F 
 1265      5F203400 
 1266 01bf 01       		.byte	0x1
 1267 01c0 00       		.uleb128 0
 1268 01c1 5F5F4348 		.ascii "__CHAR_BIT__ 8\0"
 1268      41525F42 
 1268      49545F5F 
 1268      203800
 1269 01d0 01       		.byte	0x1
 1270 01d1 00       		.uleb128 0
 1271 01d2 5F5F4249 		.ascii "__BIGGEST_ALIGNMENT__ 16\0"
 1271      47474553 
 1271      545F414C 
 1271      49474E4D 
 1271      454E545F 
 1272 01eb 01       		.byte	0x1
 1273 01ec 00       		.uleb128 0
 1274 01ed 5F5F4F52 		.ascii "__ORDER_LITTLE_ENDIAN__ 1234\0"
 1274      4445525F 
 1274      4C495454 
 1274      4C455F45 
 1274      4E444941 
 1275 020a 01       		.byte	0x1
 1276 020b 00       		.uleb128 0
 1277 020c 5F5F4F52 		.ascii "__ORDER_BIG_ENDIAN__ 4321\0"
 1277      4445525F 
 1277      4249475F 
 1277      454E4449 
 1277      414E5F5F 
 1278 0226 01       		.byte	0x1
 1279 0227 00       		.uleb128 0
 1280 0228 5F5F4F52 		.ascii "__ORDER_PDP_ENDIAN__ 3412\0"
 1280      4445525F 
 1280      5044505F 
 1280      454E4449 
 1280      414E5F5F 
 1281 0242 01       		.byte	0x1
 1282 0243 00       		.uleb128 0
 1283 0244 5F5F4259 		.ascii "__BYTE_ORDER__ __ORDER_LITTLE_ENDIAN__\0"
 1283      54455F4F 
 1283      52444552 
 1283      5F5F205F 
 1283      5F4F5244 
 1284 026b 01       		.byte	0x1
 1285 026c 00       		.uleb128 0
 1286 026d 5F5F464C 		.ascii "__FLOAT_WORD_ORDER__ __ORDER_LITTLE_ENDIAN__\0"
 1286      4F41545F 
 1286      574F5244 
 1286      5F4F5244 
 1286      45525F5F 
 1287 029a 01       		.byte	0x1
GAS LISTING C:\Users\PRESID~1\AppData\Local\Temp\cc4dUwFK.s 			page 30


 1288 029b 00       		.uleb128 0
 1289 029c 5F5F5349 		.ascii "__SIZEOF_POINTER__ 4\0"
 1289      5A454F46 
 1289      5F504F49 
 1289      4E544552 
 1289      5F5F2034 
 1290 02b1 01       		.byte	0x1
 1291 02b2 00       		.uleb128 0
 1292 02b3 5F5F5349 		.ascii "__SIZE_TYPE__ unsigned int\0"
 1292      5A455F54 
 1292      5950455F 
 1292      5F20756E 
 1292      7369676E 
 1293 02ce 01       		.byte	0x1
 1294 02cf 00       		.uleb128 0
 1295 02d0 5F5F5054 		.ascii "__PTRDIFF_TYPE__ int\0"
 1295      52444946 
 1295      465F5459 
 1295      50455F5F 
 1295      20696E74 
 1296 02e5 01       		.byte	0x1
 1297 02e6 00       		.uleb128 0
 1298 02e7 5F5F5743 		.ascii "__WCHAR_TYPE__ short unsigned int\0"
 1298      4841525F 
 1298      54595045 
 1298      5F5F2073 
 1298      686F7274 
 1299 0309 01       		.byte	0x1
 1300 030a 00       		.uleb128 0
 1301 030b 5F5F5749 		.ascii "__WINT_TYPE__ short unsigned int\0"
 1301      4E545F54 
 1301      5950455F 
 1301      5F207368 
 1301      6F727420 
 1302 032c 01       		.byte	0x1
 1303 032d 00       		.uleb128 0
 1304 032e 5F5F494E 		.ascii "__INTMAX_TYPE__ long long int\0"
 1304      544D4158 
 1304      5F545950 
 1304      455F5F20 
 1304      6C6F6E67 
 1305 034c 01       		.byte	0x1
 1306 034d 00       		.uleb128 0
 1307 034e 5F5F5549 		.ascii "__UINTMAX_TYPE__ long long unsigned int\0"
 1307      4E544D41 
 1307      585F5459 
 1307      50455F5F 
 1307      206C6F6E 
 1308 0376 01       		.byte	0x1
 1309 0377 00       		.uleb128 0
 1310 0378 5F5F4348 		.ascii "__CHAR16_TYPE__ short unsigned int\0"
 1310      41523136 
 1310      5F545950 
 1310      455F5F20 
 1310      73686F72 
 1311 039b 01       		.byte	0x1
 1312 039c 00       		.uleb128 0
GAS LISTING C:\Users\PRESID~1\AppData\Local\Temp\cc4dUwFK.s 			page 31


 1313 039d 5F5F4348 		.ascii "__CHAR32_TYPE__ unsigned int\0"
 1313      41523332 
 1313      5F545950 
 1313      455F5F20 
 1313      756E7369 
 1314 03ba 01       		.byte	0x1
 1315 03bb 00       		.uleb128 0
 1316 03bc 5F5F5349 		.ascii "__SIG_ATOMIC_TYPE__ int\0"
 1316      475F4154 
 1316      4F4D4943 
 1316      5F545950 
 1316      455F5F20 
 1317 03d4 01       		.byte	0x1
 1318 03d5 00       		.uleb128 0
 1319 03d6 5F5F494E 		.ascii "__INT8_TYPE__ signed char\0"
 1319      54385F54 
 1319      5950455F 
 1319      5F207369 
 1319      676E6564 
 1320 03f0 01       		.byte	0x1
 1321 03f1 00       		.uleb128 0
 1322 03f2 5F5F494E 		.ascii "__INT16_TYPE__ short int\0"
 1322      5431365F 
 1322      54595045 
 1322      5F5F2073 
 1322      686F7274 
 1323 040b 01       		.byte	0x1
 1324 040c 00       		.uleb128 0
 1325 040d 5F5F494E 		.ascii "__INT32_TYPE__ int\0"
 1325      5433325F 
 1325      54595045 
 1325      5F5F2069 
 1325      6E7400
 1326 0420 01       		.byte	0x1
 1327 0421 00       		.uleb128 0
 1328 0422 5F5F494E 		.ascii "__INT64_TYPE__ long long int\0"
 1328      5436345F 
 1328      54595045 
 1328      5F5F206C 
 1328      6F6E6720 
 1329 043f 01       		.byte	0x1
 1330 0440 00       		.uleb128 0
 1331 0441 5F5F5549 		.ascii "__UINT8_TYPE__ unsigned char\0"
 1331      4E54385F 
 1331      54595045 
 1331      5F5F2075 
 1331      6E736967 
 1332 045e 01       		.byte	0x1
 1333 045f 00       		.uleb128 0
 1334 0460 5F5F5549 		.ascii "__UINT16_TYPE__ short unsigned int\0"
 1334      4E543136 
 1334      5F545950 
 1334      455F5F20 
 1334      73686F72 
 1335 0483 01       		.byte	0x1
 1336 0484 00       		.uleb128 0
 1337 0485 5F5F5549 		.ascii "__UINT32_TYPE__ unsigned int\0"
GAS LISTING C:\Users\PRESID~1\AppData\Local\Temp\cc4dUwFK.s 			page 32


 1337      4E543332 
 1337      5F545950 
 1337      455F5F20 
 1337      756E7369 
 1338 04a2 01       		.byte	0x1
 1339 04a3 00       		.uleb128 0
 1340 04a4 5F5F5549 		.ascii "__UINT64_TYPE__ long long unsigned int\0"
 1340      4E543634 
 1340      5F545950 
 1340      455F5F20 
 1340      6C6F6E67 
 1341 04cb 01       		.byte	0x1
 1342 04cc 00       		.uleb128 0
 1343 04cd 5F5F494E 		.ascii "__INT_LEAST8_TYPE__ signed char\0"
 1343      545F4C45 
 1343      41535438 
 1343      5F545950 
 1343      455F5F20 
 1344 04ed 01       		.byte	0x1
 1345 04ee 00       		.uleb128 0
 1346 04ef 5F5F494E 		.ascii "__INT_LEAST16_TYPE__ short int\0"
 1346      545F4C45 
 1346      41535431 
 1346      365F5459 
 1346      50455F5F 
 1347 050e 01       		.byte	0x1
 1348 050f 00       		.uleb128 0
 1349 0510 5F5F494E 		.ascii "__INT_LEAST32_TYPE__ int\0"
 1349      545F4C45 
 1349      41535433 
 1349      325F5459 
 1349      50455F5F 
 1350 0529 01       		.byte	0x1
 1351 052a 00       		.uleb128 0
 1352 052b 5F5F494E 		.ascii "__INT_LEAST64_TYPE__ long long int\0"
 1352      545F4C45 
 1352      41535436 
 1352      345F5459 
 1352      50455F5F 
 1353 054e 01       		.byte	0x1
 1354 054f 00       		.uleb128 0
 1355 0550 5F5F5549 		.ascii "__UINT_LEAST8_TYPE__ unsigned char\0"
 1355      4E545F4C 
 1355      45415354 
 1355      385F5459 
 1355      50455F5F 
 1356 0573 01       		.byte	0x1
 1357 0574 00       		.uleb128 0
 1358 0575 5F5F5549 		.ascii "__UINT_LEAST16_TYPE__ short unsigned int\0"
 1358      4E545F4C 
 1358      45415354 
 1358      31365F54 
 1358      5950455F 
 1359 059e 01       		.byte	0x1
 1360 059f 00       		.uleb128 0
 1361 05a0 5F5F5549 		.ascii "__UINT_LEAST32_TYPE__ unsigned int\0"
 1361      4E545F4C 
GAS LISTING C:\Users\PRESID~1\AppData\Local\Temp\cc4dUwFK.s 			page 33


 1361      45415354 
 1361      33325F54 
 1361      5950455F 
 1362 05c3 01       		.byte	0x1
 1363 05c4 00       		.uleb128 0
 1364 05c5 5F5F5549 		.ascii "__UINT_LEAST64_TYPE__ long long unsigned int\0"
 1364      4E545F4C 
 1364      45415354 
 1364      36345F54 
 1364      5950455F 
 1365 05f2 01       		.byte	0x1
 1366 05f3 00       		.uleb128 0
 1367 05f4 5F5F494E 		.ascii "__INT_FAST8_TYPE__ signed char\0"
 1367      545F4641 
 1367      5354385F 
 1367      54595045 
 1367      5F5F2073 
 1368 0613 01       		.byte	0x1
 1369 0614 00       		.uleb128 0
 1370 0615 5F5F494E 		.ascii "__INT_FAST16_TYPE__ short int\0"
 1370      545F4641 
 1370      53543136 
 1370      5F545950 
 1370      455F5F20 
 1371 0633 01       		.byte	0x1
 1372 0634 00       		.uleb128 0
 1373 0635 5F5F494E 		.ascii "__INT_FAST32_TYPE__ int\0"
 1373      545F4641 
 1373      53543332 
 1373      5F545950 
 1373      455F5F20 
 1374 064d 01       		.byte	0x1
 1375 064e 00       		.uleb128 0
 1376 064f 5F5F494E 		.ascii "__INT_FAST64_TYPE__ long long int\0"
 1376      545F4641 
 1376      53543634 
 1376      5F545950 
 1376      455F5F20 
 1377 0671 01       		.byte	0x1
 1378 0672 00       		.uleb128 0
 1379 0673 5F5F5549 		.ascii "__UINT_FAST8_TYPE__ unsigned char\0"
 1379      4E545F46 
 1379      41535438 
 1379      5F545950 
 1379      455F5F20 
 1380 0695 01       		.byte	0x1
 1381 0696 00       		.uleb128 0
 1382 0697 5F5F5549 		.ascii "__UINT_FAST16_TYPE__ short unsigned int\0"
 1382      4E545F46 
 1382      41535431 
 1382      365F5459 
 1382      50455F5F 
 1383 06bf 01       		.byte	0x1
 1384 06c0 00       		.uleb128 0
 1385 06c1 5F5F5549 		.ascii "__UINT_FAST32_TYPE__ unsigned int\0"
 1385      4E545F46 
 1385      41535433 
GAS LISTING C:\Users\PRESID~1\AppData\Local\Temp\cc4dUwFK.s 			page 34


 1385      325F5459 
 1385      50455F5F 
 1386 06e3 01       		.byte	0x1
 1387 06e4 00       		.uleb128 0
 1388 06e5 5F5F5549 		.ascii "__UINT_FAST64_TYPE__ long long unsigned int\0"
 1388      4E545F46 
 1388      41535436 
 1388      345F5459 
 1388      50455F5F 
 1389 0711 01       		.byte	0x1
 1390 0712 00       		.uleb128 0
 1391 0713 5F5F494E 		.ascii "__INTPTR_TYPE__ int\0"
 1391      54505452 
 1391      5F545950 
 1391      455F5F20 
 1391      696E7400 
 1392 0727 01       		.byte	0x1
 1393 0728 00       		.uleb128 0
 1394 0729 5F5F5549 		.ascii "__UINTPTR_TYPE__ unsigned int\0"
 1394      4E545054 
 1394      525F5459 
 1394      50455F5F 
 1394      20756E73 
 1395 0747 01       		.byte	0x1
 1396 0748 00       		.uleb128 0
 1397 0749 5F5F6861 		.ascii "__has_include(STR) __has_include__(STR)\0"
 1397      735F696E 
 1397      636C7564 
 1397      65285354 
 1397      5229205F 
 1398 0771 01       		.byte	0x1
 1399 0772 00       		.uleb128 0
 1400 0773 5F5F6861 		.ascii "__has_include_next(STR) __has_include_next__(STR)\0"
 1400      735F696E 
 1400      636C7564 
 1400      655F6E65 
 1400      78742853 
 1401 07a5 01       		.byte	0x1
 1402 07a6 00       		.uleb128 0
 1403 07a7 5F5F4758 		.ascii "__GXX_ABI_VERSION 1002\0"
 1403      585F4142 
 1403      495F5645 
 1403      5253494F 
 1403      4E203130 
 1404 07be 01       		.byte	0x1
 1405 07bf 00       		.uleb128 0
 1406 07c0 5F5F5343 		.ascii "__SCHAR_MAX__ 127\0"
 1406      4841525F 
 1406      4D41585F 
 1406      5F203132 
 1406      3700
 1407 07d2 01       		.byte	0x1
 1408 07d3 00       		.uleb128 0
 1409 07d4 5F5F5348 		.ascii "__SHRT_MAX__ 32767\0"
 1409      52545F4D 
 1409      41585F5F 
 1409      20333237 
GAS LISTING C:\Users\PRESID~1\AppData\Local\Temp\cc4dUwFK.s 			page 35


 1409      363700
 1410 07e7 01       		.byte	0x1
 1411 07e8 00       		.uleb128 0
 1412 07e9 5F5F494E 		.ascii "__INT_MAX__ 2147483647\0"
 1412      545F4D41 
 1412      585F5F20 
 1412      32313437 
 1412      34383336 
 1413 0800 01       		.byte	0x1
 1414 0801 00       		.uleb128 0
 1415 0802 5F5F4C4F 		.ascii "__LONG_MAX__ 2147483647L\0"
 1415      4E475F4D 
 1415      41585F5F 
 1415      20323134 
 1415      37343833 
 1416 081b 01       		.byte	0x1
 1417 081c 00       		.uleb128 0
 1418 081d 5F5F4C4F 		.ascii "__LONG_LONG_MAX__ 9223372036854775807LL\0"
 1418      4E475F4C 
 1418      4F4E475F 
 1418      4D41585F 
 1418      5F203932 
 1419 0845 01       		.byte	0x1
 1420 0846 00       		.uleb128 0
 1421 0847 5F5F5743 		.ascii "__WCHAR_MAX__ 65535\0"
 1421      4841525F 
 1421      4D41585F 
 1421      5F203635 
 1421      35333500 
 1422 085b 01       		.byte	0x1
 1423 085c 00       		.uleb128 0
 1424 085d 5F5F5743 		.ascii "__WCHAR_MIN__ 0\0"
 1424      4841525F 
 1424      4D494E5F 
 1424      5F203000 
 1425 086d 01       		.byte	0x1
 1426 086e 00       		.uleb128 0
 1427 086f 5F5F5749 		.ascii "__WINT_MAX__ 65535\0"
 1427      4E545F4D 
 1427      41585F5F 
 1427      20363535 
 1427      333500
 1428 0882 01       		.byte	0x1
 1429 0883 00       		.uleb128 0
 1430 0884 5F5F5749 		.ascii "__WINT_MIN__ 0\0"
 1430      4E545F4D 
 1430      494E5F5F 
 1430      203000
 1431 0893 01       		.byte	0x1
 1432 0894 00       		.uleb128 0
 1433 0895 5F5F5054 		.ascii "__PTRDIFF_MAX__ 2147483647\0"
 1433      52444946 
 1433      465F4D41 
 1433      585F5F20 
 1433      32313437 
 1434 08b0 01       		.byte	0x1
 1435 08b1 00       		.uleb128 0
GAS LISTING C:\Users\PRESID~1\AppData\Local\Temp\cc4dUwFK.s 			page 36


 1436 08b2 5F5F5349 		.ascii "__SIZE_MAX__ 4294967295U\0"
 1436      5A455F4D 
 1436      41585F5F 
 1436      20343239 
 1436      34393637 
 1437 08cb 01       		.byte	0x1
 1438 08cc 00       		.uleb128 0
 1439 08cd 5F5F494E 		.ascii "__INTMAX_MAX__ 9223372036854775807LL\0"
 1439      544D4158 
 1439      5F4D4158 
 1439      5F5F2039 
 1439      32323333 
 1440 08f2 01       		.byte	0x1
 1441 08f3 00       		.uleb128 0
 1442 08f4 5F5F494E 		.ascii "__INTMAX_C(c) c ## LL\0"
 1442      544D4158 
 1442      5F432863 
 1442      29206320 
 1442      2323204C 
 1443 090a 01       		.byte	0x1
 1444 090b 00       		.uleb128 0
 1445 090c 5F5F5549 		.ascii "__UINTMAX_MAX__ 18446744073709551615ULL\0"
 1445      4E544D41 
 1445      585F4D41 
 1445      585F5F20 
 1445      31383434 
 1446 0934 01       		.byte	0x1
 1447 0935 00       		.uleb128 0
 1448 0936 5F5F5549 		.ascii "__UINTMAX_C(c) c ## ULL\0"
 1448      4E544D41 
 1448      585F4328 
 1448      63292063 
 1448      20232320 
 1449 094e 01       		.byte	0x1
 1450 094f 00       		.uleb128 0
 1451 0950 5F5F5349 		.ascii "__SIG_ATOMIC_MAX__ 2147483647\0"
 1451      475F4154 
 1451      4F4D4943 
 1451      5F4D4158 
 1451      5F5F2032 
 1452 096e 01       		.byte	0x1
 1453 096f 00       		.uleb128 0
 1454 0970 5F5F5349 		.ascii "__SIG_ATOMIC_MIN__ (-__SIG_ATOMIC_MAX__ - 1)\0"
 1454      475F4154 
 1454      4F4D4943 
 1454      5F4D494E 
 1454      5F5F2028 
 1455 099d 01       		.byte	0x1
 1456 099e 00       		.uleb128 0
 1457 099f 5F5F494E 		.ascii "__INT8_MAX__ 127\0"
 1457      54385F4D 
 1457      41585F5F 
 1457      20313237 
 1457      00
 1458 09b0 01       		.byte	0x1
 1459 09b1 00       		.uleb128 0
 1460 09b2 5F5F494E 		.ascii "__INT16_MAX__ 32767\0"
GAS LISTING C:\Users\PRESID~1\AppData\Local\Temp\cc4dUwFK.s 			page 37


 1460      5431365F 
 1460      4D41585F 
 1460      5F203332 
 1460      37363700 
 1461 09c6 01       		.byte	0x1
 1462 09c7 00       		.uleb128 0
 1463 09c8 5F5F494E 		.ascii "__INT32_MAX__ 2147483647\0"
 1463      5433325F 
 1463      4D41585F 
 1463      5F203231 
 1463      34373438 
 1464 09e1 01       		.byte	0x1
 1465 09e2 00       		.uleb128 0
 1466 09e3 5F5F494E 		.ascii "__INT64_MAX__ 9223372036854775807LL\0"
 1466      5436345F 
 1466      4D41585F 
 1466      5F203932 
 1466      32333337 
 1467 0a07 01       		.byte	0x1
 1468 0a08 00       		.uleb128 0
 1469 0a09 5F5F5549 		.ascii "__UINT8_MAX__ 255\0"
 1469      4E54385F 
 1469      4D41585F 
 1469      5F203235 
 1469      3500
 1470 0a1b 01       		.byte	0x1
 1471 0a1c 00       		.uleb128 0
 1472 0a1d 5F5F5549 		.ascii "__UINT16_MAX__ 65535\0"
 1472      4E543136 
 1472      5F4D4158 
 1472      5F5F2036 
 1472      35353335 
 1473 0a32 01       		.byte	0x1
 1474 0a33 00       		.uleb128 0
 1475 0a34 5F5F5549 		.ascii "__UINT32_MAX__ 4294967295U\0"
 1475      4E543332 
 1475      5F4D4158 
 1475      5F5F2034 
 1475      32393439 
 1476 0a4f 01       		.byte	0x1
 1477 0a50 00       		.uleb128 0
 1478 0a51 5F5F5549 		.ascii "__UINT64_MAX__ 18446744073709551615ULL\0"
 1478      4E543634 
 1478      5F4D4158 
 1478      5F5F2031 
 1478      38343436 
 1479 0a78 01       		.byte	0x1
 1480 0a79 00       		.uleb128 0
 1481 0a7a 5F5F494E 		.ascii "__INT_LEAST8_MAX__ 127\0"
 1481      545F4C45 
 1481      41535438 
 1481      5F4D4158 
 1481      5F5F2031 
 1482 0a91 01       		.byte	0x1
 1483 0a92 00       		.uleb128 0
 1484 0a93 5F5F494E 		.ascii "__INT8_C(c) c\0"
 1484      54385F43 
GAS LISTING C:\Users\PRESID~1\AppData\Local\Temp\cc4dUwFK.s 			page 38


 1484      28632920 
 1484      6300
 1485 0aa1 01       		.byte	0x1
 1486 0aa2 00       		.uleb128 0
 1487 0aa3 5F5F494E 		.ascii "__INT_LEAST16_MAX__ 32767\0"
 1487      545F4C45 
 1487      41535431 
 1487      365F4D41 
 1487      585F5F20 
 1488 0abd 01       		.byte	0x1
 1489 0abe 00       		.uleb128 0
 1490 0abf 5F5F494E 		.ascii "__INT16_C(c) c\0"
 1490      5431365F 
 1490      43286329 
 1490      206300
 1491 0ace 01       		.byte	0x1
 1492 0acf 00       		.uleb128 0
 1493 0ad0 5F5F494E 		.ascii "__INT_LEAST32_MAX__ 2147483647\0"
 1493      545F4C45 
 1493      41535433 
 1493      325F4D41 
 1493      585F5F20 
 1494 0aef 01       		.byte	0x1
 1495 0af0 00       		.uleb128 0
 1496 0af1 5F5F494E 		.ascii "__INT32_C(c) c\0"
 1496      5433325F 
 1496      43286329 
 1496      206300
 1497 0b00 01       		.byte	0x1
 1498 0b01 00       		.uleb128 0
 1499 0b02 5F5F494E 		.ascii "__INT_LEAST64_MAX__ 9223372036854775807LL\0"
 1499      545F4C45 
 1499      41535436 
 1499      345F4D41 
 1499      585F5F20 
 1500 0b2c 01       		.byte	0x1
 1501 0b2d 00       		.uleb128 0
 1502 0b2e 5F5F494E 		.ascii "__INT64_C(c) c ## LL\0"
 1502      5436345F 
 1502      43286329 
 1502      20632023 
 1502      23204C4C 
 1503 0b43 01       		.byte	0x1
 1504 0b44 00       		.uleb128 0
 1505 0b45 5F5F5549 		.ascii "__UINT_LEAST8_MAX__ 255\0"
 1505      4E545F4C 
 1505      45415354 
 1505      385F4D41 
 1505      585F5F20 
 1506 0b5d 01       		.byte	0x1
 1507 0b5e 00       		.uleb128 0
 1508 0b5f 5F5F5549 		.ascii "__UINT8_C(c) c\0"
 1508      4E54385F 
 1508      43286329 
 1508      206300
 1509 0b6e 01       		.byte	0x1
 1510 0b6f 00       		.uleb128 0
GAS LISTING C:\Users\PRESID~1\AppData\Local\Temp\cc4dUwFK.s 			page 39


 1511 0b70 5F5F5549 		.ascii "__UINT_LEAST16_MAX__ 65535\0"
 1511      4E545F4C 
 1511      45415354 
 1511      31365F4D 
 1511      41585F5F 
 1512 0b8b 01       		.byte	0x1
 1513 0b8c 00       		.uleb128 0
 1514 0b8d 5F5F5549 		.ascii "__UINT16_C(c) c\0"
 1514      4E543136 
 1514      5F432863 
 1514      29206300 
 1515 0b9d 01       		.byte	0x1
 1516 0b9e 00       		.uleb128 0
 1517 0b9f 5F5F5549 		.ascii "__UINT_LEAST32_MAX__ 4294967295U\0"
 1517      4E545F4C 
 1517      45415354 
 1517      33325F4D 
 1517      41585F5F 
 1518 0bc0 01       		.byte	0x1
 1519 0bc1 00       		.uleb128 0
 1520 0bc2 5F5F5549 		.ascii "__UINT32_C(c) c ## U\0"
 1520      4E543332 
 1520      5F432863 
 1520      29206320 
 1520      23232055 
 1521 0bd7 01       		.byte	0x1
 1522 0bd8 00       		.uleb128 0
 1523 0bd9 5F5F5549 		.ascii "__UINT_LEAST64_MAX__ 18446744073709551615ULL\0"
 1523      4E545F4C 
 1523      45415354 
 1523      36345F4D 
 1523      41585F5F 
 1524 0c06 01       		.byte	0x1
 1525 0c07 00       		.uleb128 0
 1526 0c08 5F5F5549 		.ascii "__UINT64_C(c) c ## ULL\0"
 1526      4E543634 
 1526      5F432863 
 1526      29206320 
 1526      23232055 
 1527 0c1f 01       		.byte	0x1
 1528 0c20 00       		.uleb128 0
 1529 0c21 5F5F494E 		.ascii "__INT_FAST8_MAX__ 127\0"
 1529      545F4641 
 1529      5354385F 
 1529      4D41585F 
 1529      5F203132 
 1530 0c37 01       		.byte	0x1
 1531 0c38 00       		.uleb128 0
 1532 0c39 5F5F494E 		.ascii "__INT_FAST16_MAX__ 32767\0"
 1532      545F4641 
 1532      53543136 
 1532      5F4D4158 
 1532      5F5F2033 
 1533 0c52 01       		.byte	0x1
 1534 0c53 00       		.uleb128 0
 1535 0c54 5F5F494E 		.ascii "__INT_FAST32_MAX__ 2147483647\0"
 1535      545F4641 
GAS LISTING C:\Users\PRESID~1\AppData\Local\Temp\cc4dUwFK.s 			page 40


 1535      53543332 
 1535      5F4D4158 
 1535      5F5F2032 
 1536 0c72 01       		.byte	0x1
 1537 0c73 00       		.uleb128 0
 1538 0c74 5F5F494E 		.ascii "__INT_FAST64_MAX__ 9223372036854775807LL\0"
 1538      545F4641 
 1538      53543634 
 1538      5F4D4158 
 1538      5F5F2039 
 1539 0c9d 01       		.byte	0x1
 1540 0c9e 00       		.uleb128 0
 1541 0c9f 5F5F5549 		.ascii "__UINT_FAST8_MAX__ 255\0"
 1541      4E545F46 
 1541      41535438 
 1541      5F4D4158 
 1541      5F5F2032 
 1542 0cb6 01       		.byte	0x1
 1543 0cb7 00       		.uleb128 0
 1544 0cb8 5F5F5549 		.ascii "__UINT_FAST16_MAX__ 65535\0"
 1544      4E545F46 
 1544      41535431 
 1544      365F4D41 
 1544      585F5F20 
 1545 0cd2 01       		.byte	0x1
 1546 0cd3 00       		.uleb128 0
 1547 0cd4 5F5F5549 		.ascii "__UINT_FAST32_MAX__ 4294967295U\0"
 1547      4E545F46 
 1547      41535433 
 1547      325F4D41 
 1547      585F5F20 
 1548 0cf4 01       		.byte	0x1
 1549 0cf5 00       		.uleb128 0
 1550 0cf6 5F5F5549 		.ascii "__UINT_FAST64_MAX__ 18446744073709551615ULL\0"
 1550      4E545F46 
 1550      41535436 
 1550      345F4D41 
 1550      585F5F20 
 1551 0d22 01       		.byte	0x1
 1552 0d23 00       		.uleb128 0
 1553 0d24 5F5F494E 		.ascii "__INTPTR_MAX__ 2147483647\0"
 1553      54505452 
 1553      5F4D4158 
 1553      5F5F2032 
 1553      31343734 
 1554 0d3e 01       		.byte	0x1
 1555 0d3f 00       		.uleb128 0
 1556 0d40 5F5F5549 		.ascii "__UINTPTR_MAX__ 4294967295U\0"
 1556      4E545054 
 1556      525F4D41 
 1556      585F5F20 
 1556      34323934 
 1557 0d5c 01       		.byte	0x1
 1558 0d5d 00       		.uleb128 0
 1559 0d5e 5F5F4743 		.ascii "__GCC_IEC_559 2\0"
 1559      435F4945 
 1559      435F3535 
GAS LISTING C:\Users\PRESID~1\AppData\Local\Temp\cc4dUwFK.s 			page 41


 1559      39203200 
 1560 0d6e 01       		.byte	0x1
 1561 0d6f 00       		.uleb128 0
 1562 0d70 5F5F4743 		.ascii "__GCC_IEC_559_COMPLEX 2\0"
 1562      435F4945 
 1562      435F3535 
 1562      395F434F 
 1562      4D504C45 
 1563 0d88 01       		.byte	0x1
 1564 0d89 00       		.uleb128 0
 1565 0d8a 5F5F464C 		.ascii "__FLT_EVAL_METHOD__ 2\0"
 1565      545F4556 
 1565      414C5F4D 
 1565      4554484F 
 1565      445F5F20 
 1566 0da0 01       		.byte	0x1
 1567 0da1 00       		.uleb128 0
 1568 0da2 5F5F4445 		.ascii "__DEC_EVAL_METHOD__ 2\0"
 1568      435F4556 
 1568      414C5F4D 
 1568      4554484F 
 1568      445F5F20 
 1569 0db8 01       		.byte	0x1
 1570 0db9 00       		.uleb128 0
 1571 0dba 5F5F464C 		.ascii "__FLT_RADIX__ 2\0"
 1571      545F5241 
 1571      4449585F 
 1571      5F203200 
 1572 0dca 01       		.byte	0x1
 1573 0dcb 00       		.uleb128 0
 1574 0dcc 5F5F464C 		.ascii "__FLT_MANT_DIG__ 24\0"
 1574      545F4D41 
 1574      4E545F44 
 1574      49475F5F 
 1574      20323400 
 1575 0de0 01       		.byte	0x1
 1576 0de1 00       		.uleb128 0
 1577 0de2 5F5F464C 		.ascii "__FLT_DIG__ 6\0"
 1577      545F4449 
 1577      475F5F20 
 1577      3600
 1578 0df0 01       		.byte	0x1
 1579 0df1 00       		.uleb128 0
 1580 0df2 5F5F464C 		.ascii "__FLT_MIN_EXP__ (-125)\0"
 1580      545F4D49 
 1580      4E5F4558 
 1580      505F5F20 
 1580      282D3132 
 1581 0e09 01       		.byte	0x1
 1582 0e0a 00       		.uleb128 0
 1583 0e0b 5F5F464C 		.ascii "__FLT_MIN_10_EXP__ (-37)\0"
 1583      545F4D49 
 1583      4E5F3130 
 1583      5F455850 
 1583      5F5F2028 
 1584 0e24 01       		.byte	0x1
 1585 0e25 00       		.uleb128 0
GAS LISTING C:\Users\PRESID~1\AppData\Local\Temp\cc4dUwFK.s 			page 42


 1586 0e26 5F5F464C 		.ascii "__FLT_MAX_EXP__ 128\0"
 1586      545F4D41 
 1586      585F4558 
 1586      505F5F20 
 1586      31323800 
 1587 0e3a 01       		.byte	0x1
 1588 0e3b 00       		.uleb128 0
 1589 0e3c 5F5F464C 		.ascii "__FLT_MAX_10_EXP__ 38\0"
 1589      545F4D41 
 1589      585F3130 
 1589      5F455850 
 1589      5F5F2033 
 1590 0e52 01       		.byte	0x1
 1591 0e53 00       		.uleb128 0
 1592 0e54 5F5F464C 		.ascii "__FLT_DECIMAL_DIG__ 9\0"
 1592      545F4445 
 1592      43494D41 
 1592      4C5F4449 
 1592      475F5F20 
 1593 0e6a 01       		.byte	0x1
 1594 0e6b 00       		.uleb128 0
 1595 0e6c 5F5F464C 		.ascii "__FLT_MAX__ 3.40282346638528859812e+38F\0"
 1595      545F4D41 
 1595      585F5F20 
 1595      332E3430 
 1595      32383233 
 1596 0e94 01       		.byte	0x1
 1597 0e95 00       		.uleb128 0
 1598 0e96 5F5F464C 		.ascii "__FLT_MIN__ 1.17549435082228750797e-38F\0"
 1598      545F4D49 
 1598      4E5F5F20 
 1598      312E3137 
 1598      35343934 
 1599 0ebe 01       		.byte	0x1
 1600 0ebf 00       		.uleb128 0
 1601 0ec0 5F5F464C 		.ascii "__FLT_EPSILON__ 1.19209289550781250000e-7F\0"
 1601      545F4550 
 1601      53494C4F 
 1601      4E5F5F20 
 1601      312E3139 
 1602 0eeb 01       		.byte	0x1
 1603 0eec 00       		.uleb128 0
 1604 0eed 5F5F464C 		.ascii "__FLT_DENORM_MIN__ 1.40129846432481707092e-45F\0"
 1604      545F4445 
 1604      4E4F524D 
 1604      5F4D494E 
 1604      5F5F2031 
 1605 0f1c 01       		.byte	0x1
 1606 0f1d 00       		.uleb128 0
 1607 0f1e 5F5F464C 		.ascii "__FLT_HAS_DENORM__ 1\0"
 1607      545F4841 
 1607      535F4445 
 1607      4E4F524D 
 1607      5F5F2031 
 1608 0f33 01       		.byte	0x1
 1609 0f34 00       		.uleb128 0
 1610 0f35 5F5F464C 		.ascii "__FLT_HAS_INFINITY__ 1\0"
GAS LISTING C:\Users\PRESID~1\AppData\Local\Temp\cc4dUwFK.s 			page 43


 1610      545F4841 
 1610      535F494E 
 1610      46494E49 
 1610      54595F5F 
 1611 0f4c 01       		.byte	0x1
 1612 0f4d 00       		.uleb128 0
 1613 0f4e 5F5F464C 		.ascii "__FLT_HAS_QUIET_NAN__ 1\0"
 1613      545F4841 
 1613      535F5155 
 1613      4945545F 
 1613      4E414E5F 
 1614 0f66 01       		.byte	0x1
 1615 0f67 00       		.uleb128 0
 1616 0f68 5F5F4442 		.ascii "__DBL_MANT_DIG__ 53\0"
 1616      4C5F4D41 
 1616      4E545F44 
 1616      49475F5F 
 1616      20353300 
 1617 0f7c 01       		.byte	0x1
 1618 0f7d 00       		.uleb128 0
 1619 0f7e 5F5F4442 		.ascii "__DBL_DIG__ 15\0"
 1619      4C5F4449 
 1619      475F5F20 
 1619      313500
 1620 0f8d 01       		.byte	0x1
 1621 0f8e 00       		.uleb128 0
 1622 0f8f 5F5F4442 		.ascii "__DBL_MIN_EXP__ (-1021)\0"
 1622      4C5F4D49 
 1622      4E5F4558 
 1622      505F5F20 
 1622      282D3130 
 1623 0fa7 01       		.byte	0x1
 1624 0fa8 00       		.uleb128 0
 1625 0fa9 5F5F4442 		.ascii "__DBL_MIN_10_EXP__ (-307)\0"
 1625      4C5F4D49 
 1625      4E5F3130 
 1625      5F455850 
 1625      5F5F2028 
 1626 0fc3 01       		.byte	0x1
 1627 0fc4 00       		.uleb128 0
 1628 0fc5 5F5F4442 		.ascii "__DBL_MAX_EXP__ 1024\0"
 1628      4C5F4D41 
 1628      585F4558 
 1628      505F5F20 
 1628      31303234 
 1629 0fda 01       		.byte	0x1
 1630 0fdb 00       		.uleb128 0
 1631 0fdc 5F5F4442 		.ascii "__DBL_MAX_10_EXP__ 308\0"
 1631      4C5F4D41 
 1631      585F3130 
 1631      5F455850 
 1631      5F5F2033 
 1632 0ff3 01       		.byte	0x1
 1633 0ff4 00       		.uleb128 0
 1634 0ff5 5F5F4442 		.ascii "__DBL_DECIMAL_DIG__ 17\0"
 1634      4C5F4445 
 1634      43494D41 
GAS LISTING C:\Users\PRESID~1\AppData\Local\Temp\cc4dUwFK.s 			page 44


 1634      4C5F4449 
 1634      475F5F20 
 1635 100c 01       		.byte	0x1
 1636 100d 00       		.uleb128 0
 1637 100e 5F5F4442 		.ascii "__DBL_MAX__ ((double)1.79769313486231570815e+308L)\0"
 1637      4C5F4D41 
 1637      585F5F20 
 1637      2828646F 
 1637      75626C65 
 1638 1041 01       		.byte	0x1
 1639 1042 00       		.uleb128 0
 1640 1043 5F5F4442 		.ascii "__DBL_MIN__ ((double)2.22507385850720138309e-308L)\0"
 1640      4C5F4D49 
 1640      4E5F5F20 
 1640      2828646F 
 1640      75626C65 
 1641 1076 01       		.byte	0x1
 1642 1077 00       		.uleb128 0
 1643 1078 5F5F4442 		.ascii "__DBL_EPSILON__ ((double)2.22044604925031308085e-16L)\0"
 1643      4C5F4550 
 1643      53494C4F 
 1643      4E5F5F20 
 1643      2828646F 
 1644 10ae 01       		.byte	0x1
 1645 10af 00       		.uleb128 0
 1646 10b0 5F5F4442 		.ascii "__DBL_DENORM_MIN__ ((double)4.94065645841246544177e-324L)\0"
 1646      4C5F4445 
 1646      4E4F524D 
 1646      5F4D494E 
 1646      5F5F2028 
 1647 10ea 01       		.byte	0x1
 1648 10eb 00       		.uleb128 0
 1649 10ec 5F5F4442 		.ascii "__DBL_HAS_DENORM__ 1\0"
 1649      4C5F4841 
 1649      535F4445 
 1649      4E4F524D 
 1649      5F5F2031 
 1650 1101 01       		.byte	0x1
 1651 1102 00       		.uleb128 0
 1652 1103 5F5F4442 		.ascii "__DBL_HAS_INFINITY__ 1\0"
 1652      4C5F4841 
 1652      535F494E 
 1652      46494E49 
 1652      54595F5F 
 1653 111a 01       		.byte	0x1
 1654 111b 00       		.uleb128 0
 1655 111c 5F5F4442 		.ascii "__DBL_HAS_QUIET_NAN__ 1\0"
 1655      4C5F4841 
 1655      535F5155 
 1655      4945545F 
 1655      4E414E5F 
 1656 1134 01       		.byte	0x1
 1657 1135 00       		.uleb128 0
 1658 1136 5F5F4C44 		.ascii "__LDBL_MANT_DIG__ 64\0"
 1658      424C5F4D 
 1658      414E545F 
 1658      4449475F 
GAS LISTING C:\Users\PRESID~1\AppData\Local\Temp\cc4dUwFK.s 			page 45


 1658      5F203634 
 1659 114b 01       		.byte	0x1
 1660 114c 00       		.uleb128 0
 1661 114d 5F5F4C44 		.ascii "__LDBL_DIG__ 18\0"
 1661      424C5F44 
 1661      49475F5F 
 1661      20313800 
 1662 115d 01       		.byte	0x1
 1663 115e 00       		.uleb128 0
 1664 115f 5F5F4C44 		.ascii "__LDBL_MIN_EXP__ (-16381)\0"
 1664      424C5F4D 
 1664      494E5F45 
 1664      58505F5F 
 1664      20282D31 
 1665 1179 01       		.byte	0x1
 1666 117a 00       		.uleb128 0
 1667 117b 5F5F4C44 		.ascii "__LDBL_MIN_10_EXP__ (-4931)\0"
 1667      424C5F4D 
 1667      494E5F31 
 1667      305F4558 
 1667      505F5F20 
 1668 1197 01       		.byte	0x1
 1669 1198 00       		.uleb128 0
 1670 1199 5F5F4C44 		.ascii "__LDBL_MAX_EXP__ 16384\0"
 1670      424C5F4D 
 1670      41585F45 
 1670      58505F5F 
 1670      20313633 
 1671 11b0 01       		.byte	0x1
 1672 11b1 00       		.uleb128 0
 1673 11b2 5F5F4C44 		.ascii "__LDBL_MAX_10_EXP__ 4932\0"
 1673      424C5F4D 
 1673      41585F31 
 1673      305F4558 
 1673      505F5F20 
 1674 11cb 01       		.byte	0x1
 1675 11cc 00       		.uleb128 0
 1676 11cd 5F5F4445 		.ascii "__DECIMAL_DIG__ 21\0"
 1676      43494D41 
 1676      4C5F4449 
 1676      475F5F20 
 1676      323100
 1677 11e0 01       		.byte	0x1
 1678 11e1 00       		.uleb128 0
 1679 11e2 5F5F4C44 		.ascii "__LDBL_MAX__ 1.18973149535723176502e+4932L\0"
 1679      424C5F4D 
 1679      41585F5F 
 1679      20312E31 
 1679      38393733 
 1680 120d 01       		.byte	0x1
 1681 120e 00       		.uleb128 0
 1682 120f 5F5F4C44 		.ascii "__LDBL_MIN__ 3.36210314311209350626e-4932L\0"
 1682      424C5F4D 
 1682      494E5F5F 
 1682      20332E33 
 1682      36323130 
 1683 123a 01       		.byte	0x1
GAS LISTING C:\Users\PRESID~1\AppData\Local\Temp\cc4dUwFK.s 			page 46


 1684 123b 00       		.uleb128 0
 1685 123c 5F5F4C44 		.ascii "__LDBL_EPSILON__ 1.08420217248550443401e-19L\0"
 1685      424C5F45 
 1685      5053494C 
 1685      4F4E5F5F 
 1685      20312E30 
 1686 1269 01       		.byte	0x1
 1687 126a 00       		.uleb128 0
 1688 126b 5F5F4C44 		.ascii "__LDBL_DENORM_MIN__ 3.64519953188247460253e-4951L\0"
 1688      424C5F44 
 1688      454E4F52 
 1688      4D5F4D49 
 1688      4E5F5F20 
 1689 129d 01       		.byte	0x1
 1690 129e 00       		.uleb128 0
 1691 129f 5F5F4C44 		.ascii "__LDBL_HAS_DENORM__ 1\0"
 1691      424C5F48 
 1691      41535F44 
 1691      454E4F52 
 1691      4D5F5F20 
 1692 12b5 01       		.byte	0x1
 1693 12b6 00       		.uleb128 0
 1694 12b7 5F5F4C44 		.ascii "__LDBL_HAS_INFINITY__ 1\0"
 1694      424C5F48 
 1694      41535F49 
 1694      4E46494E 
 1694      4954595F 
 1695 12cf 01       		.byte	0x1
 1696 12d0 00       		.uleb128 0
 1697 12d1 5F5F4C44 		.ascii "__LDBL_HAS_QUIET_NAN__ 1\0"
 1697      424C5F48 
 1697      41535F51 
 1697      55494554 
 1697      5F4E414E 
 1698 12ea 01       		.byte	0x1
 1699 12eb 00       		.uleb128 0
 1700 12ec 5F5F4445 		.ascii "__DEC32_MANT_DIG__ 7\0"
 1700      4333325F 
 1700      4D414E54 
 1700      5F444947 
 1700      5F5F2037 
 1701 1301 01       		.byte	0x1
 1702 1302 00       		.uleb128 0
 1703 1303 5F5F4445 		.ascii "__DEC32_MIN_EXP__ (-94)\0"
 1703      4333325F 
 1703      4D494E5F 
 1703      4558505F 
 1703      5F20282D 
 1704 131b 01       		.byte	0x1
 1705 131c 00       		.uleb128 0
 1706 131d 5F5F4445 		.ascii "__DEC32_MAX_EXP__ 97\0"
 1706      4333325F 
 1706      4D41585F 
 1706      4558505F 
 1706      5F203937 
 1707 1332 01       		.byte	0x1
 1708 1333 00       		.uleb128 0
GAS LISTING C:\Users\PRESID~1\AppData\Local\Temp\cc4dUwFK.s 			page 47


 1709 1334 5F5F4445 		.ascii "__DEC32_MIN__ 1E-95DF\0"
 1709      4333325F 
 1709      4D494E5F 
 1709      5F203145 
 1709      2D393544 
 1710 134a 01       		.byte	0x1
 1711 134b 00       		.uleb128 0
 1712 134c 5F5F4445 		.ascii "__DEC32_MAX__ 9.999999E96DF\0"
 1712      4333325F 
 1712      4D41585F 
 1712      5F20392E 
 1712      39393939 
 1713 1368 01       		.byte	0x1
 1714 1369 00       		.uleb128 0
 1715 136a 5F5F4445 		.ascii "__DEC32_EPSILON__ 1E-6DF\0"
 1715      4333325F 
 1715      45505349 
 1715      4C4F4E5F 
 1715      5F203145 
 1716 1383 01       		.byte	0x1
 1717 1384 00       		.uleb128 0
 1718 1385 5F5F4445 		.ascii "__DEC32_SUBNORMAL_MIN__ 0.000001E-95DF\0"
 1718      4333325F 
 1718      5355424E 
 1718      4F524D41 
 1718      4C5F4D49 
 1719 13ac 01       		.byte	0x1
 1720 13ad 00       		.uleb128 0
 1721 13ae 5F5F4445 		.ascii "__DEC64_MANT_DIG__ 16\0"
 1721      4336345F 
 1721      4D414E54 
 1721      5F444947 
 1721      5F5F2031 
 1722 13c4 01       		.byte	0x1
 1723 13c5 00       		.uleb128 0
 1724 13c6 5F5F4445 		.ascii "__DEC64_MIN_EXP__ (-382)\0"
 1724      4336345F 
 1724      4D494E5F 
 1724      4558505F 
 1724      5F20282D 
 1725 13df 01       		.byte	0x1
 1726 13e0 00       		.uleb128 0
 1727 13e1 5F5F4445 		.ascii "__DEC64_MAX_EXP__ 385\0"
 1727      4336345F 
 1727      4D41585F 
 1727      4558505F 
 1727      5F203338 
 1728 13f7 01       		.byte	0x1
 1729 13f8 00       		.uleb128 0
 1730 13f9 5F5F4445 		.ascii "__DEC64_MIN__ 1E-383DD\0"
 1730      4336345F 
 1730      4D494E5F 
 1730      5F203145 
 1730      2D333833 
 1731 1410 01       		.byte	0x1
 1732 1411 00       		.uleb128 0
 1733 1412 5F5F4445 		.ascii "__DEC64_MAX__ 9.999999999999999E384DD\0"
GAS LISTING C:\Users\PRESID~1\AppData\Local\Temp\cc4dUwFK.s 			page 48


 1733      4336345F 
 1733      4D41585F 
 1733      5F20392E 
 1733      39393939 
 1734 1438 01       		.byte	0x1
 1735 1439 00       		.uleb128 0
 1736 143a 5F5F4445 		.ascii "__DEC64_EPSILON__ 1E-15DD\0"
 1736      4336345F 
 1736      45505349 
 1736      4C4F4E5F 
 1736      5F203145 
 1737 1454 01       		.byte	0x1
 1738 1455 00       		.uleb128 0
 1739 1456 5F5F4445 		.ascii "__DEC64_SUBNORMAL_MIN__ 0.000000000000001E-383DD\0"
 1739      4336345F 
 1739      5355424E 
 1739      4F524D41 
 1739      4C5F4D49 
 1740 1487 01       		.byte	0x1
 1741 1488 00       		.uleb128 0
 1742 1489 5F5F4445 		.ascii "__DEC128_MANT_DIG__ 34\0"
 1742      43313238 
 1742      5F4D414E 
 1742      545F4449 
 1742      475F5F20 
 1743 14a0 01       		.byte	0x1
 1744 14a1 00       		.uleb128 0
 1745 14a2 5F5F4445 		.ascii "__DEC128_MIN_EXP__ (-6142)\0"
 1745      43313238 
 1745      5F4D494E 
 1745      5F455850 
 1745      5F5F2028 
 1746 14bd 01       		.byte	0x1
 1747 14be 00       		.uleb128 0
 1748 14bf 5F5F4445 		.ascii "__DEC128_MAX_EXP__ 6145\0"
 1748      43313238 
 1748      5F4D4158 
 1748      5F455850 
 1748      5F5F2036 
 1749 14d7 01       		.byte	0x1
 1750 14d8 00       		.uleb128 0
 1751 14d9 5F5F4445 		.ascii "__DEC128_MIN__ 1E-6143DL\0"
 1751      43313238 
 1751      5F4D494E 
 1751      5F5F2031 
 1751      452D3631 
 1752 14f2 01       		.byte	0x1
 1753 14f3 00       		.uleb128 0
 1754 14f4 5F5F4445 		.ascii "__DEC128_MAX__ 9.999999999999999999999999999999999E6144DL\0"
 1754      43313238 
 1754      5F4D4158 
 1754      5F5F2039 
 1754      2E393939 
 1755 152e 01       		.byte	0x1
 1756 152f 00       		.uleb128 0
 1757 1530 5F5F4445 		.ascii "__DEC128_EPSILON__ 1E-33DL\0"
 1757      43313238 
GAS LISTING C:\Users\PRESID~1\AppData\Local\Temp\cc4dUwFK.s 			page 49


 1757      5F455053 
 1757      494C4F4E 
 1757      5F5F2031 
 1758 154b 01       		.byte	0x1
 1759 154c 00       		.uleb128 0
 1760 154d 5F5F4445 		.ascii "__DEC128_SUBNORMAL_MIN__ 0.000000000000000000000000000000001E-6143DL\0"
 1760      43313238 
 1760      5F535542 
 1760      4E4F524D 
 1760      414C5F4D 
 1761 1592 01       		.byte	0x1
 1762 1593 00       		.uleb128 0
 1763 1594 5F5F5245 		.ascii "__REGISTER_PREFIX__ \0"
 1763      47495354 
 1763      45525F50 
 1763      52454649 
 1763      585F5F20 
 1764 15a9 01       		.byte	0x1
 1765 15aa 00       		.uleb128 0
 1766 15ab 5F5F5553 		.ascii "__USER_LABEL_PREFIX__ _\0"
 1766      45525F4C 
 1766      4142454C 
 1766      5F505245 
 1766      4649585F 
 1767 15c3 01       		.byte	0x1
 1768 15c4 00       		.uleb128 0
 1769 15c5 5F5F474E 		.ascii "__GNUC_GNU_INLINE__ 1\0"
 1769      55435F47 
 1769      4E555F49 
 1769      4E4C494E 
 1769      455F5F20 
 1770 15db 01       		.byte	0x1
 1771 15dc 00       		.uleb128 0
 1772 15dd 5F5F4E4F 		.ascii "__NO_INLINE__ 1\0"
 1772      5F494E4C 
 1772      494E455F 
 1772      5F203100 
 1773 15ed 01       		.byte	0x1
 1774 15ee 00       		.uleb128 0
 1775 15ef 5F5F5354 		.ascii "__STRICT_ANSI__ 1\0"
 1775      52494354 
 1775      5F414E53 
 1775      495F5F20 
 1775      3100
 1776 1601 01       		.byte	0x1
 1777 1602 00       		.uleb128 0
 1778 1603 5F5F4743 		.ascii "__GCC_ATOMIC_BOOL_LOCK_FREE 1\0"
 1778      435F4154 
 1778      4F4D4943 
 1778      5F424F4F 
 1778      4C5F4C4F 
 1779 1621 01       		.byte	0x1
 1780 1622 00       		.uleb128 0
 1781 1623 5F5F4743 		.ascii "__GCC_ATOMIC_CHAR_LOCK_FREE 1\0"
 1781      435F4154 
 1781      4F4D4943 
 1781      5F434841 
GAS LISTING C:\Users\PRESID~1\AppData\Local\Temp\cc4dUwFK.s 			page 50


 1781      525F4C4F 
 1782 1641 01       		.byte	0x1
 1783 1642 00       		.uleb128 0
 1784 1643 5F5F4743 		.ascii "__GCC_ATOMIC_CHAR16_T_LOCK_FREE 1\0"
 1784      435F4154 
 1784      4F4D4943 
 1784      5F434841 
 1784      5231365F 
 1785 1665 01       		.byte	0x1
 1786 1666 00       		.uleb128 0
 1787 1667 5F5F4743 		.ascii "__GCC_ATOMIC_CHAR32_T_LOCK_FREE 1\0"
 1787      435F4154 
 1787      4F4D4943 
 1787      5F434841 
 1787      5233325F 
 1788 1689 01       		.byte	0x1
 1789 168a 00       		.uleb128 0
 1790 168b 5F5F4743 		.ascii "__GCC_ATOMIC_WCHAR_T_LOCK_FREE 1\0"
 1790      435F4154 
 1790      4F4D4943 
 1790      5F574348 
 1790      41525F54 
 1791 16ac 01       		.byte	0x1
 1792 16ad 00       		.uleb128 0
 1793 16ae 5F5F4743 		.ascii "__GCC_ATOMIC_SHORT_LOCK_FREE 1\0"
 1793      435F4154 
 1793      4F4D4943 
 1793      5F53484F 
 1793      52545F4C 
 1794 16cd 01       		.byte	0x1
 1795 16ce 00       		.uleb128 0
 1796 16cf 5F5F4743 		.ascii "__GCC_ATOMIC_INT_LOCK_FREE 1\0"
 1796      435F4154 
 1796      4F4D4943 
 1796      5F494E54 
 1796      5F4C4F43 
 1797 16ec 01       		.byte	0x1
 1798 16ed 00       		.uleb128 0
 1799 16ee 5F5F4743 		.ascii "__GCC_ATOMIC_LONG_LOCK_FREE 1\0"
 1799      435F4154 
 1799      4F4D4943 
 1799      5F4C4F4E 
 1799      475F4C4F 
 1800 170c 01       		.byte	0x1
 1801 170d 00       		.uleb128 0
 1802 170e 5F5F4743 		.ascii "__GCC_ATOMIC_LLONG_LOCK_FREE 1\0"
 1802      435F4154 
 1802      4F4D4943 
 1802      5F4C4C4F 
 1802      4E475F4C 
 1803 172d 01       		.byte	0x1
 1804 172e 00       		.uleb128 0
 1805 172f 5F5F4743 		.ascii "__GCC_ATOMIC_TEST_AND_SET_TRUEVAL 1\0"
 1805      435F4154 
 1805      4F4D4943 
 1805      5F544553 
 1805      545F414E 
GAS LISTING C:\Users\PRESID~1\AppData\Local\Temp\cc4dUwFK.s 			page 51


 1806 1753 01       		.byte	0x1
 1807 1754 00       		.uleb128 0
 1808 1755 5F5F4743 		.ascii "__GCC_ATOMIC_POINTER_LOCK_FREE 1\0"
 1808      435F4154 
 1808      4F4D4943 
 1808      5F504F49 
 1808      4E544552 
 1809 1776 01       		.byte	0x1
 1810 1777 00       		.uleb128 0
 1811 1778 5F5F4743 		.ascii "__GCC_HAVE_DWARF2_CFI_ASM 1\0"
 1811      435F4841 
 1811      56455F44 
 1811      57415246 
 1811      325F4346 
 1812 1794 01       		.byte	0x1
 1813 1795 00       		.uleb128 0
 1814 1796 5F5F5052 		.ascii "__PRAGMA_REDEFINE_EXTNAME 1\0"
 1814      41474D41 
 1814      5F524544 
 1814      4546494E 
 1814      455F4558 
 1815 17b2 01       		.byte	0x1
 1816 17b3 00       		.uleb128 0
 1817 17b4 5F5F5349 		.ascii "__SIZEOF_WCHAR_T__ 2\0"
 1817      5A454F46 
 1817      5F574348 
 1817      41525F54 
 1817      5F5F2032 
 1818 17c9 01       		.byte	0x1
 1819 17ca 00       		.uleb128 0
 1820 17cb 5F5F5349 		.ascii "__SIZEOF_WINT_T__ 2\0"
 1820      5A454F46 
 1820      5F57494E 
 1820      545F545F 
 1820      5F203200 
 1821 17df 01       		.byte	0x1
 1822 17e0 00       		.uleb128 0
 1823 17e1 5F5F5349 		.ascii "__SIZEOF_PTRDIFF_T__ 4\0"
 1823      5A454F46 
 1823      5F505452 
 1823      44494646 
 1823      5F545F5F 
 1824 17f8 01       		.byte	0x1
 1825 17f9 00       		.uleb128 0
 1826 17fa 5F5F6933 		.ascii "__i386 1\0"
 1826      38362031 
 1826      00
 1827 1803 01       		.byte	0x1
 1828 1804 00       		.uleb128 0
 1829 1805 5F5F6933 		.ascii "__i386__ 1\0"
 1829      38365F5F 
 1829      203100
 1830 1810 01       		.byte	0x1
 1831 1811 00       		.uleb128 0
 1832 1812 5F5F4154 		.ascii "__ATOMIC_HLE_ACQUIRE 65536\0"
 1832      4F4D4943 
 1832      5F484C45 
GAS LISTING C:\Users\PRESID~1\AppData\Local\Temp\cc4dUwFK.s 			page 52


 1832      5F414351 
 1832      55495245 
 1833 182d 01       		.byte	0x1
 1834 182e 00       		.uleb128 0
 1835 182f 5F5F4154 		.ascii "__ATOMIC_HLE_RELEASE 131072\0"
 1835      4F4D4943 
 1835      5F484C45 
 1835      5F52454C 
 1835      45415345 
 1836 184b 01       		.byte	0x1
 1837 184c 00       		.uleb128 0
 1838 184d 5F5F7475 		.ascii "__tune_i386__ 1\0"
 1838      6E655F69 
 1838      3338365F 
 1838      5F203100 
 1839 185d 01       		.byte	0x1
 1840 185e 00       		.uleb128 0
 1841 185f 5F5F636F 		.ascii "__code_model_32__ 1\0"
 1841      64655F6D 
 1841      6F64656C 
 1841      5F33325F 
 1841      5F203100 
 1842 1873 01       		.byte	0x1
 1843 1874 00       		.uleb128 0
 1844 1875 5F583836 		.ascii "_X86_ 1\0"
 1844      5F203100 
 1845 187d 01       		.byte	0x1
 1846 187e 00       		.uleb128 0
 1847 187f 5F5F7374 		.ascii "__stdcall __attribute__((__stdcall__))\0"
 1847      6463616C 
 1847      6C205F5F 
 1847      61747472 
 1847      69627574 
 1848 18a6 01       		.byte	0x1
 1849 18a7 00       		.uleb128 0
 1850 18a8 5F5F6661 		.ascii "__fastcall __attribute__((__fastcall__))\0"
 1850      73746361 
 1850      6C6C205F 
 1850      5F617474 
 1850      72696275 
 1851 18d1 01       		.byte	0x1
 1852 18d2 00       		.uleb128 0
 1853 18d3 5F5F7468 		.ascii "__thiscall __attribute__((__thiscall__))\0"
 1853      69736361 
 1853      6C6C205F 
 1853      5F617474 
 1853      72696275 
 1854 18fc 01       		.byte	0x1
 1855 18fd 00       		.uleb128 0
 1856 18fe 5F5F6364 		.ascii "__cdecl __attribute__((__cdecl__))\0"
 1856      65636C20 
 1856      5F5F6174 
 1856      74726962 
 1856      7574655F 
 1857 1921 01       		.byte	0x1
 1858 1922 00       		.uleb128 0
 1859 1923 5F5F4758 		.ascii "__GXX_MERGED_TYPEINFO_NAMES 0\0"
GAS LISTING C:\Users\PRESID~1\AppData\Local\Temp\cc4dUwFK.s 			page 53


 1859      585F4D45 
 1859      52474544 
 1859      5F545950 
 1859      45494E46 
 1860 1941 01       		.byte	0x1
 1861 1942 00       		.uleb128 0
 1862 1943 5F5F4758 		.ascii "__GXX_TYPEINFO_EQUALITY_INLINE 0\0"
 1862      585F5459 
 1862      5045494E 
 1862      464F5F45 
 1862      5155414C 
 1863 1964 01       		.byte	0x1
 1864 1965 00       		.uleb128 0
 1865 1966 5F5F4D53 		.ascii "__MSVCRT__ 1\0"
 1865      56435254 
 1865      5F5F2031 
 1865      00
 1866 1973 01       		.byte	0x1
 1867 1974 00       		.uleb128 0
 1868 1975 5F5F4D49 		.ascii "__MINGW32__ 1\0"
 1868      4E475733 
 1868      325F5F20 
 1868      3100
 1869 1983 01       		.byte	0x1
 1870 1984 00       		.uleb128 0
 1871 1985 5F57494E 		.ascii "_WIN32 1\0"
 1871      33322031 
 1871      00
 1872 198e 01       		.byte	0x1
 1873 198f 00       		.uleb128 0
 1874 1990 5F5F5749 		.ascii "__WIN32 1\0"
 1874      4E333220 
 1874      3100
 1875 199a 01       		.byte	0x1
 1876 199b 00       		.uleb128 0
 1877 199c 5F5F5749 		.ascii "__WIN32__ 1\0"
 1877      4E33325F 
 1877      5F203100 
 1878 19a8 01       		.byte	0x1
 1879 19a9 00       		.uleb128 0
 1880 19aa 5F5F5749 		.ascii "__WINNT 1\0"
 1880      4E4E5420 
 1880      3100
 1881 19b4 01       		.byte	0x1
 1882 19b5 00       		.uleb128 0
 1883 19b6 5F5F5749 		.ascii "__WINNT__ 1\0"
 1883      4E4E545F 
 1883      5F203100 
 1884 19c2 01       		.byte	0x1
 1885 19c3 00       		.uleb128 0
 1886 19c4 5F494E54 		.ascii "_INTEGRAL_MAX_BITS 64\0"
 1886      45475241 
 1886      4C5F4D41 
 1886      585F4249 
 1886      54532036 
 1887 19da 01       		.byte	0x1
 1888 19db 00       		.uleb128 0
GAS LISTING C:\Users\PRESID~1\AppData\Local\Temp\cc4dUwFK.s 			page 54


 1889 19dc 5F5F6465 		.ascii "__declspec(x) __attribute__((x))\0"
 1889      636C7370 
 1889      65632878 
 1889      29205F5F 
 1889      61747472 
 1890 19fd 01       		.byte	0x1
 1891 19fe 00       		.uleb128 0
 1892 19ff 5F5F4445 		.ascii "__DECIMAL_BID_FORMAT__ 1\0"
 1892      43494D41 
 1892      4C5F4249 
 1892      445F464F 
 1892      524D4154 
 1893 1a18 01       		.byte	0x1
 1894 1a19 00       		.uleb128 0
 1895 1a1a 4346475F 		.ascii "CFG_PROCESSOR 3\0"
 1895      50524F43 
 1895      4553534F 
 1895      52203300 
 1896 1a2a 03       		.byte	0x3
 1897 1a2b 00       		.uleb128 0
 1898 1a2c 01       		.uleb128 0x1
 1899              		.file 4 "E:/NeuOrga/Programmieren/c_cpp/github_os/input/src/os_sim/../os_base/os_firstinc.h"
 1900 1a2d 03       		.byte	0x3
 1901 1a2e 01       		.uleb128 0x1
 1902 1a2f 04       		.uleb128 0x4
 1903 1a30 01       		.byte	0x1
 1904 1a31 02       		.uleb128 0x2
 1905 1a32 5F6F735F 		.ascii "_os_firstinc_h_ \0"
 1905      66697273 
 1905      74696E63 
 1905      5F685F20 
 1905      00
 1906 1a43 03       		.byte	0x3
 1907 1a44 04       		.uleb128 0x4
 1908 1a45 02       		.uleb128 0x2
 1909 1a46 01       		.byte	0x1
 1910 1a47 02       		.uleb128 0x2
 1911 1a48 5F424153 		.ascii "_BASE_TYPES_H_ \0"
 1911      455F5459 
 1911      5045535F 
 1911      485F2000 
 1912 1a58 01       		.byte	0x1
 1913 1a59 04       		.uleb128 0x4
 1914 1a5a 494E5445 		.ascii "INTEGER_LLP64_IL32P64 1\0"
 1914      4745525F 
 1914      4C4C5036 
 1914      345F494C 
 1914      33325036 
 1915 1a72 01       		.byte	0x1
 1916 1a73 05       		.uleb128 0x5
 1917 1a74 494E5445 		.ascii "INTEGER_LP64_I32LP64 2\0"
 1917      4745525F 
 1917      4C503634 
 1917      5F493332 
 1917      4C503634 
 1918 1a8b 01       		.byte	0x1
 1919 1a8c 06       		.uleb128 0x6
GAS LISTING C:\Users\PRESID~1\AppData\Local\Temp\cc4dUwFK.s 			page 55


 1920 1a8d 494E5445 		.ascii "INTEGER_ILP64 3\0"
 1920      4745525F 
 1920      494C5036 
 1920      34203300 
 1921 1a9d 01       		.byte	0x1
 1922 1a9e 07       		.uleb128 0x7
 1923 1a9f 494E5445 		.ascii "INTEGER_SILP64 4\0"
 1923      4745525F 
 1923      53494C50 
 1923      36342034 
 1923      00
 1924 1ab0 01       		.byte	0x1
 1925 1ab1 09       		.uleb128 0x9
 1926 1ab2 4350505F 		.ascii "CPP_VERSION_NONE 0\0"
 1926      56455253 
 1926      494F4E5F 
 1926      4E4F4E45 
 1926      203000
 1927 1ac5 01       		.byte	0x1
 1928 1ac6 0A       		.uleb128 0xa
 1929 1ac7 4350505F 		.ascii "CPP_VERSION_1998 1\0"
 1929      56455253 
 1929      494F4E5F 
 1929      31393938 
 1929      203100
 1930 1ada 01       		.byte	0x1
 1931 1adb 0B       		.uleb128 0xb
 1932 1adc 4350505F 		.ascii "CPP_VERSION_2003 2\0"
 1932      56455253 
 1932      494F4E5F 
 1932      32303033 
 1932      203200
 1933 1aef 01       		.byte	0x1
 1934 1af0 0C       		.uleb128 0xc
 1935 1af1 4350505F 		.ascii "CPP_VERSION_2007 3\0"
 1935      56455253 
 1935      494F4E5F 
 1935      32303037 
 1935      203300
 1936 1b04 01       		.byte	0x1
 1937 1b05 0D       		.uleb128 0xd
 1938 1b06 4350505F 		.ascii "CPP_VERSION_2011 4\0"
 1938      56455253 
 1938      494F4E5F 
 1938      32303131 
 1938      203400
 1939 1b19 01       		.byte	0x1
 1940 1b1a 0E       		.uleb128 0xe
 1941 1b1b 49534F5F 		.ascii "ISO_CPP_VERSION CPP_VERSION_1998\0"
 1941      4350505F 
 1941      56455253 
 1941      494F4E20 
 1941      4350505F 
 1942 1b3c 01       		.byte	0x1
 1943 1b3d 10       		.uleb128 0x10
 1944 1b3e 494E5445 		.ascii "INTEGER_MODEL INTEGER_LLP64_IL32P64\0"
 1944      4745525F 
GAS LISTING C:\Users\PRESID~1\AppData\Local\Temp\cc4dUwFK.s 			page 56


 1944      4D4F4445 
 1944      4C20494E 
 1944      54454745 
 1945 1b62 04       		.byte	0x4
 1946              		.file 5 "E:/NeuOrga/Programmieren/c_cpp/github_os/input/src/os_sim/../os_base/../os_base/os_common
 1947 1b63 03       		.byte	0x3
 1948 1b64 05       		.uleb128 0x5
 1949 1b65 05       		.uleb128 0x5
 1950 1b66 01       		.byte	0x1
 1951 1b67 02       		.uleb128 0x2
 1952 1b68 5F6F735F 		.ascii "_os_common_h_ \0"
 1952      636F6D6D 
 1952      6F6E5F68 
 1952      5F2000
 1953 1b77 01       		.byte	0x1
 1954 1b78 06       		.uleb128 0x6
 1955 1b79 46616C73 		.ascii "False 0\0"
 1955      65203000 
 1956 1b81 01       		.byte	0x1
 1957 1b82 07       		.uleb128 0x7
 1958 1b83 54727565 		.ascii "True 1\0"
 1958      203100
 1959 1b8a 01       		.byte	0x1
 1960 1b8b 08       		.uleb128 0x8
 1961 1b8c 41636365 		.ascii "Accepted 1\0"
 1961      70746564 
 1961      203100
 1962 1b97 01       		.byte	0x1
 1963 1b98 09       		.uleb128 0x9
 1964 1b99 52656A65 		.ascii "Rejected 0\0"
 1964      63746564 
 1964      203000
 1965 1ba4 01       		.byte	0x1
 1966 1ba5 0A       		.uleb128 0xa
 1967 1ba6 4C6F6361 		.ascii "Local static\0"
 1967      6C207374 
 1967      61746963 
 1967      00
 1968 1bb3 01       		.byte	0x1
 1969 1bb4 0B       		.uleb128 0xb
 1970 1bb5 4C6F6361 		.ascii "Local_inline static __inline__\0"
 1970      6C5F696E 
 1970      6C696E65 
 1970      20737461 
 1970      74696320 
 1971 1bd4 01       		.byte	0x1
 1972 1bd5 0C       		.uleb128 0xc
 1973 1bd6 476C6F62 		.ascii "Global_inline __inline__\0"
 1973      616C5F69 
 1973      6E6C696E 
 1973      65205F5F 
 1973      696E6C69 
 1974 1bef 01       		.byte	0x1
 1975 1bf0 0D       		.uleb128 0xd
 1976 1bf1 52656665 		.ascii "ReferenceUnusedParameter(x) ((x) = (x))\0"
 1976      72656E63 
 1976      65556E75 
GAS LISTING C:\Users\PRESID~1\AppData\Local\Temp\cc4dUwFK.s 			page 57


 1976      73656450 
 1976      6172616D 
 1977 1c19 01       		.byte	0x1
 1978 1c1a 10       		.uleb128 0x10
 1979 1c1b 634D4355 		.ascii "cMCU_SIMULATION 1\0"
 1979      5F53494D 
 1979      554C4154 
 1979      494F4E20 
 1979      3100
 1980 1c2d 01       		.byte	0x1
 1981 1c2e 11       		.uleb128 0x11
 1982 1c2f 634D4355 		.ascii "cMCU_POWERPC 2\0"
 1982      5F504F57 
 1982      45525043 
 1982      203200
 1983 1c3e 01       		.byte	0x1
 1984 1c3f 12       		.uleb128 0x12
 1985 1c40 634D4355 		.ascii "cMCU_X86 3\0"
 1985      5F583836 
 1985      203300
 1986 1c4b 01       		.byte	0x1
 1987 1c4c 13       		.uleb128 0x13
 1988 1c4d 634D4355 		.ascii "cMCU_CORTEX_M4 4\0"
 1988      5F434F52 
 1988      5445585F 
 1988      4D342034 
 1988      00
 1989 1c5e 01       		.byte	0x1
 1990 1c5f 16       		.uleb128 0x16
 1991 1c60 4E525F4F 		.ascii "NR_OF_CORES 1\0"
 1991      465F434F 
 1991      52455320 
 1991      3100
 1992 1c6e 01       		.byte	0x1
 1993 1c6f 23       		.uleb128 0x23
 1994 1c70 44697361 		.ascii "DisableInterrupts() \0"
 1994      626C6549 
 1994      6E746572 
 1994      72757074 
 1994      73282920 
 1995 1c85 01       		.byte	0x1
 1996 1c86 24       		.uleb128 0x24
 1997 1c87 456E6162 		.ascii "EnableInterrupts() \0"
 1997      6C65496E 
 1997      74657272 
 1997      75707473 
 1997      28292000 
 1998 1c9b 01       		.byte	0x1
 1999 1c9c 25       		.uleb128 0x25
 2000 1c9d 50726976 		.ascii "Privilige_level_save_current() \0"
 2000      696C6967 
 2000      655F6C65 
 2000      76656C5F 
 2000      73617665 
 2001 1cbd 01       		.byte	0x1
 2002 1cbe 26       		.uleb128 0x26
 2003 1cbf 50726976 		.ascii "Privilige_level_enter_kernel_mode() \0"
GAS LISTING C:\Users\PRESID~1\AppData\Local\Temp\cc4dUwFK.s 			page 58


 2003      696C6967 
 2003      655F6C65 
 2003      76656C5F 
 2003      656E7465 
 2004 1ce4 01       		.byte	0x1
 2005 1ce5 27       		.uleb128 0x27
 2006 1ce6 50726976 		.ascii "Privilige_level_restore_saved() \0"
 2006      696C6967 
 2006      655F6C65 
 2006      76656C5F 
 2006      72657374 
 2007 1d07 01       		.byte	0x1
 2008 1d08 28       		.uleb128 0x28
 2009 1d09 48616C74 		.ascii "HaltMcu() \0"
 2009      4D637528 
 2009      292000
 2010 1d14 04       		.byte	0x4
 2011              		.file 6 "E:/NeuOrga/Programmieren/c_cpp/github_os/input/src/os_sim/../os_base/../os_sim/lld_global
 2012 1d15 03       		.byte	0x3
 2013 1d16 07       		.uleb128 0x7
 2014 1d17 06       		.uleb128 0x6
 2015 1d18 01       		.byte	0x1
 2016 1d19 02       		.uleb128 0x2
 2017 1d1a 5F6C6C64 		.ascii "_lld_global_h_ \0"
 2017      5F676C6F 
 2017      62616C5F 
 2017      685F2000 
 2018              		.file 7 "E:/NeuOrga/Programmieren/c_cpp/github_os/input/src/os_sim/../os_base/../os_sim/lld_core.h
 2019 1d2a 03       		.byte	0x3
 2020 1d2b 04       		.uleb128 0x4
 2021 1d2c 07       		.uleb128 0x7
 2022 1d2d 01       		.byte	0x1
 2023 1d2e 02       		.uleb128 0x2
 2024 1d2f 5F6C6C64 		.ascii "_lld_core_h_ \0"
 2024      5F636F72 
 2024      655F685F 
 2024      2000
 2025              		.file 8 "E:/NeuOrga/Programmieren/c_cpp/github_os/input/src/os_sim/../os_base/../os_sim/../os_base
 2026 1d3d 03       		.byte	0x3
 2027 1d3e 03       		.uleb128 0x3
 2028 1d3f 08       		.uleb128 0x8
 2029 1d40 04       		.byte	0x4
 2030 1d41 04       		.byte	0x4
 2031              		.file 9 "E:/NeuOrga/Programmieren/c_cpp/github_os/input/src/os_sim/../os_base/../os_sim/lld_adc.h"
 2032 1d42 03       		.byte	0x3
 2033 1d43 05       		.uleb128 0x5
 2034 1d44 09       		.uleb128 0x9
 2035 1d45 01       		.byte	0x1
 2036 1d46 02       		.uleb128 0x2
 2037 1d47 5F6C6C64 		.ascii "_lld_adc_h_ \0"
 2037      5F616463 
 2037      5F685F20 
 2037      00
 2038 1d54 04       		.byte	0x4
 2039              		.file 10 "E:/NeuOrga/Programmieren/c_cpp/github_os/input/src/os_sim/../os_base/../os_sim/lld_can.h
 2040 1d55 03       		.byte	0x3
 2041 1d56 06       		.uleb128 0x6
GAS LISTING C:\Users\PRESID~1\AppData\Local\Temp\cc4dUwFK.s 			page 59


 2042 1d57 0A       		.uleb128 0xa
 2043 1d58 01       		.byte	0x1
 2044 1d59 02       		.uleb128 0x2
 2045 1d5a 5F6C6C64 		.ascii "_lld_can_h_ \0"
 2045      5F63616E 
 2045      5F685F20 
 2045      00
 2046 1d67 04       		.byte	0x4
 2047              		.file 11 "E:/NeuOrga/Programmieren/c_cpp/github_os/input/src/os_sim/../os_base/../os_sim/lld_gpio.
 2048 1d68 03       		.byte	0x3
 2049 1d69 07       		.uleb128 0x7
 2050 1d6a 0B       		.uleb128 0xb
 2051 1d6b 01       		.byte	0x1
 2052 1d6c 02       		.uleb128 0x2
 2053 1d6d 5F6C6C64 		.ascii "_lld_gpio_h_ \0"
 2053      5F677069 
 2053      6F5F685F 
 2053      2000
 2054 1d7b 04       		.byte	0x4
 2055              		.file 12 "E:/NeuOrga/Programmieren/c_cpp/github_os/input/src/os_sim/../os_base/../os_sim/lld_inter
 2056 1d7c 03       		.byte	0x3
 2057 1d7d 08       		.uleb128 0x8
 2058 1d7e 0C       		.uleb128 0xc
 2059 1d7f 01       		.byte	0x1
 2060 1d80 02       		.uleb128 0x2
 2061 1d81 5F6C6C64 		.ascii "_lld_interrupt_h_ \0"
 2061      5F696E74 
 2061      65727275 
 2061      70745F68 
 2061      5F2000
 2062 1d94 01       		.byte	0x1
 2063 1d95 05       		.uleb128 0x5
 2064 1d96 6F735F69 		.ascii "os_interrupt_swi_1 asm(\"swi 1\")\0"
 2064      6E746572 
 2064      72757074 
 2064      5F737769 
 2064      5F312061 
 2065 1db6 01       		.byte	0x1
 2066 1db7 06       		.uleb128 0x6
 2067 1db8 6F735F69 		.ascii "os_interrupt_swi_2 asm(\"swi 2\")\0"
 2067      6E746572 
 2067      72757074 
 2067      5F737769 
 2067      5F322061 
 2068 1dd8 01       		.byte	0x1
 2069 1dd9 07       		.uleb128 0x7
 2070 1dda 6F735F69 		.ascii "os_interrupt_swi_3 asm(\"swi 3\")\0"
 2070      6E746572 
 2070      72757074 
 2070      5F737769 
 2070      5F332061 
 2071 1dfa 01       		.byte	0x1
 2072 1dfb 08       		.uleb128 0x8
 2073 1dfc 6F735F69 		.ascii "os_interrupt_swi_4 asm(\"swi 4\")\0"
 2073      6E746572 
 2073      72757074 
 2073      5F737769 
GAS LISTING C:\Users\PRESID~1\AppData\Local\Temp\cc4dUwFK.s 			page 60


 2073      5F342061 
 2074 1e1c 01       		.byte	0x1
 2075 1e1d 09       		.uleb128 0x9
 2076 1e1e 6F735F69 		.ascii "os_interrupt_swi_5 asm(\"swi 5\")\0"
 2076      6E746572 
 2076      72757074 
 2076      5F737769 
 2076      5F352061 
 2077 1e3e 04       		.byte	0x4
 2078              		.file 13 "E:/NeuOrga/Programmieren/c_cpp/github_os/input/src/os_sim/../os_base/../os_sim/lld_mmu.h
 2079 1e3f 03       		.byte	0x3
 2080 1e40 09       		.uleb128 0x9
 2081 1e41 0D       		.uleb128 0xd
 2082 1e42 01       		.byte	0x1
 2083 1e43 02       		.uleb128 0x2
 2084 1e44 5F6C6C64 		.ascii "_lld_mmu_h_ \0"
 2084      5F6D6D75 
 2084      5F685F20 
 2084      00
 2085 1e51 03       		.byte	0x3
 2086 1e52 04       		.uleb128 0x4
 2087 1e53 06       		.uleb128 0x6
 2088 1e54 04       		.byte	0x4
 2089 1e55 04       		.byte	0x4
 2090              		.file 14 "E:/NeuOrga/Programmieren/c_cpp/github_os/input/src/os_sim/../os_base/../os_sim/lld_timer
 2091 1e56 03       		.byte	0x3
 2092 1e57 0A       		.uleb128 0xa
 2093 1e58 0E       		.uleb128 0xe
 2094 1e59 01       		.byte	0x1
 2095 1e5a 02       		.uleb128 0x2
 2096 1e5b 5F6C6C64 		.ascii "_lld_timer_h_ \0"
 2096      5F74696D 
 2096      65725F68 
 2096      5F2000
 2097 1e6a 04       		.byte	0x4
 2098              		.file 15 "E:/NeuOrga/Programmieren/c_cpp/github_os/input/src/os_sim/../os_base/../os_sim/lld_power
 2099 1e6b 03       		.byte	0x3
 2100 1e6c 0B       		.uleb128 0xb
 2101 1e6d 0F       		.uleb128 0xf
 2102 1e6e 01       		.byte	0x1
 2103 1e6f 02       		.uleb128 0x2
 2104 1e70 5F6C6C64 		.ascii "_lld_power_h_ \0"
 2104      5F706F77 
 2104      65725F68 
 2104      5F2000
 2105 1e7f 04       		.byte	0x4
 2106              		.file 16 "E:/NeuOrga/Programmieren/c_cpp/github_os/input/src/os_sim/../os_base/../os_sim/lld_ram.h
 2107 1e80 03       		.byte	0x3
 2108 1e81 0C       		.uleb128 0xc
 2109 1e82 10       		.uleb128 0x10
 2110 1e83 01       		.byte	0x1
 2111 1e84 02       		.uleb128 0x2
 2112 1e85 5F6C6C64 		.ascii "_lld_ram_h_ \0"
 2112      5F72616D 
 2112      5F685F20 
 2112      00
 2113 1e92 04       		.byte	0x4
GAS LISTING C:\Users\PRESID~1\AppData\Local\Temp\cc4dUwFK.s 			page 61


 2114              		.file 17 "E:/NeuOrga/Programmieren/c_cpp/github_os/input/src/os_sim/../os_base/../os_sim/lld_watch
 2115 1e93 03       		.byte	0x3
 2116 1e94 0D       		.uleb128 0xd
 2117 1e95 11       		.uleb128 0x11
 2118 1e96 01       		.byte	0x1
 2119 1e97 02       		.uleb128 0x2
 2120 1e98 5F6C6C64 		.ascii "_lld_watchdog_h_ \0"
 2120      5F776174 
 2120      6368646F 
 2120      675F685F 
 2120      2000
 2121 1eaa 04       		.byte	0x4
 2122              		.file 18 "E:/NeuOrga/Programmieren/c_cpp/github_os/input/src/os_sim/../os_base/../os_sim/../os_bas
 2123 1eab 03       		.byte	0x3
 2124 1eac 0E       		.uleb128 0xe
 2125 1ead 12       		.uleb128 0x12
 2126 1eae 01       		.byte	0x1
 2127 1eaf 02       		.uleb128 0x2
 2128 1eb0 5F6F735F 		.ascii "_os_task_common_h_ \0"
 2128      7461736B 
 2128      5F636F6D 
 2128      6D6F6E5F 
 2128      685F2000 
 2129              		.file 19 "E:/NeuOrga/Programmieren/c_cpp/github_os/input/src/os_sim/../os_base/../os_sim/../os_bas
 2130 1ec4 03       		.byte	0x3
 2131 1ec5 04       		.uleb128 0x4
 2132 1ec6 13       		.uleb128 0x13
 2133 1ec7 01       		.byte	0x1
 2134 1ec8 02       		.uleb128 0x2
 2135 1ec9 5F6F735F 		.ascii "_os_task_config_h_ \0"
 2135      7461736B 
 2135      5F636F6E 
 2135      6669675F 
 2135      685F2000 
 2136 1edd 01       		.byte	0x1
 2137 1ede 05       		.uleb128 0x5
 2138 1edf 53636865 		.ascii "SchedulerFrequency (1.0e3)\0"
 2138      64756C65 
 2138      72467265 
 2138      7175656E 
 2138      63792028 
 2139 1efa 01       		.byte	0x1
 2140 1efb 06       		.uleb128 0x6
 2141 1efc 4D696E54 		.ascii "MinTimeSlice_s (1.0/SchedulerFrequency)\0"
 2141      696D6553 
 2141      6C696365 
 2141      5F732028 
 2141      312E302F 
 2142 1f24 01       		.byte	0x1
 2143 1f25 07       		.uleb128 0x7
 2144 1f26 4D696E54 		.ascii "MinTimeSlice_us ((1.0/SchedulerFrequency)*1e6)\0"
 2144      696D6553 
 2144      6C696365 
 2144      5F757320 
 2144      2828312E 
 2145 1f55 01       		.byte	0x1
 2146 1f56 08       		.uleb128 0x8
GAS LISTING C:\Users\PRESID~1\AppData\Local\Temp\cc4dUwFK.s 			page 62


 2147 1f57 5461736B 		.ascii "Task_min_time (1e0)\0"
 2147      5F6D696E 
 2147      5F74696D 
 2147      65202831 
 2147      65302900 
 2148 1f6b 01       		.byte	0x1
 2149 1f6c 09       		.uleb128 0x9
 2150 1f6d 4E554D42 		.ascii "NUMBER_OF_TASKS 5\0"
 2150      45525F4F 
 2150      465F5441 
 2150      534B5320 
 2150      3500
 2151 1f7f 01       		.byte	0x1
 2152 1f80 0A       		.uleb128 0xa
 2153 1f81 4D41585F 		.ascii "MAX_RUN_QUEUE_SIZE (NUMBER_OF_TASKS)\0"
 2153      52554E5F 
 2153      51554555 
 2153      455F5349 
 2153      5A452028 
 2154 1fa6 01       		.byte	0x1
 2155 1fa7 0B       		.uleb128 0xb
 2156 1fa8 4D41585F 		.ascii "MAX_RUN_PQUEUE_SIZE MAX_RUN_QUEUE_SIZE\0"
 2156      52554E5F 
 2156      50515545 
 2156      55455F53 
 2156      495A4520 
 2157 1fcf 01       		.byte	0x1
 2158 1fd0 0D       		.uleb128 0xd
 2159 1fd1 5441534B 		.ascii "TASK_STACK_SIZE 200\0"
 2159      5F535441 
 2159      434B5F53 
 2159      495A4520 
 2159      32303000 
 2160 1fe5 01       		.byte	0x1
 2161 1fe6 10       		.uleb128 0x10
 2162 1fe7 4D535F50 		.ascii "MS_PER_SEC (1000)\0"
 2162      45525F53 
 2162      45432028 
 2162      31303030 
 2162      2900
 2163 1ff9 01       		.byte	0x1
 2164 1ffa 11       		.uleb128 0x11
 2165 1ffb 5553455F 		.ascii "USE_STATIC_CREATED_TASKS True\0"
 2165      53544154 
 2165      49435F43 
 2165      52454154 
 2165      45445F54 
 2166 2019 04       		.byte	0x4
 2167              		.file 20 "E:/NeuOrga/Programmieren/c_cpp/github_os/input/src/os_sim/../os_base/../os_sim/../os_bas
 2168 201a 03       		.byte	0x3
 2169 201b 05       		.uleb128 0x5
 2170 201c 14       		.uleb128 0x14
 2171 201d 01       		.byte	0x1
 2172 201e 02       		.uleb128 0x2
 2173 201f 5F6F735F 		.ascii "_os_init_task_system_h_ \0"
 2173      696E6974 
 2173      5F746173 
GAS LISTING C:\Users\PRESID~1\AppData\Local\Temp\cc4dUwFK.s 			page 63


 2173      6B5F7379 
 2173      7374656D 
 2174 2038 04       		.byte	0x4
 2175 2039 01       		.byte	0x1
 2176 203a 5C       		.uleb128 0x5c
 2177 203b 6F735F53 		.ascii "os_SaveTaskPtr(task_ptr,task_name) (TASK_PTR[(task_name)] = (task_ptr))\0"
 2177      61766554 
 2177      61736B50 
 2177      74722874 
 2177      61736B5F 
 2178 2083 01       		.byte	0x1
 2179 2084 5D       		.uleb128 0x5d
 2180 2085 6F735F47 		.ascii "os_GetTaskPtr(task_name) ((task_t*) TASK_PTR[(task_name)])\0"
 2180      65745461 
 2180      736B5074 
 2180      72287461 
 2180      736B5F6E 
 2181 20c0 04       		.byte	0x4
 2182 20c1 04       		.byte	0x4
 2183 20c2 04       		.byte	0x4
 2184 20c3 03       		.byte	0x3
 2185 20c4 02       		.uleb128 0x2
 2186 20c5 03       		.uleb128 0x3
 2187 20c6 01       		.byte	0x1
 2188 20c7 02       		.uleb128 0x2
 2189 20c8 5F68616C 		.ascii "_hal_driver_fs_fat_h_ \0"
 2189      5F647269 
 2189      7665725F 
 2189      66735F66 
 2189      61745F68 
 2190              		.file 21 "E:/NeuOrga/Programmieren/c_cpp/github_os/input/src/os_sim/../os_drivers/../os_base/os_fi
 2191 20df 03       		.byte	0x3
 2192 20e0 03       		.uleb128 0x3
 2193 20e1 15       		.uleb128 0x15
 2194 20e2 04       		.byte	0x4
 2195 20e3 04       		.byte	0x4
 2196 20e4 01       		.byte	0x1
 2197 20e5 04       		.uleb128 0x4
 2198 20e6 4E525F4F 		.ascii "NR_OF_FILE_HANDLERS 5\0"
 2198      465F4649 
 2198      4C455F48 
 2198      414E444C 
 2198      45525320 
 2199 20fc 04       		.byte	0x4
 2200 20fd 00       		.byte	0
 2201              		.section	.debug_line,"dr"
 2202              	Ldebug_line0:
 2203 0000 2C040000 		.section	.debug_str,"dr"
 2203      02008D03 
 2203      00000101 
 2203      FB0E0D00 
 2203      01010101 
 2204              	LASF1:
 2205 0000 66696C65 		.ascii "file_ptr\0"
 2205      5F707472 
 2205      00
 2206              	LASF0:
GAS LISTING C:\Users\PRESID~1\AppData\Local\Temp\cc4dUwFK.s 			page 64


 2207 0009 66696C65 		.ascii "filename\0"
 2207      6E616D65 
 2207      00
 2208              	LASF2:
 2209 0012 73747265 		.ascii "stream\0"
 2209      616D00
 2210              		.ident	"GCC: (GNU) 4.9.3"
GAS LISTING C:\Users\PRESID~1\AppData\Local\Temp\cc4dUwFK.s 			page 65


DEFINED SYMBOLS
                            *ABS*:00000000 hal_driver_fs_fat.c
                            *COM*:00000014 _FILE_HANDLER_POOL
C:\Users\PRESID~1\AppData\Local\Temp\cc4dUwFK.s:5      .bss:00000000 _FILE_HANDLER_POOL_USED
C:\Users\PRESID~1\AppData\Local\Temp\cc4dUwFK.s:7      .text:00000000 _fopen
C:\Users\PRESID~1\AppData\Local\Temp\cc4dUwFK.s:191    .text:0000014b _freopen
C:\Users\PRESID~1\AppData\Local\Temp\cc4dUwFK.s:220    .text:00000170 _fflush
C:\Users\PRESID~1\AppData\Local\Temp\cc4dUwFK.s:239    .text:0000017a _fclose
C:\Users\PRESID~1\AppData\Local\Temp\cc4dUwFK.s:316    .text:000001ff _remove
C:\Users\PRESID~1\AppData\Local\Temp\cc4dUwFK.s:336    .text:00000209 _rename
C:\Users\PRESID~1\AppData\Local\Temp\cc4dUwFK.s:356    .text:00000213 _fread
C:\Users\PRESID~1\AppData\Local\Temp\cc4dUwFK.s:376    .text:0000021d _fwrite

NO UNDEFINED SYMBOLS
