GAS LISTING C:\Users\PRESID~1\AppData\Local\Temp\ccPzc4yS.s 			page 1


   1              		.file	"hal_driver_fs_fat.c"
   2              		.text
   3              	Ltext0:
   4              		.comm	_FILE_HANDLER_POOL, 20, 2
   5              	.lcomm _FILE_HANDLER_POOL_USED,20,4
   7              	_fopen:
   8              	LFB0:
   9              		.file 1 "E:/NeuOrga/Programmieren/c_cpp/github_os/input/src/os_sim/hal_driver_fs_fat.c"
   1:E:/NeuOrga/Programmieren/c_cpp/github_os/input/src/os_sim\hal_driver_fs_fat.c **** #include "..\os_base\os_firstinc.h"
   2:E:/NeuOrga/Programmieren/c_cpp/github_os/input/src/os_sim\hal_driver_fs_fat.c **** #include "..\os_drivers\hal_driver_fs_fat.h"
   3:E:/NeuOrga/Programmieren/c_cpp/github_os/input/src/os_sim\hal_driver_fs_fat.c **** 
   4:E:/NeuOrga/Programmieren/c_cpp/github_os/input/src/os_sim\hal_driver_fs_fat.c **** #define NR_OF_FILE_HANDLERS 5
   5:E:/NeuOrga/Programmieren/c_cpp/github_os/input/src/os_sim\hal_driver_fs_fat.c **** 
   6:E:/NeuOrga/Programmieren/c_cpp/github_os/input/src/os_sim\hal_driver_fs_fat.c **** FILE* FILE_HANDLER_POOL[NR_OF_FILE_HANDLERS];
   7:E:/NeuOrga/Programmieren/c_cpp/github_os/input/src/os_sim\hal_driver_fs_fat.c **** static unsigned FILE_HANDLER_POOL_USED[NR_OF_FILE_HANDLERS];
   8:E:/NeuOrga/Programmieren/c_cpp/github_os/input/src/os_sim\hal_driver_fs_fat.c **** Local FILE* fopen(const char *filename, const char *mode);
   9:E:/NeuOrga/Programmieren/c_cpp/github_os/input/src/os_sim\hal_driver_fs_fat.c **** Local int fclose(FILE* file_ptr);
  10:E:/NeuOrga/Programmieren/c_cpp/github_os/input/src/os_sim\hal_driver_fs_fat.c **** 
  11:E:/NeuOrga/Programmieren/c_cpp/github_os/input/src/os_sim\hal_driver_fs_fat.c **** FILE* fopen(const char *filename, const char *mode)
  12:E:/NeuOrga/Programmieren/c_cpp/github_os/input/src/os_sim\hal_driver_fs_fat.c **** {
  10              		.loc 1 12 0
  11              		.cfi_startproc
  12 0000 55       		pushl	%ebp
  13              		.cfi_def_cfa_offset 8
  14              		.cfi_offset 5, -8
  15 0001 89E5     		movl	%esp, %ebp
  16              		.cfi_def_cfa_register 5
  17 0003 83EC10   		subl	$16, %esp
  13:E:/NeuOrga/Programmieren/c_cpp/github_os/input/src/os_sim\hal_driver_fs_fat.c ****    uint32 i;
  14:E:/NeuOrga/Programmieren/c_cpp/github_os/input/src/os_sim\hal_driver_fs_fat.c ****    FILE* file_ptr = 0;
  18              		.loc 1 14 0
  19 0006 C745F800 		movl	$0, -8(%ebp)
  19      000000
  15:E:/NeuOrga/Programmieren/c_cpp/github_os/input/src/os_sim\hal_driver_fs_fat.c ****    uint32 current_file_obj_number = 0;
  20              		.loc 1 15 0
  21 000d C745F400 		movl	$0, -12(%ebp)
  21      000000
  16:E:/NeuOrga/Programmieren/c_cpp/github_os/input/src/os_sim\hal_driver_fs_fat.c **** 
  17:E:/NeuOrga/Programmieren/c_cpp/github_os/input/src/os_sim\hal_driver_fs_fat.c ****    for(i = 0; i < NR_OF_FILE_HANDLERS; i++)
  22              		.loc 1 17 0
  23 0014 C745FC00 		movl	$0, -4(%ebp)
  23      000000
  24 001b E91C0100 		jmp	L2
  24      00
  25              	L21:
  18:E:/NeuOrga/Programmieren/c_cpp/github_os/input/src/os_sim\hal_driver_fs_fat.c ****    {
  19:E:/NeuOrga/Programmieren/c_cpp/github_os/input/src/os_sim\hal_driver_fs_fat.c ****       if(FILE_HANDLER_POOL_USED[i] == False)
  26              		.loc 1 19 0
  27 0020 8B45FC   		movl	-4(%ebp), %eax
  28 0023 8B048500 		movl	_FILE_HANDLER_POOL_USED(,%eax,4), %eax
  28      000000
  29 002a 85C0     		testl	%eax, %eax
  30 002c 0F850701 		jne	L3
  30      0000
  20:E:/NeuOrga/Programmieren/c_cpp/github_os/input/src/os_sim\hal_driver_fs_fat.c ****       {
  21:E:/NeuOrga/Programmieren/c_cpp/github_os/input/src/os_sim\hal_driver_fs_fat.c ****          /* get the next free object number */
  22:E:/NeuOrga/Programmieren/c_cpp/github_os/input/src/os_sim\hal_driver_fs_fat.c ****          FILE_HANDLER_POOL_USED[i] = True;
GAS LISTING C:\Users\PRESID~1\AppData\Local\Temp\ccPzc4yS.s 			page 2


  31              		.loc 1 22 0
  32 0032 8B45FC   		movl	-4(%ebp), %eax
  33 0035 C7048500 		movl	$1, _FILE_HANDLER_POOL_USED(,%eax,4)
  33      00000001 
  33      000000
  23:E:/NeuOrga/Programmieren/c_cpp/github_os/input/src/os_sim\hal_driver_fs_fat.c ****          current_file_obj_number   = i;
  34              		.loc 1 23 0
  35 0040 8B45FC   		movl	-4(%ebp), %eax
  36 0043 8945F4   		movl	%eax, -12(%ebp)
  24:E:/NeuOrga/Programmieren/c_cpp/github_os/input/src/os_sim\hal_driver_fs_fat.c **** 
  25:E:/NeuOrga/Programmieren/c_cpp/github_os/input/src/os_sim\hal_driver_fs_fat.c ****          /* get the next free object (via ptr)*/
  26:E:/NeuOrga/Programmieren/c_cpp/github_os/input/src/os_sim\hal_driver_fs_fat.c ****          file_ptr = FILE_HANDLER_POOL[current_file_obj_number];
  37              		.loc 1 26 0
  38 0046 8B45F4   		movl	-12(%ebp), %eax
  39 0049 8B048500 		movl	_FILE_HANDLER_POOL(,%eax,4), %eax
  39      000000
  40 0050 8945F8   		movl	%eax, -8(%ebp)
  27:E:/NeuOrga/Programmieren/c_cpp/github_os/input/src/os_sim\hal_driver_fs_fat.c **** 
  28:E:/NeuOrga/Programmieren/c_cpp/github_os/input/src/os_sim\hal_driver_fs_fat.c ****          /* set the mode:
  29:E:/NeuOrga/Programmieren/c_cpp/github_os/input/src/os_sim\hal_driver_fs_fat.c ****          "r"	Textdatei zum lesen und eröffnen
  30:E:/NeuOrga/Programmieren/c_cpp/github_os/input/src/os_sim\hal_driver_fs_fat.c ****          "w"	Textdatei zum Schreiben erzeugen; gegebenenfalls alten Inhalt wegwerfen
  31:E:/NeuOrga/Programmieren/c_cpp/github_os/input/src/os_sim\hal_driver_fs_fat.c ****          "a"	anfügen; Textdatei zum Schreiben am Dateiende eröffnen oder erzeugen
  32:E:/NeuOrga/Programmieren/c_cpp/github_os/input/src/os_sim\hal_driver_fs_fat.c ****          "r+"	Textdatei zum Ändern eröffnen (Lesen und Schreiben)
  33:E:/NeuOrga/Programmieren/c_cpp/github_os/input/src/os_sim\hal_driver_fs_fat.c ****          "w+"	Textdatei zum Ändern erzeugen; gegebenenfalls alten Inhalt wegwerfen
  34:E:/NeuOrga/Programmieren/c_cpp/github_os/input/src/os_sim\hal_driver_fs_fat.c ****          "a+"	anfügen; Textdatei zum Ändern eröffnen oder erzeugen, Schreiben am Ende*/
  35:E:/NeuOrga/Programmieren/c_cpp/github_os/input/src/os_sim\hal_driver_fs_fat.c ****          switch(*mode)
  41              		.loc 1 35 0
  42 0053 8B450C   		movl	12(%ebp), %eax
  43 0056 8A00     		movb	(%eax), %al
  44 0058 0FBEC0   		movsbl	%al, %eax
  45 005b 83F872   		cmpl	$114, %eax
  46 005e 740C     		je	L5
  47 0060 83F877   		cmpl	$119, %eax
  48 0063 7429     		je	L6
  49 0065 83F861   		cmpl	$97, %eax
  50 0068 7446     		je	L7
  36:E:/NeuOrga/Programmieren/c_cpp/github_os/input/src/os_sim\hal_driver_fs_fat.c ****          {
  37:E:/NeuOrga/Programmieren/c_cpp/github_os/input/src/os_sim\hal_driver_fs_fat.c ****          case 'r':
  38:E:/NeuOrga/Programmieren/c_cpp/github_os/input/src/os_sim\hal_driver_fs_fat.c ****             if(*(mode+1) == '+')
  39:E:/NeuOrga/Programmieren/c_cpp/github_os/input/src/os_sim\hal_driver_fs_fat.c ****             {
  40:E:/NeuOrga/Programmieren/c_cpp/github_os/input/src/os_sim\hal_driver_fs_fat.c ****                file_ptr->mode_rplus = True;
  41:E:/NeuOrga/Programmieren/c_cpp/github_os/input/src/os_sim\hal_driver_fs_fat.c ****             }
  42:E:/NeuOrga/Programmieren/c_cpp/github_os/input/src/os_sim\hal_driver_fs_fat.c ****             else
  43:E:/NeuOrga/Programmieren/c_cpp/github_os/input/src/os_sim\hal_driver_fs_fat.c ****             {
  44:E:/NeuOrga/Programmieren/c_cpp/github_os/input/src/os_sim\hal_driver_fs_fat.c ****                file_ptr->mode_r = True;
  45:E:/NeuOrga/Programmieren/c_cpp/github_os/input/src/os_sim\hal_driver_fs_fat.c ****             }
  46:E:/NeuOrga/Programmieren/c_cpp/github_os/input/src/os_sim\hal_driver_fs_fat.c ****             break;
  47:E:/NeuOrga/Programmieren/c_cpp/github_os/input/src/os_sim\hal_driver_fs_fat.c ****          case 'w':
  48:E:/NeuOrga/Programmieren/c_cpp/github_os/input/src/os_sim\hal_driver_fs_fat.c ****             if(*(mode+1) == '+')
  49:E:/NeuOrga/Programmieren/c_cpp/github_os/input/src/os_sim\hal_driver_fs_fat.c ****             {
  50:E:/NeuOrga/Programmieren/c_cpp/github_os/input/src/os_sim\hal_driver_fs_fat.c ****                file_ptr->mode_wplus = True;
  51:E:/NeuOrga/Programmieren/c_cpp/github_os/input/src/os_sim\hal_driver_fs_fat.c ****             }
  52:E:/NeuOrga/Programmieren/c_cpp/github_os/input/src/os_sim\hal_driver_fs_fat.c ****             else
  53:E:/NeuOrga/Programmieren/c_cpp/github_os/input/src/os_sim\hal_driver_fs_fat.c ****             {
  54:E:/NeuOrga/Programmieren/c_cpp/github_os/input/src/os_sim\hal_driver_fs_fat.c ****                file_ptr->mode_w = True;
  55:E:/NeuOrga/Programmieren/c_cpp/github_os/input/src/os_sim\hal_driver_fs_fat.c ****             }
  56:E:/NeuOrga/Programmieren/c_cpp/github_os/input/src/os_sim\hal_driver_fs_fat.c ****             break;
GAS LISTING C:\Users\PRESID~1\AppData\Local\Temp\ccPzc4yS.s 			page 3


  57:E:/NeuOrga/Programmieren/c_cpp/github_os/input/src/os_sim\hal_driver_fs_fat.c ****          case 'a':
  58:E:/NeuOrga/Programmieren/c_cpp/github_os/input/src/os_sim\hal_driver_fs_fat.c ****             if(*(mode+1) == '+')
  59:E:/NeuOrga/Programmieren/c_cpp/github_os/input/src/os_sim\hal_driver_fs_fat.c ****             {
  60:E:/NeuOrga/Programmieren/c_cpp/github_os/input/src/os_sim\hal_driver_fs_fat.c ****                file_ptr->mode_aplus = True;
  61:E:/NeuOrga/Programmieren/c_cpp/github_os/input/src/os_sim\hal_driver_fs_fat.c ****             }
  62:E:/NeuOrga/Programmieren/c_cpp/github_os/input/src/os_sim\hal_driver_fs_fat.c ****             else
  63:E:/NeuOrga/Programmieren/c_cpp/github_os/input/src/os_sim\hal_driver_fs_fat.c ****             {
  64:E:/NeuOrga/Programmieren/c_cpp/github_os/input/src/os_sim\hal_driver_fs_fat.c ****                file_ptr->mode_a = True;
  65:E:/NeuOrga/Programmieren/c_cpp/github_os/input/src/os_sim\hal_driver_fs_fat.c ****             }
  66:E:/NeuOrga/Programmieren/c_cpp/github_os/input/src/os_sim\hal_driver_fs_fat.c ****             break;
  67:E:/NeuOrga/Programmieren/c_cpp/github_os/input/src/os_sim\hal_driver_fs_fat.c ****          default:
  68:E:/NeuOrga/Programmieren/c_cpp/github_os/input/src/os_sim\hal_driver_fs_fat.c ****             break;
  51              		.loc 1 68 0
  52 006a EB65     		jmp	L10
  53              	L5:
  38:E:/NeuOrga/Programmieren/c_cpp/github_os/input/src/os_sim\hal_driver_fs_fat.c ****             {
  54              		.loc 1 38 0
  55 006c 8B450C   		movl	12(%ebp), %eax
  56 006f 40       		incl	%eax
  57 0070 8A00     		movb	(%eax), %al
  58 0072 3C2B     		cmpb	$43, %al
  59 0074 750C     		jne	L8
  40:E:/NeuOrga/Programmieren/c_cpp/github_os/input/src/os_sim\hal_driver_fs_fat.c ****             }
  60              		.loc 1 40 0
  61 0076 8B45F8   		movl	-8(%ebp), %eax
  62 0079 8A10     		movb	(%eax), %dl
  63 007b 83CA08   		orl	$8, %edx
  64 007e 8810     		movb	%dl, (%eax)
  46:E:/NeuOrga/Programmieren/c_cpp/github_os/input/src/os_sim\hal_driver_fs_fat.c ****          case 'w':
  65              		.loc 1 46 0
  66 0080 EB4F     		jmp	L10
  67              	L8:
  44:E:/NeuOrga/Programmieren/c_cpp/github_os/input/src/os_sim\hal_driver_fs_fat.c ****             }
  68              		.loc 1 44 0
  69 0082 8B45F8   		movl	-8(%ebp), %eax
  70 0085 8A10     		movb	(%eax), %dl
  71 0087 83CA01   		orl	$1, %edx
  72 008a 8810     		movb	%dl, (%eax)
  46:E:/NeuOrga/Programmieren/c_cpp/github_os/input/src/os_sim\hal_driver_fs_fat.c ****          case 'w':
  73              		.loc 1 46 0
  74 008c EB43     		jmp	L10
  75              	L6:
  48:E:/NeuOrga/Programmieren/c_cpp/github_os/input/src/os_sim\hal_driver_fs_fat.c ****             {
  76              		.loc 1 48 0
  77 008e 8B450C   		movl	12(%ebp), %eax
  78 0091 40       		incl	%eax
  79 0092 8A00     		movb	(%eax), %al
  80 0094 3C2B     		cmpb	$43, %al
  81 0096 750C     		jne	L11
  50:E:/NeuOrga/Programmieren/c_cpp/github_os/input/src/os_sim\hal_driver_fs_fat.c ****             }
  82              		.loc 1 50 0
  83 0098 8B45F8   		movl	-8(%ebp), %eax
  84 009b 8A10     		movb	(%eax), %dl
  85 009d 83CA10   		orl	$16, %edx
  86 00a0 8810     		movb	%dl, (%eax)
  56:E:/NeuOrga/Programmieren/c_cpp/github_os/input/src/os_sim\hal_driver_fs_fat.c ****          case 'a':
  87              		.loc 1 56 0
GAS LISTING C:\Users\PRESID~1\AppData\Local\Temp\ccPzc4yS.s 			page 4


  88 00a2 EB2D     		jmp	L10
  89              	L11:
  54:E:/NeuOrga/Programmieren/c_cpp/github_os/input/src/os_sim\hal_driver_fs_fat.c ****             }
  90              		.loc 1 54 0
  91 00a4 8B45F8   		movl	-8(%ebp), %eax
  92 00a7 8A10     		movb	(%eax), %dl
  93 00a9 83CA02   		orl	$2, %edx
  94 00ac 8810     		movb	%dl, (%eax)
  56:E:/NeuOrga/Programmieren/c_cpp/github_os/input/src/os_sim\hal_driver_fs_fat.c ****          case 'a':
  95              		.loc 1 56 0
  96 00ae EB21     		jmp	L10
  97              	L7:
  58:E:/NeuOrga/Programmieren/c_cpp/github_os/input/src/os_sim\hal_driver_fs_fat.c ****             {
  98              		.loc 1 58 0
  99 00b0 8B450C   		movl	12(%ebp), %eax
 100 00b3 40       		incl	%eax
 101 00b4 8A00     		movb	(%eax), %al
 102 00b6 3C2B     		cmpb	$43, %al
 103 00b8 750C     		jne	L13
  60:E:/NeuOrga/Programmieren/c_cpp/github_os/input/src/os_sim\hal_driver_fs_fat.c ****             }
 104              		.loc 1 60 0
 105 00ba 8B45F8   		movl	-8(%ebp), %eax
 106 00bd 8A10     		movb	(%eax), %dl
 107 00bf 83CA20   		orl	$32, %edx
 108 00c2 8810     		movb	%dl, (%eax)
  66:E:/NeuOrga/Programmieren/c_cpp/github_os/input/src/os_sim\hal_driver_fs_fat.c ****          default:
 109              		.loc 1 66 0
 110 00c4 EB0A     		jmp	L23
 111              	L13:
  64:E:/NeuOrga/Programmieren/c_cpp/github_os/input/src/os_sim\hal_driver_fs_fat.c ****             }
 112              		.loc 1 64 0
 113 00c6 8B45F8   		movl	-8(%ebp), %eax
 114 00c9 8A10     		movb	(%eax), %dl
 115 00cb 83CA04   		orl	$4, %edx
 116 00ce 8810     		movb	%dl, (%eax)
 117              	L23:
  66:E:/NeuOrga/Programmieren/c_cpp/github_os/input/src/os_sim\hal_driver_fs_fat.c ****          default:
 118              		.loc 1 66 0
 119 00d0 90       		nop
 120              	L10:
  69:E:/NeuOrga/Programmieren/c_cpp/github_os/input/src/os_sim\hal_driver_fs_fat.c ****          }
  70:E:/NeuOrga/Programmieren/c_cpp/github_os/input/src/os_sim\hal_driver_fs_fat.c ****          /* copy the file name */
  71:E:/NeuOrga/Programmieren/c_cpp/github_os/input/src/os_sim\hal_driver_fs_fat.c ****          for(i = 0; (i < file_ptr->max_file_name_size); i++ )
 121              		.loc 1 71 0
 122 00d1 C745FC00 		movl	$0, -4(%ebp)
 122      000000
 123 00d8 EB1F     		jmp	L15
 124              	L18:
  72:E:/NeuOrga/Programmieren/c_cpp/github_os/input/src/os_sim\hal_driver_fs_fat.c ****          {
  73:E:/NeuOrga/Programmieren/c_cpp/github_os/input/src/os_sim\hal_driver_fs_fat.c ****             if( *(filename+i)=='\0' )
 125              		.loc 1 73 0
 126 00da 8B5508   		movl	8(%ebp), %edx
 127 00dd 8B45FC   		movl	-4(%ebp), %eax
 128 00e0 01D0     		addl	%edx, %eax
 129 00e2 8A00     		movb	(%eax), %al
 130 00e4 84C0     		testb	%al, %al
 131 00e6 750E     		jne	L16
GAS LISTING C:\Users\PRESID~1\AppData\Local\Temp\ccPzc4yS.s 			page 5


  74:E:/NeuOrga/Programmieren/c_cpp/github_os/input/src/os_sim\hal_driver_fs_fat.c ****             {
  75:E:/NeuOrga/Programmieren/c_cpp/github_os/input/src/os_sim\hal_driver_fs_fat.c ****                file_ptr->used_file_name_size = i+1;
 132              		.loc 1 75 0
 133 00e8 8B45FC   		movl	-4(%ebp), %eax
 134 00eb 8D5001   		leal	1(%eax), %edx
 135 00ee 8B45F8   		movl	-8(%ebp), %eax
 136 00f1 895008   		movl	%edx, 8(%eax)
  76:E:/NeuOrga/Programmieren/c_cpp/github_os/input/src/os_sim\hal_driver_fs_fat.c ****                break;
 137              		.loc 1 76 0
 138 00f4 EB0E     		jmp	L17
 139              	L16:
  71:E:/NeuOrga/Programmieren/c_cpp/github_os/input/src/os_sim\hal_driver_fs_fat.c ****          {
 140              		.loc 1 71 0 discriminator 2
 141 00f6 FF45FC   		incl	-4(%ebp)
 142              	L15:
  71:E:/NeuOrga/Programmieren/c_cpp/github_os/input/src/os_sim\hal_driver_fs_fat.c ****          {
 143              		.loc 1 71 0 is_stmt 0 discriminator 1
 144 00f9 8B45F8   		movl	-8(%ebp), %eax
 145 00fc 8B4004   		movl	4(%eax), %eax
 146 00ff 3B45FC   		cmpl	-4(%ebp), %eax
 147 0102 77D6     		ja	L18
 148              	L17:
  77:E:/NeuOrga/Programmieren/c_cpp/github_os/input/src/os_sim\hal_driver_fs_fat.c ****             }
  78:E:/NeuOrga/Programmieren/c_cpp/github_os/input/src/os_sim\hal_driver_fs_fat.c ****          }
  79:E:/NeuOrga/Programmieren/c_cpp/github_os/input/src/os_sim\hal_driver_fs_fat.c ****          for(i = 0; (i < file_ptr->used_file_name_size); i++ )
 149              		.loc 1 79 0 is_stmt 1
 150 0104 C745FC00 		movl	$0, -4(%ebp)
 150      000000
 151 010b EB1A     		jmp	L19
 152              	L20:
  80:E:/NeuOrga/Programmieren/c_cpp/github_os/input/src/os_sim\hal_driver_fs_fat.c ****          {
  81:E:/NeuOrga/Programmieren/c_cpp/github_os/input/src/os_sim\hal_driver_fs_fat.c ****             *(file_ptr->name+i) = *(filename+i);
 153              		.loc 1 81 0 discriminator 3
 154 010d 8B5508   		movl	8(%ebp), %edx
 155 0110 8B45FC   		movl	-4(%ebp), %eax
 156 0113 01D0     		addl	%edx, %eax
 157 0115 8A00     		movb	(%eax), %al
 158 0117 88C2     		movb	%al, %dl
 159 0119 8B4DF8   		movl	-8(%ebp), %ecx
 160 011c 8B45FC   		movl	-4(%ebp), %eax
 161 011f 01C8     		addl	%ecx, %eax
 162 0121 88500C   		movb	%dl, 12(%eax)
  79:E:/NeuOrga/Programmieren/c_cpp/github_os/input/src/os_sim\hal_driver_fs_fat.c ****          {
 163              		.loc 1 79 0 discriminator 3
 164 0124 FF45FC   		incl	-4(%ebp)
 165              	L19:
  79:E:/NeuOrga/Programmieren/c_cpp/github_os/input/src/os_sim\hal_driver_fs_fat.c ****          {
 166              		.loc 1 79 0 is_stmt 0 discriminator 1
 167 0127 8B45F8   		movl	-8(%ebp), %eax
 168 012a 8B4008   		movl	8(%eax), %eax
 169 012d 3B45FC   		cmpl	-4(%ebp), %eax
 170 0130 77DB     		ja	L20
  82:E:/NeuOrga/Programmieren/c_cpp/github_os/input/src/os_sim\hal_driver_fs_fat.c ****          }
  83:E:/NeuOrga/Programmieren/c_cpp/github_os/input/src/os_sim\hal_driver_fs_fat.c ****          if(1/*FS_FILE_EXISTS(file_ptr) == False*/)
  84:E:/NeuOrga/Programmieren/c_cpp/github_os/input/src/os_sim\hal_driver_fs_fat.c ****          {
  85:E:/NeuOrga/Programmieren/c_cpp/github_os/input/src/os_sim\hal_driver_fs_fat.c ****             file_ptr = 0;
 171              		.loc 1 85 0 is_stmt 1
GAS LISTING C:\Users\PRESID~1\AppData\Local\Temp\ccPzc4yS.s 			page 6


 172 0132 C745F800 		movl	$0, -8(%ebp)
 172      000000
 173              	L3:
  17:E:/NeuOrga/Programmieren/c_cpp/github_os/input/src/os_sim\hal_driver_fs_fat.c ****    {
 174              		.loc 1 17 0 discriminator 2
 175 0139 FF45FC   		incl	-4(%ebp)
 176              	L2:
  17:E:/NeuOrga/Programmieren/c_cpp/github_os/input/src/os_sim\hal_driver_fs_fat.c ****    {
 177              		.loc 1 17 0 is_stmt 0 discriminator 1
 178 013c 837DFC04 		cmpl	$4, -4(%ebp)
 179 0140 0F86DAFE 		jbe	L21
 179      FFFF
  86:E:/NeuOrga/Programmieren/c_cpp/github_os/input/src/os_sim\hal_driver_fs_fat.c ****          }
  87:E:/NeuOrga/Programmieren/c_cpp/github_os/input/src/os_sim\hal_driver_fs_fat.c ****       }
  88:E:/NeuOrga/Programmieren/c_cpp/github_os/input/src/os_sim\hal_driver_fs_fat.c ****    }
  89:E:/NeuOrga/Programmieren/c_cpp/github_os/input/src/os_sim\hal_driver_fs_fat.c ****    return file_ptr;
 180              		.loc 1 89 0 is_stmt 1
 181 0146 8B45F8   		movl	-8(%ebp), %eax
  90:E:/NeuOrga/Programmieren/c_cpp/github_os/input/src/os_sim\hal_driver_fs_fat.c **** }
 182              		.loc 1 90 0
 183 0149 C9       		leave
 184              		.cfi_restore 5
 185              		.cfi_def_cfa 4, 4
 186 014a C3       		ret
 187              		.cfi_endproc
 188              	LFE0:
 189              		.globl	_freopen
 191              	_freopen:
 192              	LFB1:
  91:E:/NeuOrga/Programmieren/c_cpp/github_os/input/src/os_sim\hal_driver_fs_fat.c **** FILE* freopen(const char *filename, const char *mode, FILE *stream)
  92:E:/NeuOrga/Programmieren/c_cpp/github_os/input/src/os_sim\hal_driver_fs_fat.c **** {
 193              		.loc 1 92 0
 194              		.cfi_startproc
 195 014b 55       		pushl	%ebp
 196              		.cfi_def_cfa_offset 8
 197              		.cfi_offset 5, -8
 198 014c 89E5     		movl	%esp, %ebp
 199              		.cfi_def_cfa_register 5
 200 014e 83EC18   		subl	$24, %esp
  93:E:/NeuOrga/Programmieren/c_cpp/github_os/input/src/os_sim\hal_driver_fs_fat.c ****    fclose(stream);
 201              		.loc 1 93 0
 202 0151 8B4510   		movl	16(%ebp), %eax
 203 0154 890424   		movl	%eax, (%esp)
 204 0157 E8190000 		call	_fclose
 204      00
  94:E:/NeuOrga/Programmieren/c_cpp/github_os/input/src/os_sim\hal_driver_fs_fat.c ****    return fopen(filename, mode);
 205              		.loc 1 94 0
 206 015c 8B450C   		movl	12(%ebp), %eax
 207 015f 89442404 		movl	%eax, 4(%esp)
 208 0163 8B4508   		movl	8(%ebp), %eax
 209 0166 890424   		movl	%eax, (%esp)
 210 0169 E892FEFF 		call	_fopen
 210      FF
  95:E:/NeuOrga/Programmieren/c_cpp/github_os/input/src/os_sim\hal_driver_fs_fat.c **** }
 211              		.loc 1 95 0
 212 016e C9       		leave
 213              		.cfi_restore 5
GAS LISTING C:\Users\PRESID~1\AppData\Local\Temp\ccPzc4yS.s 			page 7


 214              		.cfi_def_cfa 4, 4
 215 016f C3       		ret
 216              		.cfi_endproc
 217              	LFE1:
 218              		.globl	_fflush
 220              	_fflush:
 221              	LFB2:
  96:E:/NeuOrga/Programmieren/c_cpp/github_os/input/src/os_sim\hal_driver_fs_fat.c **** int fflush(FILE* stream)
  97:E:/NeuOrga/Programmieren/c_cpp/github_os/input/src/os_sim\hal_driver_fs_fat.c **** {
 222              		.loc 1 97 0
 223              		.cfi_startproc
 224 0170 55       		pushl	%ebp
 225              		.cfi_def_cfa_offset 8
 226              		.cfi_offset 5, -8
 227 0171 89E5     		movl	%esp, %ebp
 228              		.cfi_def_cfa_register 5
  98:E:/NeuOrga/Programmieren/c_cpp/github_os/input/src/os_sim\hal_driver_fs_fat.c ****    /* no buffering implemented -> no need for flush */
  99:E:/NeuOrga/Programmieren/c_cpp/github_os/input/src/os_sim\hal_driver_fs_fat.c **** }
 229              		.loc 1 99 0
 230 0173 5D       		popl	%ebp
 231              		.cfi_restore 5
 232              		.cfi_def_cfa 4, 4
 233 0174 C3       		ret
 234              		.cfi_endproc
 235              	LFE2:
 237              	_fclose:
 238              	LFB3:
 100:E:/NeuOrga/Programmieren/c_cpp/github_os/input/src/os_sim\hal_driver_fs_fat.c **** int fclose(FILE* file_ptr)
 101:E:/NeuOrga/Programmieren/c_cpp/github_os/input/src/os_sim\hal_driver_fs_fat.c **** {
 239              		.loc 1 101 0
 240              		.cfi_startproc
 241 0175 55       		pushl	%ebp
 242              		.cfi_def_cfa_offset 8
 243              		.cfi_offset 5, -8
 244 0176 89E5     		movl	%esp, %ebp
 245              		.cfi_def_cfa_register 5
 246 0178 83EC10   		subl	$16, %esp
 102:E:/NeuOrga/Programmieren/c_cpp/github_os/input/src/os_sim\hal_driver_fs_fat.c ****    uint8 i = 0;
 247              		.loc 1 102 0
 248 017b C645FF00 		movb	$0, -1(%ebp)
 103:E:/NeuOrga/Programmieren/c_cpp/github_os/input/src/os_sim\hal_driver_fs_fat.c **** 
 104:E:/NeuOrga/Programmieren/c_cpp/github_os/input/src/os_sim\hal_driver_fs_fat.c ****    file_ptr->mode_r = False;
 249              		.loc 1 104 0
 250 017f 8B4508   		movl	8(%ebp), %eax
 251 0182 8A10     		movb	(%eax), %dl
 252 0184 83E2FE   		andl	$-2, %edx
 253 0187 8810     		movb	%dl, (%eax)
 105:E:/NeuOrga/Programmieren/c_cpp/github_os/input/src/os_sim\hal_driver_fs_fat.c ****    file_ptr->mode_w = False;
 254              		.loc 1 105 0
 255 0189 8B4508   		movl	8(%ebp), %eax
 256 018c 8A10     		movb	(%eax), %dl
 257 018e 83E2FD   		andl	$-3, %edx
 258 0191 8810     		movb	%dl, (%eax)
 106:E:/NeuOrga/Programmieren/c_cpp/github_os/input/src/os_sim\hal_driver_fs_fat.c ****    file_ptr->mode_a = False;
 259              		.loc 1 106 0
 260 0193 8B4508   		movl	8(%ebp), %eax
 261 0196 8A10     		movb	(%eax), %dl
GAS LISTING C:\Users\PRESID~1\AppData\Local\Temp\ccPzc4yS.s 			page 8


 262 0198 83E2FB   		andl	$-5, %edx
 263 019b 8810     		movb	%dl, (%eax)
 107:E:/NeuOrga/Programmieren/c_cpp/github_os/input/src/os_sim\hal_driver_fs_fat.c ****    file_ptr->mode_rplus = False;
 264              		.loc 1 107 0
 265 019d 8B4508   		movl	8(%ebp), %eax
 266 01a0 8A10     		movb	(%eax), %dl
 267 01a2 83E2F7   		andl	$-9, %edx
 268 01a5 8810     		movb	%dl, (%eax)
 108:E:/NeuOrga/Programmieren/c_cpp/github_os/input/src/os_sim\hal_driver_fs_fat.c ****    file_ptr->mode_wplus = False;
 269              		.loc 1 108 0
 270 01a7 8B4508   		movl	8(%ebp), %eax
 271 01aa 8A10     		movb	(%eax), %dl
 272 01ac 83E2EF   		andl	$-17, %edx
 273 01af 8810     		movb	%dl, (%eax)
 109:E:/NeuOrga/Programmieren/c_cpp/github_os/input/src/os_sim\hal_driver_fs_fat.c ****    file_ptr->mode_aplus = False;
 274              		.loc 1 109 0
 275 01b1 8B4508   		movl	8(%ebp), %eax
 276 01b4 8A10     		movb	(%eax), %dl
 277 01b6 83E2DF   		andl	$-33, %edx
 278 01b9 8810     		movb	%dl, (%eax)
 110:E:/NeuOrga/Programmieren/c_cpp/github_os/input/src/os_sim\hal_driver_fs_fat.c ****    for(i = 0; (i < file_ptr->max_file_name_size); i++ )
 279              		.loc 1 110 0
 280 01bb C645FF00 		movb	$0, -1(%ebp)
 281 01bf EB13     		jmp	L28
 282              	L29:
 111:E:/NeuOrga/Programmieren/c_cpp/github_os/input/src/os_sim\hal_driver_fs_fat.c ****    {
 112:E:/NeuOrga/Programmieren/c_cpp/github_os/input/src/os_sim\hal_driver_fs_fat.c ****       *(file_ptr->name+i) = 0x00;
 283              		.loc 1 112 0 discriminator 3
 284 01c1 0FB645FF 		movzbl	-1(%ebp), %eax
 285 01c5 8B5508   		movl	8(%ebp), %edx
 286 01c8 C644020C 		movb	$0, 12(%edx,%eax)
 286      00
 110:E:/NeuOrga/Programmieren/c_cpp/github_os/input/src/os_sim\hal_driver_fs_fat.c ****    for(i = 0; (i < file_ptr->max_file_name_size); i++ )
 287              		.loc 1 110 0 discriminator 3
 288 01cd 8A45FF   		movb	-1(%ebp), %al
 289 01d0 40       		incl	%eax
 290 01d1 8845FF   		movb	%al, -1(%ebp)
 291              	L28:
 110:E:/NeuOrga/Programmieren/c_cpp/github_os/input/src/os_sim\hal_driver_fs_fat.c ****    for(i = 0; (i < file_ptr->max_file_name_size); i++ )
 292              		.loc 1 110 0 is_stmt 0 discriminator 1
 293 01d4 0FB655FF 		movzbl	-1(%ebp), %edx
 294 01d8 8B4508   		movl	8(%ebp), %eax
 295 01db 8B4004   		movl	4(%eax), %eax
 296 01de 39C2     		cmpl	%eax, %edx
 297 01e0 72DF     		jb	L29
 113:E:/NeuOrga/Programmieren/c_cpp/github_os/input/src/os_sim\hal_driver_fs_fat.c ****    }
 114:E:/NeuOrga/Programmieren/c_cpp/github_os/input/src/os_sim\hal_driver_fs_fat.c ****    file_ptr->used_file_name_size = 0;
 298              		.loc 1 114 0 is_stmt 1
 299 01e2 8B4508   		movl	8(%ebp), %eax
 300 01e5 C7400800 		movl	$0, 8(%eax)
 300      000000
 115:E:/NeuOrga/Programmieren/c_cpp/github_os/input/src/os_sim\hal_driver_fs_fat.c ****    file_ptr = 0;
 301              		.loc 1 115 0
 302 01ec C7450800 		movl	$0, 8(%ebp)
 302      000000
 116:E:/NeuOrga/Programmieren/c_cpp/github_os/input/src/os_sim\hal_driver_fs_fat.c **** }
 303              		.loc 1 116 0
GAS LISTING C:\Users\PRESID~1\AppData\Local\Temp\ccPzc4yS.s 			page 9


 304 01f3 C9       		leave
 305              		.cfi_restore 5
 306              		.cfi_def_cfa 4, 4
 307 01f4 C3       		ret
 308              		.cfi_endproc
 309              	LFE3:
 310              		.globl	_remove
 312              	_remove:
 313              	LFB4:
 117:E:/NeuOrga/Programmieren/c_cpp/github_os/input/src/os_sim\hal_driver_fs_fat.c **** int remove(const char *filename)
 118:E:/NeuOrga/Programmieren/c_cpp/github_os/input/src/os_sim\hal_driver_fs_fat.c **** {
 314              		.loc 1 118 0
 315              		.cfi_startproc
 316 01f5 55       		pushl	%ebp
 317              		.cfi_def_cfa_offset 8
 318              		.cfi_offset 5, -8
 319 01f6 89E5     		movl	%esp, %ebp
 320              		.cfi_def_cfa_register 5
 119:E:/NeuOrga/Programmieren/c_cpp/github_os/input/src/os_sim\hal_driver_fs_fat.c ****    /*#warn "fopen"*/
 120:E:/NeuOrga/Programmieren/c_cpp/github_os/input/src/os_sim\hal_driver_fs_fat.c **** }
 321              		.loc 1 120 0
 322 01f8 5D       		popl	%ebp
 323              		.cfi_restore 5
 324              		.cfi_def_cfa 4, 4
 325 01f9 C3       		ret
 326              		.cfi_endproc
 327              	LFE4:
 328              		.globl	_rename
 330              	_rename:
 331              	LFB5:
 121:E:/NeuOrga/Programmieren/c_cpp/github_os/input/src/os_sim\hal_driver_fs_fat.c **** int rename(const char *oldname, const char *newname)
 122:E:/NeuOrga/Programmieren/c_cpp/github_os/input/src/os_sim\hal_driver_fs_fat.c **** {
 332              		.loc 1 122 0
 333              		.cfi_startproc
 334 01fa 55       		pushl	%ebp
 335              		.cfi_def_cfa_offset 8
 336              		.cfi_offset 5, -8
 337 01fb 89E5     		movl	%esp, %ebp
 338              		.cfi_def_cfa_register 5
 123:E:/NeuOrga/Programmieren/c_cpp/github_os/input/src/os_sim\hal_driver_fs_fat.c ****    /*#warn "fopen"*/
 124:E:/NeuOrga/Programmieren/c_cpp/github_os/input/src/os_sim\hal_driver_fs_fat.c **** }
 339              		.loc 1 124 0
 340 01fd 5D       		popl	%ebp
 341              		.cfi_restore 5
 342              		.cfi_def_cfa 4, 4
 343 01fe C3       		ret
 344              		.cfi_endproc
 345              	LFE5:
 346              		.globl	_fread
 348              	_fread:
 349              	LFB6:
 125:E:/NeuOrga/Programmieren/c_cpp/github_os/input/src/os_sim\hal_driver_fs_fat.c **** uint32 fread(void *ptr, uint32 size, uint32 nobj, FILE *stream)
 126:E:/NeuOrga/Programmieren/c_cpp/github_os/input/src/os_sim\hal_driver_fs_fat.c **** {
 350              		.loc 1 126 0
 351              		.cfi_startproc
 352 01ff 55       		pushl	%ebp
 353              		.cfi_def_cfa_offset 8
GAS LISTING C:\Users\PRESID~1\AppData\Local\Temp\ccPzc4yS.s 			page 10


 354              		.cfi_offset 5, -8
 355 0200 89E5     		movl	%esp, %ebp
 356              		.cfi_def_cfa_register 5
 127:E:/NeuOrga/Programmieren/c_cpp/github_os/input/src/os_sim\hal_driver_fs_fat.c ****    /*#warn "fopen"*/
 128:E:/NeuOrga/Programmieren/c_cpp/github_os/input/src/os_sim\hal_driver_fs_fat.c **** }
 357              		.loc 1 128 0
 358 0202 5D       		popl	%ebp
 359              		.cfi_restore 5
 360              		.cfi_def_cfa 4, 4
 361 0203 C3       		ret
 362              		.cfi_endproc
 363              	LFE6:
 364              		.globl	_fwrite
 366              	_fwrite:
 367              	LFB7:
 129:E:/NeuOrga/Programmieren/c_cpp/github_os/input/src/os_sim\hal_driver_fs_fat.c **** uint32 fwrite(const void *ptr, uint32 size, uint32 nobj, FILE *stream)
 130:E:/NeuOrga/Programmieren/c_cpp/github_os/input/src/os_sim\hal_driver_fs_fat.c **** {
 368              		.loc 1 130 0
 369              		.cfi_startproc
 370 0204 55       		pushl	%ebp
 371              		.cfi_def_cfa_offset 8
 372              		.cfi_offset 5, -8
 373 0205 89E5     		movl	%esp, %ebp
 374              		.cfi_def_cfa_register 5
 131:E:/NeuOrga/Programmieren/c_cpp/github_os/input/src/os_sim\hal_driver_fs_fat.c ****    /*#warn "fopen"*/
 132:E:/NeuOrga/Programmieren/c_cpp/github_os/input/src/os_sim\hal_driver_fs_fat.c **** }
 375              		.loc 1 132 0
 376 0207 5D       		popl	%ebp
 377              		.cfi_restore 5
 378              		.cfi_def_cfa 4, 4
 379 0208 C3       		ret
 380              		.cfi_endproc
 381              	LFE7:
 382              	Letext0:
 383              		.file 2 "E:/NeuOrga/Programmieren/c_cpp/github_os/input/src/os_sim/../os_base/../os_base/os_base_t
 384              		.file 3 "E:/NeuOrga/Programmieren/c_cpp/github_os/input/src/os_sim/../os_drivers/hal_driver_fs_fat
 385 0209 909090   		.section	.debug_info,"dr"
 386              	Ldebug_info0:
 387 0000 F5040000 		.long	0x4f5
 388 0004 0400     		.word	0x4
 389 0006 00000000 		.secrel32	Ldebug_abbrev0
 390 000a 04       		.byte	0x4
 391 000b 01       		.uleb128 0x1
 392 000c 474E5520 		.ascii "GNU C 4.9.3 -march=i386 -g3 -O0 -std=c90\0"
 392      4320342E 
 392      392E3320 
 392      2D6D6172 
 392      63683D69 
 393 0035 01       		.byte	0x1
 394 0036 453A5C4E 		.ascii "E:\\NeuOrga\\Programmieren\\c_cpp\\github_os\\input\\src\\os_sim\\hal_driver_fs_fat.c\0"
 394      65754F72 
 394      67615C50 
 394      726F6772 
 394      616D6D69 
 395 0084 00000000 		.long	Ltext0
 396 0088 09020000 		.long	Letext0-Ltext0
 397 008c 00000000 		.secrel32	Ldebug_line0
GAS LISTING C:\Users\PRESID~1\AppData\Local\Temp\ccPzc4yS.s 			page 11


 398 0090 00000000 		.secrel32	Ldebug_macro0
 399 0094 02       		.uleb128 0x2
 400 0095 756E7369 		.ascii "unsigned_char_t\0"
 400      676E6564 
 400      5F636861 
 400      725F7400 
 401 00a5 02       		.byte	0x2
 402 00a6 1D       		.byte	0x1d
 403 00a7 AB000000 		.long	0xab
 404 00ab 03       		.uleb128 0x3
 405 00ac 01       		.byte	0x1
 406 00ad 08       		.byte	0x8
 407 00ae 756E7369 		.ascii "unsigned char\0"
 407      676E6564 
 407      20636861 
 407      7200
 408 00bc 02       		.uleb128 0x2
 409 00bd 75696E74 		.ascii "uint8\0"
 409      3800
 410 00c3 02       		.byte	0x2
 411 00c4 1F       		.byte	0x1f
 412 00c5 AB000000 		.long	0xab
 413 00c9 03       		.uleb128 0x3
 414 00ca 02       		.byte	0x2
 415 00cb 07       		.byte	0x7
 416 00cc 73686F72 		.ascii "short unsigned int\0"
 416      7420756E 
 416      7369676E 
 416      65642069 
 416      6E7400
 417 00df 03       		.uleb128 0x3
 418 00e0 04       		.byte	0x4
 419 00e1 07       		.byte	0x7
 420 00e2 6C6F6E67 		.ascii "long unsigned int\0"
 420      20756E73 
 420      69676E65 
 420      6420696E 
 420      7400
 421 00f4 02       		.uleb128 0x2
 422 00f5 75696E74 		.ascii "uint32\0"
 422      333200
 423 00fc 02       		.byte	0x2
 424 00fd 23       		.byte	0x23
 425 00fe DF000000 		.long	0xdf
 426 0102 04       		.uleb128 0x4
 427 0103 04       		.byte	0x4
 428 0104 03       		.uleb128 0x3
 429 0105 04       		.byte	0x4
 430 0106 07       		.byte	0x7
 431 0107 756E7369 		.ascii "unsigned int\0"
 431      676E6564 
 431      20696E74 
 431      00
 432 0114 05       		.uleb128 0x5
 433 0115 66696C65 		.ascii "file_s\0"
 433      5F7300
 434 011c 1001     		.word	0x110
GAS LISTING C:\Users\PRESID~1\AppData\Local\Temp\ccPzc4yS.s 			page 12


 435 011e 03       		.byte	0x3
 436 011f 05       		.byte	0x5
 437 0120 07020000 		.long	0x207
 438 0124 06       		.uleb128 0x6
 439 0125 6D6F6465 		.ascii "mode_r\0"
 439      5F7200
 440 012c 03       		.byte	0x3
 441 012d 07       		.byte	0x7
 442 012e 04010000 		.long	0x104
 443 0132 04       		.byte	0x4
 444 0133 01       		.byte	0x1
 445 0134 1F       		.byte	0x1f
 446 0135 00       		.byte	0
 447 0136 06       		.uleb128 0x6
 448 0137 6D6F6465 		.ascii "mode_w\0"
 448      5F7700
 449 013e 03       		.byte	0x3
 450 013f 08       		.byte	0x8
 451 0140 04010000 		.long	0x104
 452 0144 04       		.byte	0x4
 453 0145 01       		.byte	0x1
 454 0146 1E       		.byte	0x1e
 455 0147 00       		.byte	0
 456 0148 06       		.uleb128 0x6
 457 0149 6D6F6465 		.ascii "mode_a\0"
 457      5F6100
 458 0150 03       		.byte	0x3
 459 0151 09       		.byte	0x9
 460 0152 04010000 		.long	0x104
 461 0156 04       		.byte	0x4
 462 0157 01       		.byte	0x1
 463 0158 1D       		.byte	0x1d
 464 0159 00       		.byte	0
 465 015a 06       		.uleb128 0x6
 466 015b 6D6F6465 		.ascii "mode_rplus\0"
 466      5F72706C 
 466      757300
 467 0166 03       		.byte	0x3
 468 0167 0A       		.byte	0xa
 469 0168 04010000 		.long	0x104
 470 016c 04       		.byte	0x4
 471 016d 01       		.byte	0x1
 472 016e 1C       		.byte	0x1c
 473 016f 00       		.byte	0
 474 0170 06       		.uleb128 0x6
 475 0171 6D6F6465 		.ascii "mode_wplus\0"
 475      5F77706C 
 475      757300
 476 017c 03       		.byte	0x3
 477 017d 0B       		.byte	0xb
 478 017e 04010000 		.long	0x104
 479 0182 04       		.byte	0x4
 480 0183 01       		.byte	0x1
 481 0184 1B       		.byte	0x1b
 482 0185 00       		.byte	0
 483 0186 06       		.uleb128 0x6
 484 0187 6D6F6465 		.ascii "mode_aplus\0"
GAS LISTING C:\Users\PRESID~1\AppData\Local\Temp\ccPzc4yS.s 			page 13


 484      5F61706C 
 484      757300
 485 0192 03       		.byte	0x3
 486 0193 0C       		.byte	0xc
 487 0194 04010000 		.long	0x104
 488 0198 04       		.byte	0x4
 489 0199 01       		.byte	0x1
 490 019a 1A       		.byte	0x1a
 491 019b 00       		.byte	0
 492 019c 06       		.uleb128 0x6
 493 019d 66726565 		.ascii "free\0"
 493      00
 494 01a2 03       		.byte	0x3
 495 01a3 0D       		.byte	0xd
 496 01a4 04010000 		.long	0x104
 497 01a8 04       		.byte	0x4
 498 01a9 02       		.byte	0x2
 499 01aa 18       		.byte	0x18
 500 01ab 00       		.byte	0
 501 01ac 07       		.uleb128 0x7
 502 01ad 6D61785F 		.ascii "max_file_name_size\0"
 502      66696C65 
 502      5F6E616D 
 502      655F7369 
 502      7A6500
 503 01c0 03       		.byte	0x3
 504 01c1 0E       		.byte	0xe
 505 01c2 04010000 		.long	0x104
 506 01c6 04       		.byte	0x4
 507 01c7 07       		.uleb128 0x7
 508 01c8 75736564 		.ascii "used_file_name_size\0"
 508      5F66696C 
 508      655F6E61 
 508      6D655F73 
 508      697A6500 
 509 01dc 03       		.byte	0x3
 510 01dd 0F       		.byte	0xf
 511 01de 04010000 		.long	0x104
 512 01e2 08       		.byte	0x8
 513 01e3 07       		.uleb128 0x7
 514 01e4 6E616D65 		.ascii "name\0"
 514      00
 515 01e9 03       		.byte	0x3
 516 01ea 10       		.byte	0x10
 517 01eb 07020000 		.long	0x207
 518 01ef 0C       		.byte	0xc
 519 01f0 08       		.uleb128 0x8
 520 01f1 66696C65 		.ascii "file_content\0"
 520      5F636F6E 
 520      74656E74 
 520      00
 521 01fe 03       		.byte	0x3
 522 01ff 11       		.byte	0x11
 523 0200 23020000 		.long	0x223
 524 0204 0C01     		.word	0x10c
 525 0206 00       		.byte	0
 526 0207 09       		.uleb128 0x9
GAS LISTING C:\Users\PRESID~1\AppData\Local\Temp\ccPzc4yS.s 			page 14


 527 0208 94000000 		.long	0x94
 528 020c 17020000 		.long	0x217
 529 0210 0A       		.uleb128 0xa
 530 0211 17020000 		.long	0x217
 531 0215 FF       		.byte	0xff
 532 0216 00       		.byte	0
 533 0217 03       		.uleb128 0x3
 534 0218 04       		.byte	0x4
 535 0219 07       		.byte	0x7
 536 021a 73697A65 		.ascii "sizetype\0"
 536      74797065 
 536      00
 537 0223 0B       		.uleb128 0xb
 538 0224 04       		.byte	0x4
 539 0225 BC000000 		.long	0xbc
 540 0229 02       		.uleb128 0x2
 541 022a 46494C45 		.ascii "FILE\0"
 541      00
 542 022f 03       		.byte	0x3
 543 0230 12       		.byte	0x12
 544 0231 14010000 		.long	0x114
 545 0235 0C       		.uleb128 0xc
 546 0236 666F7065 		.ascii "fopen\0"
 546      6E00
 547 023c 01       		.byte	0x1
 548 023d 0B       		.byte	0xb
 549 023e AA020000 		.long	0x2aa
 550 0242 00000000 		.long	LFB0
 551 0246 4B010000 		.long	LFE0-LFB0
 552 024a 01       		.uleb128 0x1
 553 024b 9C       		.byte	0x9c
 554 024c AA020000 		.long	0x2aa
 555 0250 0D       		.uleb128 0xd
 556 0251 09000000 		.secrel32	LASF0
 557 0255 01       		.byte	0x1
 558 0256 0B       		.byte	0xb
 559 0257 B0020000 		.long	0x2b0
 560 025b 02       		.uleb128 0x2
 561 025c 91       		.byte	0x91
 562 025d 00       		.sleb128 0
 563 025e 0E       		.uleb128 0xe
 564 025f 6D6F6465 		.ascii "mode\0"
 564      00
 565 0264 01       		.byte	0x1
 566 0265 0B       		.byte	0xb
 567 0266 B0020000 		.long	0x2b0
 568 026a 02       		.uleb128 0x2
 569 026b 91       		.byte	0x91
 570 026c 04       		.sleb128 4
 571 026d 0F       		.uleb128 0xf
 572 026e 6900     		.ascii "i\0"
 573 0270 01       		.byte	0x1
 574 0271 0D       		.byte	0xd
 575 0272 F4000000 		.long	0xf4
 576 0276 02       		.uleb128 0x2
 577 0277 91       		.byte	0x91
 578 0278 74       		.sleb128 -12
GAS LISTING C:\Users\PRESID~1\AppData\Local\Temp\ccPzc4yS.s 			page 15


 579 0279 10       		.uleb128 0x10
 580 027a 00000000 		.secrel32	LASF1
 581 027e 01       		.byte	0x1
 582 027f 0E       		.byte	0xe
 583 0280 AA020000 		.long	0x2aa
 584 0284 02       		.uleb128 0x2
 585 0285 91       		.byte	0x91
 586 0286 70       		.sleb128 -16
 587 0287 0F       		.uleb128 0xf
 588 0288 63757272 		.ascii "current_file_obj_number\0"
 588      656E745F 
 588      66696C65 
 588      5F6F626A 
 588      5F6E756D 
 589 02a0 01       		.byte	0x1
 590 02a1 0F       		.byte	0xf
 591 02a2 F4000000 		.long	0xf4
 592 02a6 02       		.uleb128 0x2
 593 02a7 91       		.byte	0x91
 594 02a8 6C       		.sleb128 -20
 595 02a9 00       		.byte	0
 596 02aa 0B       		.uleb128 0xb
 597 02ab 04       		.byte	0x4
 598 02ac 29020000 		.long	0x229
 599 02b0 0B       		.uleb128 0xb
 600 02b1 04       		.byte	0x4
 601 02b2 B6020000 		.long	0x2b6
 602 02b6 11       		.uleb128 0x11
 603 02b7 BB020000 		.long	0x2bb
 604 02bb 03       		.uleb128 0x3
 605 02bc 01       		.byte	0x1
 606 02bd 06       		.byte	0x6
 607 02be 63686172 		.ascii "char\0"
 607      00
 608 02c3 12       		.uleb128 0x12
 609 02c4 6672656F 		.ascii "freopen\0"
 609      70656E00 
 610 02cc 01       		.byte	0x1
 611 02cd 5B       		.byte	0x5b
 612 02ce AA020000 		.long	0x2aa
 613 02d2 4B010000 		.long	LFB1
 614 02d6 25000000 		.long	LFE1-LFB1
 615 02da 01       		.uleb128 0x1
 616 02db 9C       		.byte	0x9c
 617 02dc 0C030000 		.long	0x30c
 618 02e0 0D       		.uleb128 0xd
 619 02e1 09000000 		.secrel32	LASF0
 620 02e5 01       		.byte	0x1
 621 02e6 5B       		.byte	0x5b
 622 02e7 B0020000 		.long	0x2b0
 623 02eb 02       		.uleb128 0x2
 624 02ec 91       		.byte	0x91
 625 02ed 00       		.sleb128 0
 626 02ee 0E       		.uleb128 0xe
 627 02ef 6D6F6465 		.ascii "mode\0"
 627      00
 628 02f4 01       		.byte	0x1
GAS LISTING C:\Users\PRESID~1\AppData\Local\Temp\ccPzc4yS.s 			page 16


 629 02f5 5B       		.byte	0x5b
 630 02f6 B0020000 		.long	0x2b0
 631 02fa 02       		.uleb128 0x2
 632 02fb 91       		.byte	0x91
 633 02fc 04       		.sleb128 4
 634 02fd 0D       		.uleb128 0xd
 635 02fe 12000000 		.secrel32	LASF2
 636 0302 01       		.byte	0x1
 637 0303 5B       		.byte	0x5b
 638 0304 AA020000 		.long	0x2aa
 639 0308 02       		.uleb128 0x2
 640 0309 91       		.byte	0x91
 641 030a 08       		.sleb128 8
 642 030b 00       		.byte	0
 643 030c 13       		.uleb128 0x13
 644 030d 66666C75 		.ascii "fflush\0"
 644      736800
 645 0314 01       		.byte	0x1
 646 0315 60       		.byte	0x60
 647 0316 37030000 		.long	0x337
 648 031a 70010000 		.long	LFB2
 649 031e 05000000 		.long	LFE2-LFB2
 650 0322 01       		.uleb128 0x1
 651 0323 9C       		.byte	0x9c
 652 0324 37030000 		.long	0x337
 653 0328 0D       		.uleb128 0xd
 654 0329 12000000 		.secrel32	LASF2
 655 032d 01       		.byte	0x1
 656 032e 60       		.byte	0x60
 657 032f AA020000 		.long	0x2aa
 658 0333 02       		.uleb128 0x2
 659 0334 91       		.byte	0x91
 660 0335 00       		.sleb128 0
 661 0336 00       		.byte	0
 662 0337 03       		.uleb128 0x3
 663 0338 04       		.byte	0x4
 664 0339 05       		.byte	0x5
 665 033a 696E7400 		.ascii "int\0"
 666 033e 0C       		.uleb128 0xc
 667 033f 66636C6F 		.ascii "fclose\0"
 667      736500
 668 0346 01       		.byte	0x1
 669 0347 64       		.byte	0x64
 670 0348 37030000 		.long	0x337
 671 034c 75010000 		.long	LFB3
 672 0350 80000000 		.long	LFE3-LFB3
 673 0354 01       		.uleb128 0x1
 674 0355 9C       		.byte	0x9c
 675 0356 75030000 		.long	0x375
 676 035a 0D       		.uleb128 0xd
 677 035b 00000000 		.secrel32	LASF1
 678 035f 01       		.byte	0x1
 679 0360 64       		.byte	0x64
 680 0361 AA020000 		.long	0x2aa
 681 0365 02       		.uleb128 0x2
 682 0366 91       		.byte	0x91
 683 0367 00       		.sleb128 0
GAS LISTING C:\Users\PRESID~1\AppData\Local\Temp\ccPzc4yS.s 			page 17


 684 0368 0F       		.uleb128 0xf
 685 0369 6900     		.ascii "i\0"
 686 036b 01       		.byte	0x1
 687 036c 66       		.byte	0x66
 688 036d BC000000 		.long	0xbc
 689 0371 02       		.uleb128 0x2
 690 0372 91       		.byte	0x91
 691 0373 77       		.sleb128 -9
 692 0374 00       		.byte	0
 693 0375 13       		.uleb128 0x13
 694 0376 72656D6F 		.ascii "remove\0"
 694      766500
 695 037d 01       		.byte	0x1
 696 037e 75       		.byte	0x75
 697 037f 37030000 		.long	0x337
 698 0383 F5010000 		.long	LFB4
 699 0387 05000000 		.long	LFE4-LFB4
 700 038b 01       		.uleb128 0x1
 701 038c 9C       		.byte	0x9c
 702 038d A0030000 		.long	0x3a0
 703 0391 0D       		.uleb128 0xd
 704 0392 09000000 		.secrel32	LASF0
 705 0396 01       		.byte	0x1
 706 0397 75       		.byte	0x75
 707 0398 B0020000 		.long	0x2b0
 708 039c 02       		.uleb128 0x2
 709 039d 91       		.byte	0x91
 710 039e 00       		.sleb128 0
 711 039f 00       		.byte	0
 712 03a0 13       		.uleb128 0x13
 713 03a1 72656E61 		.ascii "rename\0"
 713      6D6500
 714 03a8 01       		.byte	0x1
 715 03a9 79       		.byte	0x79
 716 03aa 37030000 		.long	0x337
 717 03ae FA010000 		.long	LFB5
 718 03b2 05000000 		.long	LFE5-LFB5
 719 03b6 01       		.uleb128 0x1
 720 03b7 9C       		.byte	0x9c
 721 03b8 E1030000 		.long	0x3e1
 722 03bc 0E       		.uleb128 0xe
 723 03bd 6F6C646E 		.ascii "oldname\0"
 723      616D6500 
 724 03c5 01       		.byte	0x1
 725 03c6 79       		.byte	0x79
 726 03c7 B0020000 		.long	0x2b0
 727 03cb 02       		.uleb128 0x2
 728 03cc 91       		.byte	0x91
 729 03cd 00       		.sleb128 0
 730 03ce 0E       		.uleb128 0xe
 731 03cf 6E65776E 		.ascii "newname\0"
 731      616D6500 
 732 03d7 01       		.byte	0x1
 733 03d8 79       		.byte	0x79
 734 03d9 B0020000 		.long	0x2b0
 735 03dd 02       		.uleb128 0x2
 736 03de 91       		.byte	0x91
GAS LISTING C:\Users\PRESID~1\AppData\Local\Temp\ccPzc4yS.s 			page 18


 737 03df 04       		.sleb128 4
 738 03e0 00       		.byte	0
 739 03e1 13       		.uleb128 0x13
 740 03e2 66726561 		.ascii "fread\0"
 740      6400
 741 03e8 01       		.byte	0x1
 742 03e9 7D       		.byte	0x7d
 743 03ea F4000000 		.long	0xf4
 744 03ee FF010000 		.long	LFB6
 745 03f2 05000000 		.long	LFE6-LFB6
 746 03f6 01       		.uleb128 0x1
 747 03f7 9C       		.byte	0x9c
 748 03f8 37040000 		.long	0x437
 749 03fc 0E       		.uleb128 0xe
 750 03fd 70747200 		.ascii "ptr\0"
 751 0401 01       		.byte	0x1
 752 0402 7D       		.byte	0x7d
 753 0403 02010000 		.long	0x102
 754 0407 02       		.uleb128 0x2
 755 0408 91       		.byte	0x91
 756 0409 00       		.sleb128 0
 757 040a 0E       		.uleb128 0xe
 758 040b 73697A65 		.ascii "size\0"
 758      00
 759 0410 01       		.byte	0x1
 760 0411 7D       		.byte	0x7d
 761 0412 F4000000 		.long	0xf4
 762 0416 02       		.uleb128 0x2
 763 0417 91       		.byte	0x91
 764 0418 04       		.sleb128 4
 765 0419 0E       		.uleb128 0xe
 766 041a 6E6F626A 		.ascii "nobj\0"
 766      00
 767 041f 01       		.byte	0x1
 768 0420 7D       		.byte	0x7d
 769 0421 F4000000 		.long	0xf4
 770 0425 02       		.uleb128 0x2
 771 0426 91       		.byte	0x91
 772 0427 08       		.sleb128 8
 773 0428 0D       		.uleb128 0xd
 774 0429 12000000 		.secrel32	LASF2
 775 042d 01       		.byte	0x1
 776 042e 7D       		.byte	0x7d
 777 042f AA020000 		.long	0x2aa
 778 0433 02       		.uleb128 0x2
 779 0434 91       		.byte	0x91
 780 0435 0C       		.sleb128 12
 781 0436 00       		.byte	0
 782 0437 13       		.uleb128 0x13
 783 0438 66777269 		.ascii "fwrite\0"
 783      746500
 784 043f 01       		.byte	0x1
 785 0440 81       		.byte	0x81
 786 0441 F4000000 		.long	0xf4
 787 0445 04020000 		.long	LFB7
 788 0449 05000000 		.long	LFE7-LFB7
 789 044d 01       		.uleb128 0x1
GAS LISTING C:\Users\PRESID~1\AppData\Local\Temp\ccPzc4yS.s 			page 19


 790 044e 9C       		.byte	0x9c
 791 044f 8E040000 		.long	0x48e
 792 0453 0E       		.uleb128 0xe
 793 0454 70747200 		.ascii "ptr\0"
 794 0458 01       		.byte	0x1
 795 0459 81       		.byte	0x81
 796 045a 8E040000 		.long	0x48e
 797 045e 02       		.uleb128 0x2
 798 045f 91       		.byte	0x91
 799 0460 00       		.sleb128 0
 800 0461 0E       		.uleb128 0xe
 801 0462 73697A65 		.ascii "size\0"
 801      00
 802 0467 01       		.byte	0x1
 803 0468 81       		.byte	0x81
 804 0469 F4000000 		.long	0xf4
 805 046d 02       		.uleb128 0x2
 806 046e 91       		.byte	0x91
 807 046f 04       		.sleb128 4
 808 0470 0E       		.uleb128 0xe
 809 0471 6E6F626A 		.ascii "nobj\0"
 809      00
 810 0476 01       		.byte	0x1
 811 0477 81       		.byte	0x81
 812 0478 F4000000 		.long	0xf4
 813 047c 02       		.uleb128 0x2
 814 047d 91       		.byte	0x91
 815 047e 08       		.sleb128 8
 816 047f 0D       		.uleb128 0xd
 817 0480 12000000 		.secrel32	LASF2
 818 0484 01       		.byte	0x1
 819 0485 81       		.byte	0x81
 820 0486 AA020000 		.long	0x2aa
 821 048a 02       		.uleb128 0x2
 822 048b 91       		.byte	0x91
 823 048c 0C       		.sleb128 12
 824 048d 00       		.byte	0
 825 048e 0B       		.uleb128 0xb
 826 048f 04       		.byte	0x4
 827 0490 94040000 		.long	0x494
 828 0494 14       		.uleb128 0x14
 829 0495 09       		.uleb128 0x9
 830 0496 04010000 		.long	0x104
 831 049a A5040000 		.long	0x4a5
 832 049e 0A       		.uleb128 0xa
 833 049f 17020000 		.long	0x217
 834 04a3 04       		.byte	0x4
 835 04a4 00       		.byte	0
 836 04a5 0F       		.uleb128 0xf
 837 04a6 46494C45 		.ascii "FILE_HANDLER_POOL_USED\0"
 837      5F48414E 
 837      444C4552 
 837      5F504F4F 
 837      4C5F5553 
 838 04bd 01       		.byte	0x1
 839 04be 07       		.byte	0x7
 840 04bf 95040000 		.long	0x495
GAS LISTING C:\Users\PRESID~1\AppData\Local\Temp\ccPzc4yS.s 			page 20


 841 04c3 05       		.uleb128 0x5
 842 04c4 03       		.byte	0x3
 843 04c5 00000000 		.long	_FILE_HANDLER_POOL_USED
 844 04c9 09       		.uleb128 0x9
 845 04ca AA020000 		.long	0x2aa
 846 04ce D9040000 		.long	0x4d9
 847 04d2 0A       		.uleb128 0xa
 848 04d3 17020000 		.long	0x217
 849 04d7 04       		.byte	0x4
 850 04d8 00       		.byte	0
 851 04d9 15       		.uleb128 0x15
 852 04da 46494C45 		.ascii "FILE_HANDLER_POOL\0"
 852      5F48414E 
 852      444C4552 
 852      5F504F4F 
 852      4C00
 853 04ec 01       		.byte	0x1
 854 04ed 06       		.byte	0x6
 855 04ee C9040000 		.long	0x4c9
 856 04f2 05       		.uleb128 0x5
 857 04f3 03       		.byte	0x3
 858 04f4 00000000 		.long	_FILE_HANDLER_POOL
 859 04f8 00       		.byte	0
 860              		.section	.debug_abbrev,"dr"
 861              	Ldebug_abbrev0:
 862 0000 01       		.uleb128 0x1
 863 0001 11       		.uleb128 0x11
 864 0002 01       		.byte	0x1
 865 0003 25       		.uleb128 0x25
 866 0004 08       		.uleb128 0x8
 867 0005 13       		.uleb128 0x13
 868 0006 0B       		.uleb128 0xb
 869 0007 03       		.uleb128 0x3
 870 0008 08       		.uleb128 0x8
 871 0009 11       		.uleb128 0x11
 872 000a 01       		.uleb128 0x1
 873 000b 12       		.uleb128 0x12
 874 000c 06       		.uleb128 0x6
 875 000d 10       		.uleb128 0x10
 876 000e 17       		.uleb128 0x17
 877 000f 9942     		.uleb128 0x2119
 878 0011 17       		.uleb128 0x17
 879 0012 00       		.byte	0
 880 0013 00       		.byte	0
 881 0014 02       		.uleb128 0x2
 882 0015 16       		.uleb128 0x16
 883 0016 00       		.byte	0
 884 0017 03       		.uleb128 0x3
 885 0018 08       		.uleb128 0x8
 886 0019 3A       		.uleb128 0x3a
 887 001a 0B       		.uleb128 0xb
 888 001b 3B       		.uleb128 0x3b
 889 001c 0B       		.uleb128 0xb
 890 001d 49       		.uleb128 0x49
 891 001e 13       		.uleb128 0x13
 892 001f 00       		.byte	0
 893 0020 00       		.byte	0
GAS LISTING C:\Users\PRESID~1\AppData\Local\Temp\ccPzc4yS.s 			page 21


 894 0021 03       		.uleb128 0x3
 895 0022 24       		.uleb128 0x24
 896 0023 00       		.byte	0
 897 0024 0B       		.uleb128 0xb
 898 0025 0B       		.uleb128 0xb
 899 0026 3E       		.uleb128 0x3e
 900 0027 0B       		.uleb128 0xb
 901 0028 03       		.uleb128 0x3
 902 0029 08       		.uleb128 0x8
 903 002a 00       		.byte	0
 904 002b 00       		.byte	0
 905 002c 04       		.uleb128 0x4
 906 002d 0F       		.uleb128 0xf
 907 002e 00       		.byte	0
 908 002f 0B       		.uleb128 0xb
 909 0030 0B       		.uleb128 0xb
 910 0031 00       		.byte	0
 911 0032 00       		.byte	0
 912 0033 05       		.uleb128 0x5
 913 0034 13       		.uleb128 0x13
 914 0035 01       		.byte	0x1
 915 0036 03       		.uleb128 0x3
 916 0037 08       		.uleb128 0x8
 917 0038 0B       		.uleb128 0xb
 918 0039 05       		.uleb128 0x5
 919 003a 3A       		.uleb128 0x3a
 920 003b 0B       		.uleb128 0xb
 921 003c 3B       		.uleb128 0x3b
 922 003d 0B       		.uleb128 0xb
 923 003e 01       		.uleb128 0x1
 924 003f 13       		.uleb128 0x13
 925 0040 00       		.byte	0
 926 0041 00       		.byte	0
 927 0042 06       		.uleb128 0x6
 928 0043 0D       		.uleb128 0xd
 929 0044 00       		.byte	0
 930 0045 03       		.uleb128 0x3
 931 0046 08       		.uleb128 0x8
 932 0047 3A       		.uleb128 0x3a
 933 0048 0B       		.uleb128 0xb
 934 0049 3B       		.uleb128 0x3b
 935 004a 0B       		.uleb128 0xb
 936 004b 49       		.uleb128 0x49
 937 004c 13       		.uleb128 0x13
 938 004d 0B       		.uleb128 0xb
 939 004e 0B       		.uleb128 0xb
 940 004f 0D       		.uleb128 0xd
 941 0050 0B       		.uleb128 0xb
 942 0051 0C       		.uleb128 0xc
 943 0052 0B       		.uleb128 0xb
 944 0053 38       		.uleb128 0x38
 945 0054 0B       		.uleb128 0xb
 946 0055 00       		.byte	0
 947 0056 00       		.byte	0
 948 0057 07       		.uleb128 0x7
 949 0058 0D       		.uleb128 0xd
 950 0059 00       		.byte	0
GAS LISTING C:\Users\PRESID~1\AppData\Local\Temp\ccPzc4yS.s 			page 22


 951 005a 03       		.uleb128 0x3
 952 005b 08       		.uleb128 0x8
 953 005c 3A       		.uleb128 0x3a
 954 005d 0B       		.uleb128 0xb
 955 005e 3B       		.uleb128 0x3b
 956 005f 0B       		.uleb128 0xb
 957 0060 49       		.uleb128 0x49
 958 0061 13       		.uleb128 0x13
 959 0062 38       		.uleb128 0x38
 960 0063 0B       		.uleb128 0xb
 961 0064 00       		.byte	0
 962 0065 00       		.byte	0
 963 0066 08       		.uleb128 0x8
 964 0067 0D       		.uleb128 0xd
 965 0068 00       		.byte	0
 966 0069 03       		.uleb128 0x3
 967 006a 08       		.uleb128 0x8
 968 006b 3A       		.uleb128 0x3a
 969 006c 0B       		.uleb128 0xb
 970 006d 3B       		.uleb128 0x3b
 971 006e 0B       		.uleb128 0xb
 972 006f 49       		.uleb128 0x49
 973 0070 13       		.uleb128 0x13
 974 0071 38       		.uleb128 0x38
 975 0072 05       		.uleb128 0x5
 976 0073 00       		.byte	0
 977 0074 00       		.byte	0
 978 0075 09       		.uleb128 0x9
 979 0076 01       		.uleb128 0x1
 980 0077 01       		.byte	0x1
 981 0078 49       		.uleb128 0x49
 982 0079 13       		.uleb128 0x13
 983 007a 01       		.uleb128 0x1
 984 007b 13       		.uleb128 0x13
 985 007c 00       		.byte	0
 986 007d 00       		.byte	0
 987 007e 0A       		.uleb128 0xa
 988 007f 21       		.uleb128 0x21
 989 0080 00       		.byte	0
 990 0081 49       		.uleb128 0x49
 991 0082 13       		.uleb128 0x13
 992 0083 2F       		.uleb128 0x2f
 993 0084 0B       		.uleb128 0xb
 994 0085 00       		.byte	0
 995 0086 00       		.byte	0
 996 0087 0B       		.uleb128 0xb
 997 0088 0F       		.uleb128 0xf
 998 0089 00       		.byte	0
 999 008a 0B       		.uleb128 0xb
 1000 008b 0B       		.uleb128 0xb
 1001 008c 49       		.uleb128 0x49
 1002 008d 13       		.uleb128 0x13
 1003 008e 00       		.byte	0
 1004 008f 00       		.byte	0
 1005 0090 0C       		.uleb128 0xc
 1006 0091 2E       		.uleb128 0x2e
 1007 0092 01       		.byte	0x1
GAS LISTING C:\Users\PRESID~1\AppData\Local\Temp\ccPzc4yS.s 			page 23


 1008 0093 03       		.uleb128 0x3
 1009 0094 08       		.uleb128 0x8
 1010 0095 3A       		.uleb128 0x3a
 1011 0096 0B       		.uleb128 0xb
 1012 0097 3B       		.uleb128 0x3b
 1013 0098 0B       		.uleb128 0xb
 1014 0099 27       		.uleb128 0x27
 1015 009a 19       		.uleb128 0x19
 1016 009b 49       		.uleb128 0x49
 1017 009c 13       		.uleb128 0x13
 1018 009d 11       		.uleb128 0x11
 1019 009e 01       		.uleb128 0x1
 1020 009f 12       		.uleb128 0x12
 1021 00a0 06       		.uleb128 0x6
 1022 00a1 40       		.uleb128 0x40
 1023 00a2 18       		.uleb128 0x18
 1024 00a3 9742     		.uleb128 0x2117
 1025 00a5 19       		.uleb128 0x19
 1026 00a6 01       		.uleb128 0x1
 1027 00a7 13       		.uleb128 0x13
 1028 00a8 00       		.byte	0
 1029 00a9 00       		.byte	0
 1030 00aa 0D       		.uleb128 0xd
 1031 00ab 05       		.uleb128 0x5
 1032 00ac 00       		.byte	0
 1033 00ad 03       		.uleb128 0x3
 1034 00ae 0E       		.uleb128 0xe
 1035 00af 3A       		.uleb128 0x3a
 1036 00b0 0B       		.uleb128 0xb
 1037 00b1 3B       		.uleb128 0x3b
 1038 00b2 0B       		.uleb128 0xb
 1039 00b3 49       		.uleb128 0x49
 1040 00b4 13       		.uleb128 0x13
 1041 00b5 02       		.uleb128 0x2
 1042 00b6 18       		.uleb128 0x18
 1043 00b7 00       		.byte	0
 1044 00b8 00       		.byte	0
 1045 00b9 0E       		.uleb128 0xe
 1046 00ba 05       		.uleb128 0x5
 1047 00bb 00       		.byte	0
 1048 00bc 03       		.uleb128 0x3
 1049 00bd 08       		.uleb128 0x8
 1050 00be 3A       		.uleb128 0x3a
 1051 00bf 0B       		.uleb128 0xb
 1052 00c0 3B       		.uleb128 0x3b
 1053 00c1 0B       		.uleb128 0xb
 1054 00c2 49       		.uleb128 0x49
 1055 00c3 13       		.uleb128 0x13
 1056 00c4 02       		.uleb128 0x2
 1057 00c5 18       		.uleb128 0x18
 1058 00c6 00       		.byte	0
 1059 00c7 00       		.byte	0
 1060 00c8 0F       		.uleb128 0xf
 1061 00c9 34       		.uleb128 0x34
 1062 00ca 00       		.byte	0
 1063 00cb 03       		.uleb128 0x3
 1064 00cc 08       		.uleb128 0x8
GAS LISTING C:\Users\PRESID~1\AppData\Local\Temp\ccPzc4yS.s 			page 24


 1065 00cd 3A       		.uleb128 0x3a
 1066 00ce 0B       		.uleb128 0xb
 1067 00cf 3B       		.uleb128 0x3b
 1068 00d0 0B       		.uleb128 0xb
 1069 00d1 49       		.uleb128 0x49
 1070 00d2 13       		.uleb128 0x13
 1071 00d3 02       		.uleb128 0x2
 1072 00d4 18       		.uleb128 0x18
 1073 00d5 00       		.byte	0
 1074 00d6 00       		.byte	0
 1075 00d7 10       		.uleb128 0x10
 1076 00d8 34       		.uleb128 0x34
 1077 00d9 00       		.byte	0
 1078 00da 03       		.uleb128 0x3
 1079 00db 0E       		.uleb128 0xe
 1080 00dc 3A       		.uleb128 0x3a
 1081 00dd 0B       		.uleb128 0xb
 1082 00de 3B       		.uleb128 0x3b
 1083 00df 0B       		.uleb128 0xb
 1084 00e0 49       		.uleb128 0x49
 1085 00e1 13       		.uleb128 0x13
 1086 00e2 02       		.uleb128 0x2
 1087 00e3 18       		.uleb128 0x18
 1088 00e4 00       		.byte	0
 1089 00e5 00       		.byte	0
 1090 00e6 11       		.uleb128 0x11
 1091 00e7 26       		.uleb128 0x26
 1092 00e8 00       		.byte	0
 1093 00e9 49       		.uleb128 0x49
 1094 00ea 13       		.uleb128 0x13
 1095 00eb 00       		.byte	0
 1096 00ec 00       		.byte	0
 1097 00ed 12       		.uleb128 0x12
 1098 00ee 2E       		.uleb128 0x2e
 1099 00ef 01       		.byte	0x1
 1100 00f0 3F       		.uleb128 0x3f
 1101 00f1 19       		.uleb128 0x19
 1102 00f2 03       		.uleb128 0x3
 1103 00f3 08       		.uleb128 0x8
 1104 00f4 3A       		.uleb128 0x3a
 1105 00f5 0B       		.uleb128 0xb
 1106 00f6 3B       		.uleb128 0x3b
 1107 00f7 0B       		.uleb128 0xb
 1108 00f8 27       		.uleb128 0x27
 1109 00f9 19       		.uleb128 0x19
 1110 00fa 49       		.uleb128 0x49
 1111 00fb 13       		.uleb128 0x13
 1112 00fc 11       		.uleb128 0x11
 1113 00fd 01       		.uleb128 0x1
 1114 00fe 12       		.uleb128 0x12
 1115 00ff 06       		.uleb128 0x6
 1116 0100 40       		.uleb128 0x40
 1117 0101 18       		.uleb128 0x18
 1118 0102 9642     		.uleb128 0x2116
 1119 0104 19       		.uleb128 0x19
 1120 0105 01       		.uleb128 0x1
 1121 0106 13       		.uleb128 0x13
GAS LISTING C:\Users\PRESID~1\AppData\Local\Temp\ccPzc4yS.s 			page 25


 1122 0107 00       		.byte	0
 1123 0108 00       		.byte	0
 1124 0109 13       		.uleb128 0x13
 1125 010a 2E       		.uleb128 0x2e
 1126 010b 01       		.byte	0x1
 1127 010c 3F       		.uleb128 0x3f
 1128 010d 19       		.uleb128 0x19
 1129 010e 03       		.uleb128 0x3
 1130 010f 08       		.uleb128 0x8
 1131 0110 3A       		.uleb128 0x3a
 1132 0111 0B       		.uleb128 0xb
 1133 0112 3B       		.uleb128 0x3b
 1134 0113 0B       		.uleb128 0xb
 1135 0114 27       		.uleb128 0x27
 1136 0115 19       		.uleb128 0x19
 1137 0116 49       		.uleb128 0x49
 1138 0117 13       		.uleb128 0x13
 1139 0118 11       		.uleb128 0x11
 1140 0119 01       		.uleb128 0x1
 1141 011a 12       		.uleb128 0x12
 1142 011b 06       		.uleb128 0x6
 1143 011c 40       		.uleb128 0x40
 1144 011d 18       		.uleb128 0x18
 1145 011e 9742     		.uleb128 0x2117
 1146 0120 19       		.uleb128 0x19
 1147 0121 01       		.uleb128 0x1
 1148 0122 13       		.uleb128 0x13
 1149 0123 00       		.byte	0
 1150 0124 00       		.byte	0
 1151 0125 14       		.uleb128 0x14
 1152 0126 26       		.uleb128 0x26
 1153 0127 00       		.byte	0
 1154 0128 00       		.byte	0
 1155 0129 00       		.byte	0
 1156 012a 15       		.uleb128 0x15
 1157 012b 34       		.uleb128 0x34
 1158 012c 00       		.byte	0
 1159 012d 03       		.uleb128 0x3
 1160 012e 08       		.uleb128 0x8
 1161 012f 3A       		.uleb128 0x3a
 1162 0130 0B       		.uleb128 0xb
 1163 0131 3B       		.uleb128 0x3b
 1164 0132 0B       		.uleb128 0xb
 1165 0133 49       		.uleb128 0x49
 1166 0134 13       		.uleb128 0x13
 1167 0135 3F       		.uleb128 0x3f
 1168 0136 19       		.uleb128 0x19
 1169 0137 02       		.uleb128 0x2
 1170 0138 18       		.uleb128 0x18
 1171 0139 00       		.byte	0
 1172 013a 00       		.byte	0
 1173 013b 00       		.byte	0
 1174              		.section	.debug_aranges,"dr"
 1175 0000 1C000000 		.long	0x1c
 1176 0004 0200     		.word	0x2
 1177 0006 00000000 		.secrel32	Ldebug_info0
 1178 000a 04       		.byte	0x4
GAS LISTING C:\Users\PRESID~1\AppData\Local\Temp\ccPzc4yS.s 			page 26


 1179 000b 00       		.byte	0
 1180 000c 0000     		.word	0
 1181 000e 0000     		.word	0
 1182 0010 00000000 		.long	Ltext0
 1183 0014 09020000 		.long	Letext0-Ltext0
 1184 0018 00000000 		.long	0
 1185 001c 00000000 		.long	0
 1186              		.section	.debug_macro,"dr"
 1187              	Ldebug_macro0:
 1188 0000 0400     		.word	0x4
 1189 0002 02       		.byte	0x2
 1190 0003 00000000 		.secrel32	Ldebug_line0
 1191 0007 01       		.byte	0x1
 1192 0008 00       		.uleb128 0
 1193 0009 5F5F5354 		.ascii "__STDC__ 1\0"
 1193      44435F5F 
 1193      203100
 1194 0014 01       		.byte	0x1
 1195 0015 00       		.uleb128 0
 1196 0016 5F5F5354 		.ascii "__STDC_HOSTED__ 1\0"
 1196      44435F48 
 1196      4F535445 
 1196      445F5F20 
 1196      3100
 1197 0028 01       		.byte	0x1
 1198 0029 00       		.uleb128 0
 1199 002a 5F5F474E 		.ascii "__GNUC__ 4\0"
 1199      55435F5F 
 1199      203400
 1200 0035 01       		.byte	0x1
 1201 0036 00       		.uleb128 0
 1202 0037 5F5F474E 		.ascii "__GNUC_MINOR__ 9\0"
 1202      55435F4D 
 1202      494E4F52 
 1202      5F5F2039 
 1202      00
 1203 0048 01       		.byte	0x1
 1204 0049 00       		.uleb128 0
 1205 004a 5F5F474E 		.ascii "__GNUC_PATCHLEVEL__ 3\0"
 1205      55435F50 
 1205      41544348 
 1205      4C455645 
 1205      4C5F5F20 
 1206 0060 01       		.byte	0x1
 1207 0061 00       		.uleb128 0
 1208 0062 5F5F5645 		.ascii "__VERSION__ \"4.9.3\"\0"
 1208      5253494F 
 1208      4E5F5F20 
 1208      22342E39 
 1208      2E332200 
 1209 0076 01       		.byte	0x1
 1210 0077 00       		.uleb128 0
 1211 0078 5F5F4154 		.ascii "__ATOMIC_RELAXED 0\0"
 1211      4F4D4943 
 1211      5F52454C 
 1211      41584544 
 1211      203000
GAS LISTING C:\Users\PRESID~1\AppData\Local\Temp\ccPzc4yS.s 			page 27


 1212 008b 01       		.byte	0x1
 1213 008c 00       		.uleb128 0
 1214 008d 5F5F4154 		.ascii "__ATOMIC_SEQ_CST 5\0"
 1214      4F4D4943 
 1214      5F534551 
 1214      5F435354 
 1214      203500
 1215 00a0 01       		.byte	0x1
 1216 00a1 00       		.uleb128 0
 1217 00a2 5F5F4154 		.ascii "__ATOMIC_ACQUIRE 2\0"
 1217      4F4D4943 
 1217      5F414351 
 1217      55495245 
 1217      203200
 1218 00b5 01       		.byte	0x1
 1219 00b6 00       		.uleb128 0
 1220 00b7 5F5F4154 		.ascii "__ATOMIC_RELEASE 3\0"
 1220      4F4D4943 
 1220      5F52454C 
 1220      45415345 
 1220      203300
 1221 00ca 01       		.byte	0x1
 1222 00cb 00       		.uleb128 0
 1223 00cc 5F5F4154 		.ascii "__ATOMIC_ACQ_REL 4\0"
 1223      4F4D4943 
 1223      5F414351 
 1223      5F52454C 
 1223      203400
 1224 00df 01       		.byte	0x1
 1225 00e0 00       		.uleb128 0
 1226 00e1 5F5F4154 		.ascii "__ATOMIC_CONSUME 1\0"
 1226      4F4D4943 
 1226      5F434F4E 
 1226      53554D45 
 1226      203100
 1227 00f4 01       		.byte	0x1
 1228 00f5 00       		.uleb128 0
 1229 00f6 5F5F4649 		.ascii "__FINITE_MATH_ONLY__ 0\0"
 1229      4E495445 
 1229      5F4D4154 
 1229      485F4F4E 
 1229      4C595F5F 
 1230 010d 01       		.byte	0x1
 1231 010e 00       		.uleb128 0
 1232 010f 5F5F5349 		.ascii "__SIZEOF_INT__ 4\0"
 1232      5A454F46 
 1232      5F494E54 
 1232      5F5F2034 
 1232      00
 1233 0120 01       		.byte	0x1
 1234 0121 00       		.uleb128 0
 1235 0122 5F5F5349 		.ascii "__SIZEOF_LONG__ 4\0"
 1235      5A454F46 
 1235      5F4C4F4E 
 1235      475F5F20 
 1235      3400
 1236 0134 01       		.byte	0x1
GAS LISTING C:\Users\PRESID~1\AppData\Local\Temp\ccPzc4yS.s 			page 28


 1237 0135 00       		.uleb128 0
 1238 0136 5F5F5349 		.ascii "__SIZEOF_LONG_LONG__ 8\0"
 1238      5A454F46 
 1238      5F4C4F4E 
 1238      475F4C4F 
 1238      4E475F5F 
 1239 014d 01       		.byte	0x1
 1240 014e 00       		.uleb128 0
 1241 014f 5F5F5349 		.ascii "__SIZEOF_SHORT__ 2\0"
 1241      5A454F46 
 1241      5F53484F 
 1241      52545F5F 
 1241      203200
 1242 0162 01       		.byte	0x1
 1243 0163 00       		.uleb128 0
 1244 0164 5F5F5349 		.ascii "__SIZEOF_FLOAT__ 4\0"
 1244      5A454F46 
 1244      5F464C4F 
 1244      41545F5F 
 1244      203400
 1245 0177 01       		.byte	0x1
 1246 0178 00       		.uleb128 0
 1247 0179 5F5F5349 		.ascii "__SIZEOF_DOUBLE__ 8\0"
 1247      5A454F46 
 1247      5F444F55 
 1247      424C455F 
 1247      5F203800 
 1248 018d 01       		.byte	0x1
 1249 018e 00       		.uleb128 0
 1250 018f 5F5F5349 		.ascii "__SIZEOF_LONG_DOUBLE__ 12\0"
 1250      5A454F46 
 1250      5F4C4F4E 
 1250      475F444F 
 1250      55424C45 
 1251 01a9 01       		.byte	0x1
 1252 01aa 00       		.uleb128 0
 1253 01ab 5F5F5349 		.ascii "__SIZEOF_SIZE_T__ 4\0"
 1253      5A454F46 
 1253      5F53495A 
 1253      455F545F 
 1253      5F203400 
 1254 01bf 01       		.byte	0x1
 1255 01c0 00       		.uleb128 0
 1256 01c1 5F5F4348 		.ascii "__CHAR_BIT__ 8\0"
 1256      41525F42 
 1256      49545F5F 
 1256      203800
 1257 01d0 01       		.byte	0x1
 1258 01d1 00       		.uleb128 0
 1259 01d2 5F5F4249 		.ascii "__BIGGEST_ALIGNMENT__ 16\0"
 1259      47474553 
 1259      545F414C 
 1259      49474E4D 
 1259      454E545F 
 1260 01eb 01       		.byte	0x1
 1261 01ec 00       		.uleb128 0
 1262 01ed 5F5F4F52 		.ascii "__ORDER_LITTLE_ENDIAN__ 1234\0"
GAS LISTING C:\Users\PRESID~1\AppData\Local\Temp\ccPzc4yS.s 			page 29


 1262      4445525F 
 1262      4C495454 
 1262      4C455F45 
 1262      4E444941 
 1263 020a 01       		.byte	0x1
 1264 020b 00       		.uleb128 0
 1265 020c 5F5F4F52 		.ascii "__ORDER_BIG_ENDIAN__ 4321\0"
 1265      4445525F 
 1265      4249475F 
 1265      454E4449 
 1265      414E5F5F 
 1266 0226 01       		.byte	0x1
 1267 0227 00       		.uleb128 0
 1268 0228 5F5F4F52 		.ascii "__ORDER_PDP_ENDIAN__ 3412\0"
 1268      4445525F 
 1268      5044505F 
 1268      454E4449 
 1268      414E5F5F 
 1269 0242 01       		.byte	0x1
 1270 0243 00       		.uleb128 0
 1271 0244 5F5F4259 		.ascii "__BYTE_ORDER__ __ORDER_LITTLE_ENDIAN__\0"
 1271      54455F4F 
 1271      52444552 
 1271      5F5F205F 
 1271      5F4F5244 
 1272 026b 01       		.byte	0x1
 1273 026c 00       		.uleb128 0
 1274 026d 5F5F464C 		.ascii "__FLOAT_WORD_ORDER__ __ORDER_LITTLE_ENDIAN__\0"
 1274      4F41545F 
 1274      574F5244 
 1274      5F4F5244 
 1274      45525F5F 
 1275 029a 01       		.byte	0x1
 1276 029b 00       		.uleb128 0
 1277 029c 5F5F5349 		.ascii "__SIZEOF_POINTER__ 4\0"
 1277      5A454F46 
 1277      5F504F49 
 1277      4E544552 
 1277      5F5F2034 
 1278 02b1 01       		.byte	0x1
 1279 02b2 00       		.uleb128 0
 1280 02b3 5F5F5349 		.ascii "__SIZE_TYPE__ unsigned int\0"
 1280      5A455F54 
 1280      5950455F 
 1280      5F20756E 
 1280      7369676E 
 1281 02ce 01       		.byte	0x1
 1282 02cf 00       		.uleb128 0
 1283 02d0 5F5F5054 		.ascii "__PTRDIFF_TYPE__ int\0"
 1283      52444946 
 1283      465F5459 
 1283      50455F5F 
 1283      20696E74 
 1284 02e5 01       		.byte	0x1
 1285 02e6 00       		.uleb128 0
 1286 02e7 5F5F5743 		.ascii "__WCHAR_TYPE__ short unsigned int\0"
 1286      4841525F 
GAS LISTING C:\Users\PRESID~1\AppData\Local\Temp\ccPzc4yS.s 			page 30


 1286      54595045 
 1286      5F5F2073 
 1286      686F7274 
 1287 0309 01       		.byte	0x1
 1288 030a 00       		.uleb128 0
 1289 030b 5F5F5749 		.ascii "__WINT_TYPE__ short unsigned int\0"
 1289      4E545F54 
 1289      5950455F 
 1289      5F207368 
 1289      6F727420 
 1290 032c 01       		.byte	0x1
 1291 032d 00       		.uleb128 0
 1292 032e 5F5F494E 		.ascii "__INTMAX_TYPE__ long long int\0"
 1292      544D4158 
 1292      5F545950 
 1292      455F5F20 
 1292      6C6F6E67 
 1293 034c 01       		.byte	0x1
 1294 034d 00       		.uleb128 0
 1295 034e 5F5F5549 		.ascii "__UINTMAX_TYPE__ long long unsigned int\0"
 1295      4E544D41 
 1295      585F5459 
 1295      50455F5F 
 1295      206C6F6E 
 1296 0376 01       		.byte	0x1
 1297 0377 00       		.uleb128 0
 1298 0378 5F5F4348 		.ascii "__CHAR16_TYPE__ short unsigned int\0"
 1298      41523136 
 1298      5F545950 
 1298      455F5F20 
 1298      73686F72 
 1299 039b 01       		.byte	0x1
 1300 039c 00       		.uleb128 0
 1301 039d 5F5F4348 		.ascii "__CHAR32_TYPE__ unsigned int\0"
 1301      41523332 
 1301      5F545950 
 1301      455F5F20 
 1301      756E7369 
 1302 03ba 01       		.byte	0x1
 1303 03bb 00       		.uleb128 0
 1304 03bc 5F5F5349 		.ascii "__SIG_ATOMIC_TYPE__ int\0"
 1304      475F4154 
 1304      4F4D4943 
 1304      5F545950 
 1304      455F5F20 
 1305 03d4 01       		.byte	0x1
 1306 03d5 00       		.uleb128 0
 1307 03d6 5F5F494E 		.ascii "__INT8_TYPE__ signed char\0"
 1307      54385F54 
 1307      5950455F 
 1307      5F207369 
 1307      676E6564 
 1308 03f0 01       		.byte	0x1
 1309 03f1 00       		.uleb128 0
 1310 03f2 5F5F494E 		.ascii "__INT16_TYPE__ short int\0"
 1310      5431365F 
 1310      54595045 
GAS LISTING C:\Users\PRESID~1\AppData\Local\Temp\ccPzc4yS.s 			page 31


 1310      5F5F2073 
 1310      686F7274 
 1311 040b 01       		.byte	0x1
 1312 040c 00       		.uleb128 0
 1313 040d 5F5F494E 		.ascii "__INT32_TYPE__ int\0"
 1313      5433325F 
 1313      54595045 
 1313      5F5F2069 
 1313      6E7400
 1314 0420 01       		.byte	0x1
 1315 0421 00       		.uleb128 0
 1316 0422 5F5F494E 		.ascii "__INT64_TYPE__ long long int\0"
 1316      5436345F 
 1316      54595045 
 1316      5F5F206C 
 1316      6F6E6720 
 1317 043f 01       		.byte	0x1
 1318 0440 00       		.uleb128 0
 1319 0441 5F5F5549 		.ascii "__UINT8_TYPE__ unsigned char\0"
 1319      4E54385F 
 1319      54595045 
 1319      5F5F2075 
 1319      6E736967 
 1320 045e 01       		.byte	0x1
 1321 045f 00       		.uleb128 0
 1322 0460 5F5F5549 		.ascii "__UINT16_TYPE__ short unsigned int\0"
 1322      4E543136 
 1322      5F545950 
 1322      455F5F20 
 1322      73686F72 
 1323 0483 01       		.byte	0x1
 1324 0484 00       		.uleb128 0
 1325 0485 5F5F5549 		.ascii "__UINT32_TYPE__ unsigned int\0"
 1325      4E543332 
 1325      5F545950 
 1325      455F5F20 
 1325      756E7369 
 1326 04a2 01       		.byte	0x1
 1327 04a3 00       		.uleb128 0
 1328 04a4 5F5F5549 		.ascii "__UINT64_TYPE__ long long unsigned int\0"
 1328      4E543634 
 1328      5F545950 
 1328      455F5F20 
 1328      6C6F6E67 
 1329 04cb 01       		.byte	0x1
 1330 04cc 00       		.uleb128 0
 1331 04cd 5F5F494E 		.ascii "__INT_LEAST8_TYPE__ signed char\0"
 1331      545F4C45 
 1331      41535438 
 1331      5F545950 
 1331      455F5F20 
 1332 04ed 01       		.byte	0x1
 1333 04ee 00       		.uleb128 0
 1334 04ef 5F5F494E 		.ascii "__INT_LEAST16_TYPE__ short int\0"
 1334      545F4C45 
 1334      41535431 
 1334      365F5459 
GAS LISTING C:\Users\PRESID~1\AppData\Local\Temp\ccPzc4yS.s 			page 32


 1334      50455F5F 
 1335 050e 01       		.byte	0x1
 1336 050f 00       		.uleb128 0
 1337 0510 5F5F494E 		.ascii "__INT_LEAST32_TYPE__ int\0"
 1337      545F4C45 
 1337      41535433 
 1337      325F5459 
 1337      50455F5F 
 1338 0529 01       		.byte	0x1
 1339 052a 00       		.uleb128 0
 1340 052b 5F5F494E 		.ascii "__INT_LEAST64_TYPE__ long long int\0"
 1340      545F4C45 
 1340      41535436 
 1340      345F5459 
 1340      50455F5F 
 1341 054e 01       		.byte	0x1
 1342 054f 00       		.uleb128 0
 1343 0550 5F5F5549 		.ascii "__UINT_LEAST8_TYPE__ unsigned char\0"
 1343      4E545F4C 
 1343      45415354 
 1343      385F5459 
 1343      50455F5F 
 1344 0573 01       		.byte	0x1
 1345 0574 00       		.uleb128 0
 1346 0575 5F5F5549 		.ascii "__UINT_LEAST16_TYPE__ short unsigned int\0"
 1346      4E545F4C 
 1346      45415354 
 1346      31365F54 
 1346      5950455F 
 1347 059e 01       		.byte	0x1
 1348 059f 00       		.uleb128 0
 1349 05a0 5F5F5549 		.ascii "__UINT_LEAST32_TYPE__ unsigned int\0"
 1349      4E545F4C 
 1349      45415354 
 1349      33325F54 
 1349      5950455F 
 1350 05c3 01       		.byte	0x1
 1351 05c4 00       		.uleb128 0
 1352 05c5 5F5F5549 		.ascii "__UINT_LEAST64_TYPE__ long long unsigned int\0"
 1352      4E545F4C 
 1352      45415354 
 1352      36345F54 
 1352      5950455F 
 1353 05f2 01       		.byte	0x1
 1354 05f3 00       		.uleb128 0
 1355 05f4 5F5F494E 		.ascii "__INT_FAST8_TYPE__ signed char\0"
 1355      545F4641 
 1355      5354385F 
 1355      54595045 
 1355      5F5F2073 
 1356 0613 01       		.byte	0x1
 1357 0614 00       		.uleb128 0
 1358 0615 5F5F494E 		.ascii "__INT_FAST16_TYPE__ short int\0"
 1358      545F4641 
 1358      53543136 
 1358      5F545950 
 1358      455F5F20 
GAS LISTING C:\Users\PRESID~1\AppData\Local\Temp\ccPzc4yS.s 			page 33


 1359 0633 01       		.byte	0x1
 1360 0634 00       		.uleb128 0
 1361 0635 5F5F494E 		.ascii "__INT_FAST32_TYPE__ int\0"
 1361      545F4641 
 1361      53543332 
 1361      5F545950 
 1361      455F5F20 
 1362 064d 01       		.byte	0x1
 1363 064e 00       		.uleb128 0
 1364 064f 5F5F494E 		.ascii "__INT_FAST64_TYPE__ long long int\0"
 1364      545F4641 
 1364      53543634 
 1364      5F545950 
 1364      455F5F20 
 1365 0671 01       		.byte	0x1
 1366 0672 00       		.uleb128 0
 1367 0673 5F5F5549 		.ascii "__UINT_FAST8_TYPE__ unsigned char\0"
 1367      4E545F46 
 1367      41535438 
 1367      5F545950 
 1367      455F5F20 
 1368 0695 01       		.byte	0x1
 1369 0696 00       		.uleb128 0
 1370 0697 5F5F5549 		.ascii "__UINT_FAST16_TYPE__ short unsigned int\0"
 1370      4E545F46 
 1370      41535431 
 1370      365F5459 
 1370      50455F5F 
 1371 06bf 01       		.byte	0x1
 1372 06c0 00       		.uleb128 0
 1373 06c1 5F5F5549 		.ascii "__UINT_FAST32_TYPE__ unsigned int\0"
 1373      4E545F46 
 1373      41535433 
 1373      325F5459 
 1373      50455F5F 
 1374 06e3 01       		.byte	0x1
 1375 06e4 00       		.uleb128 0
 1376 06e5 5F5F5549 		.ascii "__UINT_FAST64_TYPE__ long long unsigned int\0"
 1376      4E545F46 
 1376      41535436 
 1376      345F5459 
 1376      50455F5F 
 1377 0711 01       		.byte	0x1
 1378 0712 00       		.uleb128 0
 1379 0713 5F5F494E 		.ascii "__INTPTR_TYPE__ int\0"
 1379      54505452 
 1379      5F545950 
 1379      455F5F20 
 1379      696E7400 
 1380 0727 01       		.byte	0x1
 1381 0728 00       		.uleb128 0
 1382 0729 5F5F5549 		.ascii "__UINTPTR_TYPE__ unsigned int\0"
 1382      4E545054 
 1382      525F5459 
 1382      50455F5F 
 1382      20756E73 
 1383 0747 01       		.byte	0x1
GAS LISTING C:\Users\PRESID~1\AppData\Local\Temp\ccPzc4yS.s 			page 34


 1384 0748 00       		.uleb128 0
 1385 0749 5F5F6861 		.ascii "__has_include(STR) __has_include__(STR)\0"
 1385      735F696E 
 1385      636C7564 
 1385      65285354 
 1385      5229205F 
 1386 0771 01       		.byte	0x1
 1387 0772 00       		.uleb128 0
 1388 0773 5F5F6861 		.ascii "__has_include_next(STR) __has_include_next__(STR)\0"
 1388      735F696E 
 1388      636C7564 
 1388      655F6E65 
 1388      78742853 
 1389 07a5 01       		.byte	0x1
 1390 07a6 00       		.uleb128 0
 1391 07a7 5F5F4758 		.ascii "__GXX_ABI_VERSION 1002\0"
 1391      585F4142 
 1391      495F5645 
 1391      5253494F 
 1391      4E203130 
 1392 07be 01       		.byte	0x1
 1393 07bf 00       		.uleb128 0
 1394 07c0 5F5F5343 		.ascii "__SCHAR_MAX__ 127\0"
 1394      4841525F 
 1394      4D41585F 
 1394      5F203132 
 1394      3700
 1395 07d2 01       		.byte	0x1
 1396 07d3 00       		.uleb128 0
 1397 07d4 5F5F5348 		.ascii "__SHRT_MAX__ 32767\0"
 1397      52545F4D 
 1397      41585F5F 
 1397      20333237 
 1397      363700
 1398 07e7 01       		.byte	0x1
 1399 07e8 00       		.uleb128 0
 1400 07e9 5F5F494E 		.ascii "__INT_MAX__ 2147483647\0"
 1400      545F4D41 
 1400      585F5F20 
 1400      32313437 
 1400      34383336 
 1401 0800 01       		.byte	0x1
 1402 0801 00       		.uleb128 0
 1403 0802 5F5F4C4F 		.ascii "__LONG_MAX__ 2147483647L\0"
 1403      4E475F4D 
 1403      41585F5F 
 1403      20323134 
 1403      37343833 
 1404 081b 01       		.byte	0x1
 1405 081c 00       		.uleb128 0
 1406 081d 5F5F4C4F 		.ascii "__LONG_LONG_MAX__ 9223372036854775807LL\0"
 1406      4E475F4C 
 1406      4F4E475F 
 1406      4D41585F 
 1406      5F203932 
 1407 0845 01       		.byte	0x1
 1408 0846 00       		.uleb128 0
GAS LISTING C:\Users\PRESID~1\AppData\Local\Temp\ccPzc4yS.s 			page 35


 1409 0847 5F5F5743 		.ascii "__WCHAR_MAX__ 65535\0"
 1409      4841525F 
 1409      4D41585F 
 1409      5F203635 
 1409      35333500 
 1410 085b 01       		.byte	0x1
 1411 085c 00       		.uleb128 0
 1412 085d 5F5F5743 		.ascii "__WCHAR_MIN__ 0\0"
 1412      4841525F 
 1412      4D494E5F 
 1412      5F203000 
 1413 086d 01       		.byte	0x1
 1414 086e 00       		.uleb128 0
 1415 086f 5F5F5749 		.ascii "__WINT_MAX__ 65535\0"
 1415      4E545F4D 
 1415      41585F5F 
 1415      20363535 
 1415      333500
 1416 0882 01       		.byte	0x1
 1417 0883 00       		.uleb128 0
 1418 0884 5F5F5749 		.ascii "__WINT_MIN__ 0\0"
 1418      4E545F4D 
 1418      494E5F5F 
 1418      203000
 1419 0893 01       		.byte	0x1
 1420 0894 00       		.uleb128 0
 1421 0895 5F5F5054 		.ascii "__PTRDIFF_MAX__ 2147483647\0"
 1421      52444946 
 1421      465F4D41 
 1421      585F5F20 
 1421      32313437 
 1422 08b0 01       		.byte	0x1
 1423 08b1 00       		.uleb128 0
 1424 08b2 5F5F5349 		.ascii "__SIZE_MAX__ 4294967295U\0"
 1424      5A455F4D 
 1424      41585F5F 
 1424      20343239 
 1424      34393637 
 1425 08cb 01       		.byte	0x1
 1426 08cc 00       		.uleb128 0
 1427 08cd 5F5F494E 		.ascii "__INTMAX_MAX__ 9223372036854775807LL\0"
 1427      544D4158 
 1427      5F4D4158 
 1427      5F5F2039 
 1427      32323333 
 1428 08f2 01       		.byte	0x1
 1429 08f3 00       		.uleb128 0
 1430 08f4 5F5F494E 		.ascii "__INTMAX_C(c) c ## LL\0"
 1430      544D4158 
 1430      5F432863 
 1430      29206320 
 1430      2323204C 
 1431 090a 01       		.byte	0x1
 1432 090b 00       		.uleb128 0
 1433 090c 5F5F5549 		.ascii "__UINTMAX_MAX__ 18446744073709551615ULL\0"
 1433      4E544D41 
 1433      585F4D41 
GAS LISTING C:\Users\PRESID~1\AppData\Local\Temp\ccPzc4yS.s 			page 36


 1433      585F5F20 
 1433      31383434 
 1434 0934 01       		.byte	0x1
 1435 0935 00       		.uleb128 0
 1436 0936 5F5F5549 		.ascii "__UINTMAX_C(c) c ## ULL\0"
 1436      4E544D41 
 1436      585F4328 
 1436      63292063 
 1436      20232320 
 1437 094e 01       		.byte	0x1
 1438 094f 00       		.uleb128 0
 1439 0950 5F5F5349 		.ascii "__SIG_ATOMIC_MAX__ 2147483647\0"
 1439      475F4154 
 1439      4F4D4943 
 1439      5F4D4158 
 1439      5F5F2032 
 1440 096e 01       		.byte	0x1
 1441 096f 00       		.uleb128 0
 1442 0970 5F5F5349 		.ascii "__SIG_ATOMIC_MIN__ (-__SIG_ATOMIC_MAX__ - 1)\0"
 1442      475F4154 
 1442      4F4D4943 
 1442      5F4D494E 
 1442      5F5F2028 
 1443 099d 01       		.byte	0x1
 1444 099e 00       		.uleb128 0
 1445 099f 5F5F494E 		.ascii "__INT8_MAX__ 127\0"
 1445      54385F4D 
 1445      41585F5F 
 1445      20313237 
 1445      00
 1446 09b0 01       		.byte	0x1
 1447 09b1 00       		.uleb128 0
 1448 09b2 5F5F494E 		.ascii "__INT16_MAX__ 32767\0"
 1448      5431365F 
 1448      4D41585F 
 1448      5F203332 
 1448      37363700 
 1449 09c6 01       		.byte	0x1
 1450 09c7 00       		.uleb128 0
 1451 09c8 5F5F494E 		.ascii "__INT32_MAX__ 2147483647\0"
 1451      5433325F 
 1451      4D41585F 
 1451      5F203231 
 1451      34373438 
 1452 09e1 01       		.byte	0x1
 1453 09e2 00       		.uleb128 0
 1454 09e3 5F5F494E 		.ascii "__INT64_MAX__ 9223372036854775807LL\0"
 1454      5436345F 
 1454      4D41585F 
 1454      5F203932 
 1454      32333337 
 1455 0a07 01       		.byte	0x1
 1456 0a08 00       		.uleb128 0
 1457 0a09 5F5F5549 		.ascii "__UINT8_MAX__ 255\0"
 1457      4E54385F 
 1457      4D41585F 
 1457      5F203235 
GAS LISTING C:\Users\PRESID~1\AppData\Local\Temp\ccPzc4yS.s 			page 37


 1457      3500
 1458 0a1b 01       		.byte	0x1
 1459 0a1c 00       		.uleb128 0
 1460 0a1d 5F5F5549 		.ascii "__UINT16_MAX__ 65535\0"
 1460      4E543136 
 1460      5F4D4158 
 1460      5F5F2036 
 1460      35353335 
 1461 0a32 01       		.byte	0x1
 1462 0a33 00       		.uleb128 0
 1463 0a34 5F5F5549 		.ascii "__UINT32_MAX__ 4294967295U\0"
 1463      4E543332 
 1463      5F4D4158 
 1463      5F5F2034 
 1463      32393439 
 1464 0a4f 01       		.byte	0x1
 1465 0a50 00       		.uleb128 0
 1466 0a51 5F5F5549 		.ascii "__UINT64_MAX__ 18446744073709551615ULL\0"
 1466      4E543634 
 1466      5F4D4158 
 1466      5F5F2031 
 1466      38343436 
 1467 0a78 01       		.byte	0x1
 1468 0a79 00       		.uleb128 0
 1469 0a7a 5F5F494E 		.ascii "__INT_LEAST8_MAX__ 127\0"
 1469      545F4C45 
 1469      41535438 
 1469      5F4D4158 
 1469      5F5F2031 
 1470 0a91 01       		.byte	0x1
 1471 0a92 00       		.uleb128 0
 1472 0a93 5F5F494E 		.ascii "__INT8_C(c) c\0"
 1472      54385F43 
 1472      28632920 
 1472      6300
 1473 0aa1 01       		.byte	0x1
 1474 0aa2 00       		.uleb128 0
 1475 0aa3 5F5F494E 		.ascii "__INT_LEAST16_MAX__ 32767\0"
 1475      545F4C45 
 1475      41535431 
 1475      365F4D41 
 1475      585F5F20 
 1476 0abd 01       		.byte	0x1
 1477 0abe 00       		.uleb128 0
 1478 0abf 5F5F494E 		.ascii "__INT16_C(c) c\0"
 1478      5431365F 
 1478      43286329 
 1478      206300
 1479 0ace 01       		.byte	0x1
 1480 0acf 00       		.uleb128 0
 1481 0ad0 5F5F494E 		.ascii "__INT_LEAST32_MAX__ 2147483647\0"
 1481      545F4C45 
 1481      41535433 
 1481      325F4D41 
 1481      585F5F20 
 1482 0aef 01       		.byte	0x1
 1483 0af0 00       		.uleb128 0
GAS LISTING C:\Users\PRESID~1\AppData\Local\Temp\ccPzc4yS.s 			page 38


 1484 0af1 5F5F494E 		.ascii "__INT32_C(c) c\0"
 1484      5433325F 
 1484      43286329 
 1484      206300
 1485 0b00 01       		.byte	0x1
 1486 0b01 00       		.uleb128 0
 1487 0b02 5F5F494E 		.ascii "__INT_LEAST64_MAX__ 9223372036854775807LL\0"
 1487      545F4C45 
 1487      41535436 
 1487      345F4D41 
 1487      585F5F20 
 1488 0b2c 01       		.byte	0x1
 1489 0b2d 00       		.uleb128 0
 1490 0b2e 5F5F494E 		.ascii "__INT64_C(c) c ## LL\0"
 1490      5436345F 
 1490      43286329 
 1490      20632023 
 1490      23204C4C 
 1491 0b43 01       		.byte	0x1
 1492 0b44 00       		.uleb128 0
 1493 0b45 5F5F5549 		.ascii "__UINT_LEAST8_MAX__ 255\0"
 1493      4E545F4C 
 1493      45415354 
 1493      385F4D41 
 1493      585F5F20 
 1494 0b5d 01       		.byte	0x1
 1495 0b5e 00       		.uleb128 0
 1496 0b5f 5F5F5549 		.ascii "__UINT8_C(c) c\0"
 1496      4E54385F 
 1496      43286329 
 1496      206300
 1497 0b6e 01       		.byte	0x1
 1498 0b6f 00       		.uleb128 0
 1499 0b70 5F5F5549 		.ascii "__UINT_LEAST16_MAX__ 65535\0"
 1499      4E545F4C 
 1499      45415354 
 1499      31365F4D 
 1499      41585F5F 
 1500 0b8b 01       		.byte	0x1
 1501 0b8c 00       		.uleb128 0
 1502 0b8d 5F5F5549 		.ascii "__UINT16_C(c) c\0"
 1502      4E543136 
 1502      5F432863 
 1502      29206300 
 1503 0b9d 01       		.byte	0x1
 1504 0b9e 00       		.uleb128 0
 1505 0b9f 5F5F5549 		.ascii "__UINT_LEAST32_MAX__ 4294967295U\0"
 1505      4E545F4C 
 1505      45415354 
 1505      33325F4D 
 1505      41585F5F 
 1506 0bc0 01       		.byte	0x1
 1507 0bc1 00       		.uleb128 0
 1508 0bc2 5F5F5549 		.ascii "__UINT32_C(c) c ## U\0"
 1508      4E543332 
 1508      5F432863 
 1508      29206320 
GAS LISTING C:\Users\PRESID~1\AppData\Local\Temp\ccPzc4yS.s 			page 39


 1508      23232055 
 1509 0bd7 01       		.byte	0x1
 1510 0bd8 00       		.uleb128 0
 1511 0bd9 5F5F5549 		.ascii "__UINT_LEAST64_MAX__ 18446744073709551615ULL\0"
 1511      4E545F4C 
 1511      45415354 
 1511      36345F4D 
 1511      41585F5F 
 1512 0c06 01       		.byte	0x1
 1513 0c07 00       		.uleb128 0
 1514 0c08 5F5F5549 		.ascii "__UINT64_C(c) c ## ULL\0"
 1514      4E543634 
 1514      5F432863 
 1514      29206320 
 1514      23232055 
 1515 0c1f 01       		.byte	0x1
 1516 0c20 00       		.uleb128 0
 1517 0c21 5F5F494E 		.ascii "__INT_FAST8_MAX__ 127\0"
 1517      545F4641 
 1517      5354385F 
 1517      4D41585F 
 1517      5F203132 
 1518 0c37 01       		.byte	0x1
 1519 0c38 00       		.uleb128 0
 1520 0c39 5F5F494E 		.ascii "__INT_FAST16_MAX__ 32767\0"
 1520      545F4641 
 1520      53543136 
 1520      5F4D4158 
 1520      5F5F2033 
 1521 0c52 01       		.byte	0x1
 1522 0c53 00       		.uleb128 0
 1523 0c54 5F5F494E 		.ascii "__INT_FAST32_MAX__ 2147483647\0"
 1523      545F4641 
 1523      53543332 
 1523      5F4D4158 
 1523      5F5F2032 
 1524 0c72 01       		.byte	0x1
 1525 0c73 00       		.uleb128 0
 1526 0c74 5F5F494E 		.ascii "__INT_FAST64_MAX__ 9223372036854775807LL\0"
 1526      545F4641 
 1526      53543634 
 1526      5F4D4158 
 1526      5F5F2039 
 1527 0c9d 01       		.byte	0x1
 1528 0c9e 00       		.uleb128 0
 1529 0c9f 5F5F5549 		.ascii "__UINT_FAST8_MAX__ 255\0"
 1529      4E545F46 
 1529      41535438 
 1529      5F4D4158 
 1529      5F5F2032 
 1530 0cb6 01       		.byte	0x1
 1531 0cb7 00       		.uleb128 0
 1532 0cb8 5F5F5549 		.ascii "__UINT_FAST16_MAX__ 65535\0"
 1532      4E545F46 
 1532      41535431 
 1532      365F4D41 
 1532      585F5F20 
GAS LISTING C:\Users\PRESID~1\AppData\Local\Temp\ccPzc4yS.s 			page 40


 1533 0cd2 01       		.byte	0x1
 1534 0cd3 00       		.uleb128 0
 1535 0cd4 5F5F5549 		.ascii "__UINT_FAST32_MAX__ 4294967295U\0"
 1535      4E545F46 
 1535      41535433 
 1535      325F4D41 
 1535      585F5F20 
 1536 0cf4 01       		.byte	0x1
 1537 0cf5 00       		.uleb128 0
 1538 0cf6 5F5F5549 		.ascii "__UINT_FAST64_MAX__ 18446744073709551615ULL\0"
 1538      4E545F46 
 1538      41535436 
 1538      345F4D41 
 1538      585F5F20 
 1539 0d22 01       		.byte	0x1
 1540 0d23 00       		.uleb128 0
 1541 0d24 5F5F494E 		.ascii "__INTPTR_MAX__ 2147483647\0"
 1541      54505452 
 1541      5F4D4158 
 1541      5F5F2032 
 1541      31343734 
 1542 0d3e 01       		.byte	0x1
 1543 0d3f 00       		.uleb128 0
 1544 0d40 5F5F5549 		.ascii "__UINTPTR_MAX__ 4294967295U\0"
 1544      4E545054 
 1544      525F4D41 
 1544      585F5F20 
 1544      34323934 
 1545 0d5c 01       		.byte	0x1
 1546 0d5d 00       		.uleb128 0
 1547 0d5e 5F5F4743 		.ascii "__GCC_IEC_559 2\0"
 1547      435F4945 
 1547      435F3535 
 1547      39203200 
 1548 0d6e 01       		.byte	0x1
 1549 0d6f 00       		.uleb128 0
 1550 0d70 5F5F4743 		.ascii "__GCC_IEC_559_COMPLEX 2\0"
 1550      435F4945 
 1550      435F3535 
 1550      395F434F 
 1550      4D504C45 
 1551 0d88 01       		.byte	0x1
 1552 0d89 00       		.uleb128 0
 1553 0d8a 5F5F464C 		.ascii "__FLT_EVAL_METHOD__ 2\0"
 1553      545F4556 
 1553      414C5F4D 
 1553      4554484F 
 1553      445F5F20 
 1554 0da0 01       		.byte	0x1
 1555 0da1 00       		.uleb128 0
 1556 0da2 5F5F4445 		.ascii "__DEC_EVAL_METHOD__ 2\0"
 1556      435F4556 
 1556      414C5F4D 
 1556      4554484F 
 1556      445F5F20 
 1557 0db8 01       		.byte	0x1
 1558 0db9 00       		.uleb128 0
GAS LISTING C:\Users\PRESID~1\AppData\Local\Temp\ccPzc4yS.s 			page 41


 1559 0dba 5F5F464C 		.ascii "__FLT_RADIX__ 2\0"
 1559      545F5241 
 1559      4449585F 
 1559      5F203200 
 1560 0dca 01       		.byte	0x1
 1561 0dcb 00       		.uleb128 0
 1562 0dcc 5F5F464C 		.ascii "__FLT_MANT_DIG__ 24\0"
 1562      545F4D41 
 1562      4E545F44 
 1562      49475F5F 
 1562      20323400 
 1563 0de0 01       		.byte	0x1
 1564 0de1 00       		.uleb128 0
 1565 0de2 5F5F464C 		.ascii "__FLT_DIG__ 6\0"
 1565      545F4449 
 1565      475F5F20 
 1565      3600
 1566 0df0 01       		.byte	0x1
 1567 0df1 00       		.uleb128 0
 1568 0df2 5F5F464C 		.ascii "__FLT_MIN_EXP__ (-125)\0"
 1568      545F4D49 
 1568      4E5F4558 
 1568      505F5F20 
 1568      282D3132 
 1569 0e09 01       		.byte	0x1
 1570 0e0a 00       		.uleb128 0
 1571 0e0b 5F5F464C 		.ascii "__FLT_MIN_10_EXP__ (-37)\0"
 1571      545F4D49 
 1571      4E5F3130 
 1571      5F455850 
 1571      5F5F2028 
 1572 0e24 01       		.byte	0x1
 1573 0e25 00       		.uleb128 0
 1574 0e26 5F5F464C 		.ascii "__FLT_MAX_EXP__ 128\0"
 1574      545F4D41 
 1574      585F4558 
 1574      505F5F20 
 1574      31323800 
 1575 0e3a 01       		.byte	0x1
 1576 0e3b 00       		.uleb128 0
 1577 0e3c 5F5F464C 		.ascii "__FLT_MAX_10_EXP__ 38\0"
 1577      545F4D41 
 1577      585F3130 
 1577      5F455850 
 1577      5F5F2033 
 1578 0e52 01       		.byte	0x1
 1579 0e53 00       		.uleb128 0
 1580 0e54 5F5F464C 		.ascii "__FLT_DECIMAL_DIG__ 9\0"
 1580      545F4445 
 1580      43494D41 
 1580      4C5F4449 
 1580      475F5F20 
 1581 0e6a 01       		.byte	0x1
 1582 0e6b 00       		.uleb128 0
 1583 0e6c 5F5F464C 		.ascii "__FLT_MAX__ 3.40282346638528859812e+38F\0"
 1583      545F4D41 
 1583      585F5F20 
GAS LISTING C:\Users\PRESID~1\AppData\Local\Temp\ccPzc4yS.s 			page 42


 1583      332E3430 
 1583      32383233 
 1584 0e94 01       		.byte	0x1
 1585 0e95 00       		.uleb128 0
 1586 0e96 5F5F464C 		.ascii "__FLT_MIN__ 1.17549435082228750797e-38F\0"
 1586      545F4D49 
 1586      4E5F5F20 
 1586      312E3137 
 1586      35343934 
 1587 0ebe 01       		.byte	0x1
 1588 0ebf 00       		.uleb128 0
 1589 0ec0 5F5F464C 		.ascii "__FLT_EPSILON__ 1.19209289550781250000e-7F\0"
 1589      545F4550 
 1589      53494C4F 
 1589      4E5F5F20 
 1589      312E3139 
 1590 0eeb 01       		.byte	0x1
 1591 0eec 00       		.uleb128 0
 1592 0eed 5F5F464C 		.ascii "__FLT_DENORM_MIN__ 1.40129846432481707092e-45F\0"
 1592      545F4445 
 1592      4E4F524D 
 1592      5F4D494E 
 1592      5F5F2031 
 1593 0f1c 01       		.byte	0x1
 1594 0f1d 00       		.uleb128 0
 1595 0f1e 5F5F464C 		.ascii "__FLT_HAS_DENORM__ 1\0"
 1595      545F4841 
 1595      535F4445 
 1595      4E4F524D 
 1595      5F5F2031 
 1596 0f33 01       		.byte	0x1
 1597 0f34 00       		.uleb128 0
 1598 0f35 5F5F464C 		.ascii "__FLT_HAS_INFINITY__ 1\0"
 1598      545F4841 
 1598      535F494E 
 1598      46494E49 
 1598      54595F5F 
 1599 0f4c 01       		.byte	0x1
 1600 0f4d 00       		.uleb128 0
 1601 0f4e 5F5F464C 		.ascii "__FLT_HAS_QUIET_NAN__ 1\0"
 1601      545F4841 
 1601      535F5155 
 1601      4945545F 
 1601      4E414E5F 
 1602 0f66 01       		.byte	0x1
 1603 0f67 00       		.uleb128 0
 1604 0f68 5F5F4442 		.ascii "__DBL_MANT_DIG__ 53\0"
 1604      4C5F4D41 
 1604      4E545F44 
 1604      49475F5F 
 1604      20353300 
 1605 0f7c 01       		.byte	0x1
 1606 0f7d 00       		.uleb128 0
 1607 0f7e 5F5F4442 		.ascii "__DBL_DIG__ 15\0"
 1607      4C5F4449 
 1607      475F5F20 
 1607      313500
GAS LISTING C:\Users\PRESID~1\AppData\Local\Temp\ccPzc4yS.s 			page 43


 1608 0f8d 01       		.byte	0x1
 1609 0f8e 00       		.uleb128 0
 1610 0f8f 5F5F4442 		.ascii "__DBL_MIN_EXP__ (-1021)\0"
 1610      4C5F4D49 
 1610      4E5F4558 
 1610      505F5F20 
 1610      282D3130 
 1611 0fa7 01       		.byte	0x1
 1612 0fa8 00       		.uleb128 0
 1613 0fa9 5F5F4442 		.ascii "__DBL_MIN_10_EXP__ (-307)\0"
 1613      4C5F4D49 
 1613      4E5F3130 
 1613      5F455850 
 1613      5F5F2028 
 1614 0fc3 01       		.byte	0x1
 1615 0fc4 00       		.uleb128 0
 1616 0fc5 5F5F4442 		.ascii "__DBL_MAX_EXP__ 1024\0"
 1616      4C5F4D41 
 1616      585F4558 
 1616      505F5F20 
 1616      31303234 
 1617 0fda 01       		.byte	0x1
 1618 0fdb 00       		.uleb128 0
 1619 0fdc 5F5F4442 		.ascii "__DBL_MAX_10_EXP__ 308\0"
 1619      4C5F4D41 
 1619      585F3130 
 1619      5F455850 
 1619      5F5F2033 
 1620 0ff3 01       		.byte	0x1
 1621 0ff4 00       		.uleb128 0
 1622 0ff5 5F5F4442 		.ascii "__DBL_DECIMAL_DIG__ 17\0"
 1622      4C5F4445 
 1622      43494D41 
 1622      4C5F4449 
 1622      475F5F20 
 1623 100c 01       		.byte	0x1
 1624 100d 00       		.uleb128 0
 1625 100e 5F5F4442 		.ascii "__DBL_MAX__ ((double)1.79769313486231570815e+308L)\0"
 1625      4C5F4D41 
 1625      585F5F20 
 1625      2828646F 
 1625      75626C65 
 1626 1041 01       		.byte	0x1
 1627 1042 00       		.uleb128 0
 1628 1043 5F5F4442 		.ascii "__DBL_MIN__ ((double)2.22507385850720138309e-308L)\0"
 1628      4C5F4D49 
 1628      4E5F5F20 
 1628      2828646F 
 1628      75626C65 
 1629 1076 01       		.byte	0x1
 1630 1077 00       		.uleb128 0
 1631 1078 5F5F4442 		.ascii "__DBL_EPSILON__ ((double)2.22044604925031308085e-16L)\0"
 1631      4C5F4550 
 1631      53494C4F 
 1631      4E5F5F20 
 1631      2828646F 
 1632 10ae 01       		.byte	0x1
GAS LISTING C:\Users\PRESID~1\AppData\Local\Temp\ccPzc4yS.s 			page 44


 1633 10af 00       		.uleb128 0
 1634 10b0 5F5F4442 		.ascii "__DBL_DENORM_MIN__ ((double)4.94065645841246544177e-324L)\0"
 1634      4C5F4445 
 1634      4E4F524D 
 1634      5F4D494E 
 1634      5F5F2028 
 1635 10ea 01       		.byte	0x1
 1636 10eb 00       		.uleb128 0
 1637 10ec 5F5F4442 		.ascii "__DBL_HAS_DENORM__ 1\0"
 1637      4C5F4841 
 1637      535F4445 
 1637      4E4F524D 
 1637      5F5F2031 
 1638 1101 01       		.byte	0x1
 1639 1102 00       		.uleb128 0
 1640 1103 5F5F4442 		.ascii "__DBL_HAS_INFINITY__ 1\0"
 1640      4C5F4841 
 1640      535F494E 
 1640      46494E49 
 1640      54595F5F 
 1641 111a 01       		.byte	0x1
 1642 111b 00       		.uleb128 0
 1643 111c 5F5F4442 		.ascii "__DBL_HAS_QUIET_NAN__ 1\0"
 1643      4C5F4841 
 1643      535F5155 
 1643      4945545F 
 1643      4E414E5F 
 1644 1134 01       		.byte	0x1
 1645 1135 00       		.uleb128 0
 1646 1136 5F5F4C44 		.ascii "__LDBL_MANT_DIG__ 64\0"
 1646      424C5F4D 
 1646      414E545F 
 1646      4449475F 
 1646      5F203634 
 1647 114b 01       		.byte	0x1
 1648 114c 00       		.uleb128 0
 1649 114d 5F5F4C44 		.ascii "__LDBL_DIG__ 18\0"
 1649      424C5F44 
 1649      49475F5F 
 1649      20313800 
 1650 115d 01       		.byte	0x1
 1651 115e 00       		.uleb128 0
 1652 115f 5F5F4C44 		.ascii "__LDBL_MIN_EXP__ (-16381)\0"
 1652      424C5F4D 
 1652      494E5F45 
 1652      58505F5F 
 1652      20282D31 
 1653 1179 01       		.byte	0x1
 1654 117a 00       		.uleb128 0
 1655 117b 5F5F4C44 		.ascii "__LDBL_MIN_10_EXP__ (-4931)\0"
 1655      424C5F4D 
 1655      494E5F31 
 1655      305F4558 
 1655      505F5F20 
 1656 1197 01       		.byte	0x1
 1657 1198 00       		.uleb128 0
 1658 1199 5F5F4C44 		.ascii "__LDBL_MAX_EXP__ 16384\0"
GAS LISTING C:\Users\PRESID~1\AppData\Local\Temp\ccPzc4yS.s 			page 45


 1658      424C5F4D 
 1658      41585F45 
 1658      58505F5F 
 1658      20313633 
 1659 11b0 01       		.byte	0x1
 1660 11b1 00       		.uleb128 0
 1661 11b2 5F5F4C44 		.ascii "__LDBL_MAX_10_EXP__ 4932\0"
 1661      424C5F4D 
 1661      41585F31 
 1661      305F4558 
 1661      505F5F20 
 1662 11cb 01       		.byte	0x1
 1663 11cc 00       		.uleb128 0
 1664 11cd 5F5F4445 		.ascii "__DECIMAL_DIG__ 21\0"
 1664      43494D41 
 1664      4C5F4449 
 1664      475F5F20 
 1664      323100
 1665 11e0 01       		.byte	0x1
 1666 11e1 00       		.uleb128 0
 1667 11e2 5F5F4C44 		.ascii "__LDBL_MAX__ 1.18973149535723176502e+4932L\0"
 1667      424C5F4D 
 1667      41585F5F 
 1667      20312E31 
 1667      38393733 
 1668 120d 01       		.byte	0x1
 1669 120e 00       		.uleb128 0
 1670 120f 5F5F4C44 		.ascii "__LDBL_MIN__ 3.36210314311209350626e-4932L\0"
 1670      424C5F4D 
 1670      494E5F5F 
 1670      20332E33 
 1670      36323130 
 1671 123a 01       		.byte	0x1
 1672 123b 00       		.uleb128 0
 1673 123c 5F5F4C44 		.ascii "__LDBL_EPSILON__ 1.08420217248550443401e-19L\0"
 1673      424C5F45 
 1673      5053494C 
 1673      4F4E5F5F 
 1673      20312E30 
 1674 1269 01       		.byte	0x1
 1675 126a 00       		.uleb128 0
 1676 126b 5F5F4C44 		.ascii "__LDBL_DENORM_MIN__ 3.64519953188247460253e-4951L\0"
 1676      424C5F44 
 1676      454E4F52 
 1676      4D5F4D49 
 1676      4E5F5F20 
 1677 129d 01       		.byte	0x1
 1678 129e 00       		.uleb128 0
 1679 129f 5F5F4C44 		.ascii "__LDBL_HAS_DENORM__ 1\0"
 1679      424C5F48 
 1679      41535F44 
 1679      454E4F52 
 1679      4D5F5F20 
 1680 12b5 01       		.byte	0x1
 1681 12b6 00       		.uleb128 0
 1682 12b7 5F5F4C44 		.ascii "__LDBL_HAS_INFINITY__ 1\0"
 1682      424C5F48 
GAS LISTING C:\Users\PRESID~1\AppData\Local\Temp\ccPzc4yS.s 			page 46


 1682      41535F49 
 1682      4E46494E 
 1682      4954595F 
 1683 12cf 01       		.byte	0x1
 1684 12d0 00       		.uleb128 0
 1685 12d1 5F5F4C44 		.ascii "__LDBL_HAS_QUIET_NAN__ 1\0"
 1685      424C5F48 
 1685      41535F51 
 1685      55494554 
 1685      5F4E414E 
 1686 12ea 01       		.byte	0x1
 1687 12eb 00       		.uleb128 0
 1688 12ec 5F5F4445 		.ascii "__DEC32_MANT_DIG__ 7\0"
 1688      4333325F 
 1688      4D414E54 
 1688      5F444947 
 1688      5F5F2037 
 1689 1301 01       		.byte	0x1
 1690 1302 00       		.uleb128 0
 1691 1303 5F5F4445 		.ascii "__DEC32_MIN_EXP__ (-94)\0"
 1691      4333325F 
 1691      4D494E5F 
 1691      4558505F 
 1691      5F20282D 
 1692 131b 01       		.byte	0x1
 1693 131c 00       		.uleb128 0
 1694 131d 5F5F4445 		.ascii "__DEC32_MAX_EXP__ 97\0"
 1694      4333325F 
 1694      4D41585F 
 1694      4558505F 
 1694      5F203937 
 1695 1332 01       		.byte	0x1
 1696 1333 00       		.uleb128 0
 1697 1334 5F5F4445 		.ascii "__DEC32_MIN__ 1E-95DF\0"
 1697      4333325F 
 1697      4D494E5F 
 1697      5F203145 
 1697      2D393544 
 1698 134a 01       		.byte	0x1
 1699 134b 00       		.uleb128 0
 1700 134c 5F5F4445 		.ascii "__DEC32_MAX__ 9.999999E96DF\0"
 1700      4333325F 
 1700      4D41585F 
 1700      5F20392E 
 1700      39393939 
 1701 1368 01       		.byte	0x1
 1702 1369 00       		.uleb128 0
 1703 136a 5F5F4445 		.ascii "__DEC32_EPSILON__ 1E-6DF\0"
 1703      4333325F 
 1703      45505349 
 1703      4C4F4E5F 
 1703      5F203145 
 1704 1383 01       		.byte	0x1
 1705 1384 00       		.uleb128 0
 1706 1385 5F5F4445 		.ascii "__DEC32_SUBNORMAL_MIN__ 0.000001E-95DF\0"
 1706      4333325F 
 1706      5355424E 
GAS LISTING C:\Users\PRESID~1\AppData\Local\Temp\ccPzc4yS.s 			page 47


 1706      4F524D41 
 1706      4C5F4D49 
 1707 13ac 01       		.byte	0x1
 1708 13ad 00       		.uleb128 0
 1709 13ae 5F5F4445 		.ascii "__DEC64_MANT_DIG__ 16\0"
 1709      4336345F 
 1709      4D414E54 
 1709      5F444947 
 1709      5F5F2031 
 1710 13c4 01       		.byte	0x1
 1711 13c5 00       		.uleb128 0
 1712 13c6 5F5F4445 		.ascii "__DEC64_MIN_EXP__ (-382)\0"
 1712      4336345F 
 1712      4D494E5F 
 1712      4558505F 
 1712      5F20282D 
 1713 13df 01       		.byte	0x1
 1714 13e0 00       		.uleb128 0
 1715 13e1 5F5F4445 		.ascii "__DEC64_MAX_EXP__ 385\0"
 1715      4336345F 
 1715      4D41585F 
 1715      4558505F 
 1715      5F203338 
 1716 13f7 01       		.byte	0x1
 1717 13f8 00       		.uleb128 0
 1718 13f9 5F5F4445 		.ascii "__DEC64_MIN__ 1E-383DD\0"
 1718      4336345F 
 1718      4D494E5F 
 1718      5F203145 
 1718      2D333833 
 1719 1410 01       		.byte	0x1
 1720 1411 00       		.uleb128 0
 1721 1412 5F5F4445 		.ascii "__DEC64_MAX__ 9.999999999999999E384DD\0"
 1721      4336345F 
 1721      4D41585F 
 1721      5F20392E 
 1721      39393939 
 1722 1438 01       		.byte	0x1
 1723 1439 00       		.uleb128 0
 1724 143a 5F5F4445 		.ascii "__DEC64_EPSILON__ 1E-15DD\0"
 1724      4336345F 
 1724      45505349 
 1724      4C4F4E5F 
 1724      5F203145 
 1725 1454 01       		.byte	0x1
 1726 1455 00       		.uleb128 0
 1727 1456 5F5F4445 		.ascii "__DEC64_SUBNORMAL_MIN__ 0.000000000000001E-383DD\0"
 1727      4336345F 
 1727      5355424E 
 1727      4F524D41 
 1727      4C5F4D49 
 1728 1487 01       		.byte	0x1
 1729 1488 00       		.uleb128 0
 1730 1489 5F5F4445 		.ascii "__DEC128_MANT_DIG__ 34\0"
 1730      43313238 
 1730      5F4D414E 
 1730      545F4449 
GAS LISTING C:\Users\PRESID~1\AppData\Local\Temp\ccPzc4yS.s 			page 48


 1730      475F5F20 
 1731 14a0 01       		.byte	0x1
 1732 14a1 00       		.uleb128 0
 1733 14a2 5F5F4445 		.ascii "__DEC128_MIN_EXP__ (-6142)\0"
 1733      43313238 
 1733      5F4D494E 
 1733      5F455850 
 1733      5F5F2028 
 1734 14bd 01       		.byte	0x1
 1735 14be 00       		.uleb128 0
 1736 14bf 5F5F4445 		.ascii "__DEC128_MAX_EXP__ 6145\0"
 1736      43313238 
 1736      5F4D4158 
 1736      5F455850 
 1736      5F5F2036 
 1737 14d7 01       		.byte	0x1
 1738 14d8 00       		.uleb128 0
 1739 14d9 5F5F4445 		.ascii "__DEC128_MIN__ 1E-6143DL\0"
 1739      43313238 
 1739      5F4D494E 
 1739      5F5F2031 
 1739      452D3631 
 1740 14f2 01       		.byte	0x1
 1741 14f3 00       		.uleb128 0
 1742 14f4 5F5F4445 		.ascii "__DEC128_MAX__ 9.999999999999999999999999999999999E6144DL\0"
 1742      43313238 
 1742      5F4D4158 
 1742      5F5F2039 
 1742      2E393939 
 1743 152e 01       		.byte	0x1
 1744 152f 00       		.uleb128 0
 1745 1530 5F5F4445 		.ascii "__DEC128_EPSILON__ 1E-33DL\0"
 1745      43313238 
 1745      5F455053 
 1745      494C4F4E 
 1745      5F5F2031 
 1746 154b 01       		.byte	0x1
 1747 154c 00       		.uleb128 0
 1748 154d 5F5F4445 		.ascii "__DEC128_SUBNORMAL_MIN__ 0.000000000000000000000000000000001E-6143DL\0"
 1748      43313238 
 1748      5F535542 
 1748      4E4F524D 
 1748      414C5F4D 
 1749 1592 01       		.byte	0x1
 1750 1593 00       		.uleb128 0
 1751 1594 5F5F5245 		.ascii "__REGISTER_PREFIX__ \0"
 1751      47495354 
 1751      45525F50 
 1751      52454649 
 1751      585F5F20 
 1752 15a9 01       		.byte	0x1
 1753 15aa 00       		.uleb128 0
 1754 15ab 5F5F5553 		.ascii "__USER_LABEL_PREFIX__ _\0"
 1754      45525F4C 
 1754      4142454C 
 1754      5F505245 
 1754      4649585F 
GAS LISTING C:\Users\PRESID~1\AppData\Local\Temp\ccPzc4yS.s 			page 49


 1755 15c3 01       		.byte	0x1
 1756 15c4 00       		.uleb128 0
 1757 15c5 5F5F474E 		.ascii "__GNUC_GNU_INLINE__ 1\0"
 1757      55435F47 
 1757      4E555F49 
 1757      4E4C494E 
 1757      455F5F20 
 1758 15db 01       		.byte	0x1
 1759 15dc 00       		.uleb128 0
 1760 15dd 5F5F4E4F 		.ascii "__NO_INLINE__ 1\0"
 1760      5F494E4C 
 1760      494E455F 
 1760      5F203100 
 1761 15ed 01       		.byte	0x1
 1762 15ee 00       		.uleb128 0
 1763 15ef 5F5F5354 		.ascii "__STRICT_ANSI__ 1\0"
 1763      52494354 
 1763      5F414E53 
 1763      495F5F20 
 1763      3100
 1764 1601 01       		.byte	0x1
 1765 1602 00       		.uleb128 0
 1766 1603 5F5F4743 		.ascii "__GCC_ATOMIC_BOOL_LOCK_FREE 1\0"
 1766      435F4154 
 1766      4F4D4943 
 1766      5F424F4F 
 1766      4C5F4C4F 
 1767 1621 01       		.byte	0x1
 1768 1622 00       		.uleb128 0
 1769 1623 5F5F4743 		.ascii "__GCC_ATOMIC_CHAR_LOCK_FREE 1\0"
 1769      435F4154 
 1769      4F4D4943 
 1769      5F434841 
 1769      525F4C4F 
 1770 1641 01       		.byte	0x1
 1771 1642 00       		.uleb128 0
 1772 1643 5F5F4743 		.ascii "__GCC_ATOMIC_CHAR16_T_LOCK_FREE 1\0"
 1772      435F4154 
 1772      4F4D4943 
 1772      5F434841 
 1772      5231365F 
 1773 1665 01       		.byte	0x1
 1774 1666 00       		.uleb128 0
 1775 1667 5F5F4743 		.ascii "__GCC_ATOMIC_CHAR32_T_LOCK_FREE 1\0"
 1775      435F4154 
 1775      4F4D4943 
 1775      5F434841 
 1775      5233325F 
 1776 1689 01       		.byte	0x1
 1777 168a 00       		.uleb128 0
 1778 168b 5F5F4743 		.ascii "__GCC_ATOMIC_WCHAR_T_LOCK_FREE 1\0"
 1778      435F4154 
 1778      4F4D4943 
 1778      5F574348 
 1778      41525F54 
 1779 16ac 01       		.byte	0x1
 1780 16ad 00       		.uleb128 0
GAS LISTING C:\Users\PRESID~1\AppData\Local\Temp\ccPzc4yS.s 			page 50


 1781 16ae 5F5F4743 		.ascii "__GCC_ATOMIC_SHORT_LOCK_FREE 1\0"
 1781      435F4154 
 1781      4F4D4943 
 1781      5F53484F 
 1781      52545F4C 
 1782 16cd 01       		.byte	0x1
 1783 16ce 00       		.uleb128 0
 1784 16cf 5F5F4743 		.ascii "__GCC_ATOMIC_INT_LOCK_FREE 1\0"
 1784      435F4154 
 1784      4F4D4943 
 1784      5F494E54 
 1784      5F4C4F43 
 1785 16ec 01       		.byte	0x1
 1786 16ed 00       		.uleb128 0
 1787 16ee 5F5F4743 		.ascii "__GCC_ATOMIC_LONG_LOCK_FREE 1\0"
 1787      435F4154 
 1787      4F4D4943 
 1787      5F4C4F4E 
 1787      475F4C4F 
 1788 170c 01       		.byte	0x1
 1789 170d 00       		.uleb128 0
 1790 170e 5F5F4743 		.ascii "__GCC_ATOMIC_LLONG_LOCK_FREE 1\0"
 1790      435F4154 
 1790      4F4D4943 
 1790      5F4C4C4F 
 1790      4E475F4C 
 1791 172d 01       		.byte	0x1
 1792 172e 00       		.uleb128 0
 1793 172f 5F5F4743 		.ascii "__GCC_ATOMIC_TEST_AND_SET_TRUEVAL 1\0"
 1793      435F4154 
 1793      4F4D4943 
 1793      5F544553 
 1793      545F414E 
 1794 1753 01       		.byte	0x1
 1795 1754 00       		.uleb128 0
 1796 1755 5F5F4743 		.ascii "__GCC_ATOMIC_POINTER_LOCK_FREE 1\0"
 1796      435F4154 
 1796      4F4D4943 
 1796      5F504F49 
 1796      4E544552 
 1797 1776 01       		.byte	0x1
 1798 1777 00       		.uleb128 0
 1799 1778 5F5F4743 		.ascii "__GCC_HAVE_DWARF2_CFI_ASM 1\0"
 1799      435F4841 
 1799      56455F44 
 1799      57415246 
 1799      325F4346 
 1800 1794 01       		.byte	0x1
 1801 1795 00       		.uleb128 0
 1802 1796 5F5F5052 		.ascii "__PRAGMA_REDEFINE_EXTNAME 1\0"
 1802      41474D41 
 1802      5F524544 
 1802      4546494E 
 1802      455F4558 
 1803 17b2 01       		.byte	0x1
 1804 17b3 00       		.uleb128 0
 1805 17b4 5F5F5349 		.ascii "__SIZEOF_WCHAR_T__ 2\0"
GAS LISTING C:\Users\PRESID~1\AppData\Local\Temp\ccPzc4yS.s 			page 51


 1805      5A454F46 
 1805      5F574348 
 1805      41525F54 
 1805      5F5F2032 
 1806 17c9 01       		.byte	0x1
 1807 17ca 00       		.uleb128 0
 1808 17cb 5F5F5349 		.ascii "__SIZEOF_WINT_T__ 2\0"
 1808      5A454F46 
 1808      5F57494E 
 1808      545F545F 
 1808      5F203200 
 1809 17df 01       		.byte	0x1
 1810 17e0 00       		.uleb128 0
 1811 17e1 5F5F5349 		.ascii "__SIZEOF_PTRDIFF_T__ 4\0"
 1811      5A454F46 
 1811      5F505452 
 1811      44494646 
 1811      5F545F5F 
 1812 17f8 01       		.byte	0x1
 1813 17f9 00       		.uleb128 0
 1814 17fa 5F5F6933 		.ascii "__i386 1\0"
 1814      38362031 
 1814      00
 1815 1803 01       		.byte	0x1
 1816 1804 00       		.uleb128 0
 1817 1805 5F5F6933 		.ascii "__i386__ 1\0"
 1817      38365F5F 
 1817      203100
 1818 1810 01       		.byte	0x1
 1819 1811 00       		.uleb128 0
 1820 1812 5F5F4154 		.ascii "__ATOMIC_HLE_ACQUIRE 65536\0"
 1820      4F4D4943 
 1820      5F484C45 
 1820      5F414351 
 1820      55495245 
 1821 182d 01       		.byte	0x1
 1822 182e 00       		.uleb128 0
 1823 182f 5F5F4154 		.ascii "__ATOMIC_HLE_RELEASE 131072\0"
 1823      4F4D4943 
 1823      5F484C45 
 1823      5F52454C 
 1823      45415345 
 1824 184b 01       		.byte	0x1
 1825 184c 00       		.uleb128 0
 1826 184d 5F5F7475 		.ascii "__tune_i386__ 1\0"
 1826      6E655F69 
 1826      3338365F 
 1826      5F203100 
 1827 185d 01       		.byte	0x1
 1828 185e 00       		.uleb128 0
 1829 185f 5F5F636F 		.ascii "__code_model_32__ 1\0"
 1829      64655F6D 
 1829      6F64656C 
 1829      5F33325F 
 1829      5F203100 
 1830 1873 01       		.byte	0x1
 1831 1874 00       		.uleb128 0
GAS LISTING C:\Users\PRESID~1\AppData\Local\Temp\ccPzc4yS.s 			page 52


 1832 1875 5F583836 		.ascii "_X86_ 1\0"
 1832      5F203100 
 1833 187d 01       		.byte	0x1
 1834 187e 00       		.uleb128 0
 1835 187f 5F5F7374 		.ascii "__stdcall __attribute__((__stdcall__))\0"
 1835      6463616C 
 1835      6C205F5F 
 1835      61747472 
 1835      69627574 
 1836 18a6 01       		.byte	0x1
 1837 18a7 00       		.uleb128 0
 1838 18a8 5F5F6661 		.ascii "__fastcall __attribute__((__fastcall__))\0"
 1838      73746361 
 1838      6C6C205F 
 1838      5F617474 
 1838      72696275 
 1839 18d1 01       		.byte	0x1
 1840 18d2 00       		.uleb128 0
 1841 18d3 5F5F7468 		.ascii "__thiscall __attribute__((__thiscall__))\0"
 1841      69736361 
 1841      6C6C205F 
 1841      5F617474 
 1841      72696275 
 1842 18fc 01       		.byte	0x1
 1843 18fd 00       		.uleb128 0
 1844 18fe 5F5F6364 		.ascii "__cdecl __attribute__((__cdecl__))\0"
 1844      65636C20 
 1844      5F5F6174 
 1844      74726962 
 1844      7574655F 
 1845 1921 01       		.byte	0x1
 1846 1922 00       		.uleb128 0
 1847 1923 5F5F4758 		.ascii "__GXX_MERGED_TYPEINFO_NAMES 0\0"
 1847      585F4D45 
 1847      52474544 
 1847      5F545950 
 1847      45494E46 
 1848 1941 01       		.byte	0x1
 1849 1942 00       		.uleb128 0
 1850 1943 5F5F4758 		.ascii "__GXX_TYPEINFO_EQUALITY_INLINE 0\0"
 1850      585F5459 
 1850      5045494E 
 1850      464F5F45 
 1850      5155414C 
 1851 1964 01       		.byte	0x1
 1852 1965 00       		.uleb128 0
 1853 1966 5F5F4D53 		.ascii "__MSVCRT__ 1\0"
 1853      56435254 
 1853      5F5F2031 
 1853      00
 1854 1973 01       		.byte	0x1
 1855 1974 00       		.uleb128 0
 1856 1975 5F5F4D49 		.ascii "__MINGW32__ 1\0"
 1856      4E475733 
 1856      325F5F20 
 1856      3100
 1857 1983 01       		.byte	0x1
GAS LISTING C:\Users\PRESID~1\AppData\Local\Temp\ccPzc4yS.s 			page 53


 1858 1984 00       		.uleb128 0
 1859 1985 5F57494E 		.ascii "_WIN32 1\0"
 1859      33322031 
 1859      00
 1860 198e 01       		.byte	0x1
 1861 198f 00       		.uleb128 0
 1862 1990 5F5F5749 		.ascii "__WIN32 1\0"
 1862      4E333220 
 1862      3100
 1863 199a 01       		.byte	0x1
 1864 199b 00       		.uleb128 0
 1865 199c 5F5F5749 		.ascii "__WIN32__ 1\0"
 1865      4E33325F 
 1865      5F203100 
 1866 19a8 01       		.byte	0x1
 1867 19a9 00       		.uleb128 0
 1868 19aa 5F5F5749 		.ascii "__WINNT 1\0"
 1868      4E4E5420 
 1868      3100
 1869 19b4 01       		.byte	0x1
 1870 19b5 00       		.uleb128 0
 1871 19b6 5F5F5749 		.ascii "__WINNT__ 1\0"
 1871      4E4E545F 
 1871      5F203100 
 1872 19c2 01       		.byte	0x1
 1873 19c3 00       		.uleb128 0
 1874 19c4 5F494E54 		.ascii "_INTEGRAL_MAX_BITS 64\0"
 1874      45475241 
 1874      4C5F4D41 
 1874      585F4249 
 1874      54532036 
 1875 19da 01       		.byte	0x1
 1876 19db 00       		.uleb128 0
 1877 19dc 5F5F6465 		.ascii "__declspec(x) __attribute__((x))\0"
 1877      636C7370 
 1877      65632878 
 1877      29205F5F 
 1877      61747472 
 1878 19fd 01       		.byte	0x1
 1879 19fe 00       		.uleb128 0
 1880 19ff 5F5F4445 		.ascii "__DECIMAL_BID_FORMAT__ 1\0"
 1880      43494D41 
 1880      4C5F4249 
 1880      445F464F 
 1880      524D4154 
 1881 1a18 01       		.byte	0x1
 1882 1a19 00       		.uleb128 0
 1883 1a1a 4346475F 		.ascii "CFG_PROCESSOR 3\0"
 1883      50524F43 
 1883      4553534F 
 1883      52203300 
 1884 1a2a 03       		.byte	0x3
 1885 1a2b 00       		.uleb128 0
 1886 1a2c 01       		.uleb128 0x1
 1887              		.file 4 "E:/NeuOrga/Programmieren/c_cpp/github_os/input/src/os_sim/../os_base/os_firstinc.h"
 1888 1a2d 03       		.byte	0x3
 1889 1a2e 01       		.uleb128 0x1
GAS LISTING C:\Users\PRESID~1\AppData\Local\Temp\ccPzc4yS.s 			page 54


 1890 1a2f 04       		.uleb128 0x4
 1891 1a30 01       		.byte	0x1
 1892 1a31 02       		.uleb128 0x2
 1893 1a32 5F6F735F 		.ascii "_os_firstinc_h_ \0"
 1893      66697273 
 1893      74696E63 
 1893      5F685F20 
 1893      00
 1894 1a43 03       		.byte	0x3
 1895 1a44 04       		.uleb128 0x4
 1896 1a45 02       		.uleb128 0x2
 1897 1a46 01       		.byte	0x1
 1898 1a47 02       		.uleb128 0x2
 1899 1a48 5F424153 		.ascii "_BASE_TYPES_H_ \0"
 1899      455F5459 
 1899      5045535F 
 1899      485F2000 
 1900 1a58 01       		.byte	0x1
 1901 1a59 04       		.uleb128 0x4
 1902 1a5a 494E5445 		.ascii "INTEGER_LLP64_IL32P64 1\0"
 1902      4745525F 
 1902      4C4C5036 
 1902      345F494C 
 1902      33325036 
 1903 1a72 01       		.byte	0x1
 1904 1a73 05       		.uleb128 0x5
 1905 1a74 494E5445 		.ascii "INTEGER_LP64_I32LP64 2\0"
 1905      4745525F 
 1905      4C503634 
 1905      5F493332 
 1905      4C503634 
 1906 1a8b 01       		.byte	0x1
 1907 1a8c 06       		.uleb128 0x6
 1908 1a8d 494E5445 		.ascii "INTEGER_ILP64 3\0"
 1908      4745525F 
 1908      494C5036 
 1908      34203300 
 1909 1a9d 01       		.byte	0x1
 1910 1a9e 07       		.uleb128 0x7
 1911 1a9f 494E5445 		.ascii "INTEGER_SILP64 4\0"
 1911      4745525F 
 1911      53494C50 
 1911      36342034 
 1911      00
 1912 1ab0 01       		.byte	0x1
 1913 1ab1 09       		.uleb128 0x9
 1914 1ab2 4350505F 		.ascii "CPP_VERSION_NONE 0\0"
 1914      56455253 
 1914      494F4E5F 
 1914      4E4F4E45 
 1914      203000
 1915 1ac5 01       		.byte	0x1
 1916 1ac6 0A       		.uleb128 0xa
 1917 1ac7 4350505F 		.ascii "CPP_VERSION_1998 1\0"
 1917      56455253 
 1917      494F4E5F 
 1917      31393938 
GAS LISTING C:\Users\PRESID~1\AppData\Local\Temp\ccPzc4yS.s 			page 55


 1917      203100
 1918 1ada 01       		.byte	0x1
 1919 1adb 0B       		.uleb128 0xb
 1920 1adc 4350505F 		.ascii "CPP_VERSION_2003 2\0"
 1920      56455253 
 1920      494F4E5F 
 1920      32303033 
 1920      203200
 1921 1aef 01       		.byte	0x1
 1922 1af0 0C       		.uleb128 0xc
 1923 1af1 4350505F 		.ascii "CPP_VERSION_2007 3\0"
 1923      56455253 
 1923      494F4E5F 
 1923      32303037 
 1923      203300
 1924 1b04 01       		.byte	0x1
 1925 1b05 0D       		.uleb128 0xd
 1926 1b06 4350505F 		.ascii "CPP_VERSION_2011 4\0"
 1926      56455253 
 1926      494F4E5F 
 1926      32303131 
 1926      203400
 1927 1b19 01       		.byte	0x1
 1928 1b1a 0E       		.uleb128 0xe
 1929 1b1b 49534F5F 		.ascii "ISO_CPP_VERSION CPP_VERSION_1998\0"
 1929      4350505F 
 1929      56455253 
 1929      494F4E20 
 1929      4350505F 
 1930 1b3c 01       		.byte	0x1
 1931 1b3d 10       		.uleb128 0x10
 1932 1b3e 494E5445 		.ascii "INTEGER_MODEL INTEGER_LLP64_IL32P64\0"
 1932      4745525F 
 1932      4D4F4445 
 1932      4C20494E 
 1932      54454745 
 1933 1b62 04       		.byte	0x4
 1934              		.file 5 "E:/NeuOrga/Programmieren/c_cpp/github_os/input/src/os_sim/../os_base/../os_base/os_common
 1935 1b63 03       		.byte	0x3
 1936 1b64 05       		.uleb128 0x5
 1937 1b65 05       		.uleb128 0x5
 1938 1b66 01       		.byte	0x1
 1939 1b67 02       		.uleb128 0x2
 1940 1b68 5F6F735F 		.ascii "_os_common_h_ \0"
 1940      636F6D6D 
 1940      6F6E5F68 
 1940      5F2000
 1941 1b77 01       		.byte	0x1
 1942 1b78 06       		.uleb128 0x6
 1943 1b79 46616C73 		.ascii "False 0\0"
 1943      65203000 
 1944 1b81 01       		.byte	0x1
 1945 1b82 07       		.uleb128 0x7
 1946 1b83 54727565 		.ascii "True 1\0"
 1946      203100
 1947 1b8a 01       		.byte	0x1
 1948 1b8b 08       		.uleb128 0x8
GAS LISTING C:\Users\PRESID~1\AppData\Local\Temp\ccPzc4yS.s 			page 56


 1949 1b8c 41636365 		.ascii "Accepted 1\0"
 1949      70746564 
 1949      203100
 1950 1b97 01       		.byte	0x1
 1951 1b98 09       		.uleb128 0x9
 1952 1b99 52656A65 		.ascii "Rejected 0\0"
 1952      63746564 
 1952      203000
 1953 1ba4 01       		.byte	0x1
 1954 1ba5 0A       		.uleb128 0xa
 1955 1ba6 4C6F6361 		.ascii "Local static\0"
 1955      6C207374 
 1955      61746963 
 1955      00
 1956 1bb3 01       		.byte	0x1
 1957 1bb4 0B       		.uleb128 0xb
 1958 1bb5 4C6F6361 		.ascii "Local_inline static __inline__\0"
 1958      6C5F696E 
 1958      6C696E65 
 1958      20737461 
 1958      74696320 
 1959 1bd4 01       		.byte	0x1
 1960 1bd5 0C       		.uleb128 0xc
 1961 1bd6 476C6F62 		.ascii "Global_inline __inline__\0"
 1961      616C5F69 
 1961      6E6C696E 
 1961      65205F5F 
 1961      696E6C69 
 1962 1bef 01       		.byte	0x1
 1963 1bf0 0D       		.uleb128 0xd
 1964 1bf1 52656665 		.ascii "ReferenceUnusedParameter(x) ((x) = (x))\0"
 1964      72656E63 
 1964      65556E75 
 1964      73656450 
 1964      6172616D 
 1965 1c19 01       		.byte	0x1
 1966 1c1a 10       		.uleb128 0x10
 1967 1c1b 634D4355 		.ascii "cMCU_SIMULATION 1\0"
 1967      5F53494D 
 1967      554C4154 
 1967      494F4E20 
 1967      3100
 1968 1c2d 01       		.byte	0x1
 1969 1c2e 11       		.uleb128 0x11
 1970 1c2f 634D4355 		.ascii "cMCU_POWERPC 2\0"
 1970      5F504F57 
 1970      45525043 
 1970      203200
 1971 1c3e 01       		.byte	0x1
 1972 1c3f 12       		.uleb128 0x12
 1973 1c40 634D4355 		.ascii "cMCU_X86 3\0"
 1973      5F583836 
 1973      203300
 1974 1c4b 01       		.byte	0x1
 1975 1c4c 13       		.uleb128 0x13
 1976 1c4d 634D4355 		.ascii "cMCU_CORTEX_M4 4\0"
 1976      5F434F52 
GAS LISTING C:\Users\PRESID~1\AppData\Local\Temp\ccPzc4yS.s 			page 57


 1976      5445585F 
 1976      4D342034 
 1976      00
 1977 1c5e 01       		.byte	0x1
 1978 1c5f 16       		.uleb128 0x16
 1979 1c60 4E525F4F 		.ascii "NR_OF_CORES 1\0"
 1979      465F434F 
 1979      52455320 
 1979      3100
 1980 1c6e 01       		.byte	0x1
 1981 1c6f 23       		.uleb128 0x23
 1982 1c70 44697361 		.ascii "DisableInterrupts() \0"
 1982      626C6549 
 1982      6E746572 
 1982      72757074 
 1982      73282920 
 1983 1c85 01       		.byte	0x1
 1984 1c86 24       		.uleb128 0x24
 1985 1c87 456E6162 		.ascii "EnableInterrupts() \0"
 1985      6C65496E 
 1985      74657272 
 1985      75707473 
 1985      28292000 
 1986 1c9b 01       		.byte	0x1
 1987 1c9c 25       		.uleb128 0x25
 1988 1c9d 50726976 		.ascii "Privilige_level_save_current() \0"
 1988      696C6967 
 1988      655F6C65 
 1988      76656C5F 
 1988      73617665 
 1989 1cbd 01       		.byte	0x1
 1990 1cbe 26       		.uleb128 0x26
 1991 1cbf 50726976 		.ascii "Privilige_level_enter_kernel_mode() \0"
 1991      696C6967 
 1991      655F6C65 
 1991      76656C5F 
 1991      656E7465 
 1992 1ce4 01       		.byte	0x1
 1993 1ce5 27       		.uleb128 0x27
 1994 1ce6 50726976 		.ascii "Privilige_level_restore_saved() \0"
 1994      696C6967 
 1994      655F6C65 
 1994      76656C5F 
 1994      72657374 
 1995 1d07 01       		.byte	0x1
 1996 1d08 28       		.uleb128 0x28
 1997 1d09 48616C74 		.ascii "HaltMcu() \0"
 1997      4D637528 
 1997      292000
 1998 1d14 04       		.byte	0x4
 1999              		.file 6 "E:/NeuOrga/Programmieren/c_cpp/github_os/input/src/os_sim/../os_base/../os_sim/lld_global
 2000 1d15 03       		.byte	0x3
 2001 1d16 07       		.uleb128 0x7
 2002 1d17 06       		.uleb128 0x6
 2003 1d18 01       		.byte	0x1
 2004 1d19 02       		.uleb128 0x2
 2005 1d1a 5F6C6C64 		.ascii "_lld_global_h_ \0"
GAS LISTING C:\Users\PRESID~1\AppData\Local\Temp\ccPzc4yS.s 			page 58


 2005      5F676C6F 
 2005      62616C5F 
 2005      685F2000 
 2006              		.file 7 "E:/NeuOrga/Programmieren/c_cpp/github_os/input/src/os_sim/../os_base/../os_sim/lld_core.h
 2007 1d2a 03       		.byte	0x3
 2008 1d2b 04       		.uleb128 0x4
 2009 1d2c 07       		.uleb128 0x7
 2010 1d2d 01       		.byte	0x1
 2011 1d2e 02       		.uleb128 0x2
 2012 1d2f 5F6C6C64 		.ascii "_lld_core_h_ \0"
 2012      5F636F72 
 2012      655F685F 
 2012      2000
 2013              		.file 8 "E:/NeuOrga/Programmieren/c_cpp/github_os/input/src/os_sim/../os_base/../os_sim/../os_base
 2014 1d3d 03       		.byte	0x3
 2015 1d3e 03       		.uleb128 0x3
 2016 1d3f 08       		.uleb128 0x8
 2017 1d40 04       		.byte	0x4
 2018 1d41 04       		.byte	0x4
 2019              		.file 9 "E:/NeuOrga/Programmieren/c_cpp/github_os/input/src/os_sim/../os_base/../os_sim/lld_adc.h"
 2020 1d42 03       		.byte	0x3
 2021 1d43 05       		.uleb128 0x5
 2022 1d44 09       		.uleb128 0x9
 2023 1d45 01       		.byte	0x1
 2024 1d46 02       		.uleb128 0x2
 2025 1d47 5F6C6C64 		.ascii "_lld_adc_h_ \0"
 2025      5F616463 
 2025      5F685F20 
 2025      00
 2026 1d54 04       		.byte	0x4
 2027              		.file 10 "E:/NeuOrga/Programmieren/c_cpp/github_os/input/src/os_sim/../os_base/../os_sim/lld_can.h
 2028 1d55 03       		.byte	0x3
 2029 1d56 06       		.uleb128 0x6
 2030 1d57 0A       		.uleb128 0xa
 2031 1d58 01       		.byte	0x1
 2032 1d59 02       		.uleb128 0x2
 2033 1d5a 5F6C6C64 		.ascii "_lld_can_h_ \0"
 2033      5F63616E 
 2033      5F685F20 
 2033      00
 2034 1d67 04       		.byte	0x4
 2035              		.file 11 "E:/NeuOrga/Programmieren/c_cpp/github_os/input/src/os_sim/../os_base/../os_sim/lld_gpio.
 2036 1d68 03       		.byte	0x3
 2037 1d69 07       		.uleb128 0x7
 2038 1d6a 0B       		.uleb128 0xb
 2039 1d6b 01       		.byte	0x1
 2040 1d6c 02       		.uleb128 0x2
 2041 1d6d 5F6C6C64 		.ascii "_lld_gpio_h_ \0"
 2041      5F677069 
 2041      6F5F685F 
 2041      2000
 2042 1d7b 04       		.byte	0x4
 2043              		.file 12 "E:/NeuOrga/Programmieren/c_cpp/github_os/input/src/os_sim/../os_base/../os_sim/lld_inter
 2044 1d7c 03       		.byte	0x3
 2045 1d7d 08       		.uleb128 0x8
 2046 1d7e 0C       		.uleb128 0xc
 2047 1d7f 01       		.byte	0x1
GAS LISTING C:\Users\PRESID~1\AppData\Local\Temp\ccPzc4yS.s 			page 59


 2048 1d80 02       		.uleb128 0x2
 2049 1d81 5F6C6C64 		.ascii "_lld_interrupt_h_ \0"
 2049      5F696E74 
 2049      65727275 
 2049      70745F68 
 2049      5F2000
 2050 1d94 01       		.byte	0x1
 2051 1d95 05       		.uleb128 0x5
 2052 1d96 6F735F69 		.ascii "os_interrupt_swi_1 asm(\"swi 1\")\0"
 2052      6E746572 
 2052      72757074 
 2052      5F737769 
 2052      5F312061 
 2053 1db6 01       		.byte	0x1
 2054 1db7 06       		.uleb128 0x6
 2055 1db8 6F735F69 		.ascii "os_interrupt_swi_2 asm(\"swi 2\")\0"
 2055      6E746572 
 2055      72757074 
 2055      5F737769 
 2055      5F322061 
 2056 1dd8 01       		.byte	0x1
 2057 1dd9 07       		.uleb128 0x7
 2058 1dda 6F735F69 		.ascii "os_interrupt_swi_3 asm(\"swi 3\")\0"
 2058      6E746572 
 2058      72757074 
 2058      5F737769 
 2058      5F332061 
 2059 1dfa 01       		.byte	0x1
 2060 1dfb 08       		.uleb128 0x8
 2061 1dfc 6F735F69 		.ascii "os_interrupt_swi_4 asm(\"swi 4\")\0"
 2061      6E746572 
 2061      72757074 
 2061      5F737769 
 2061      5F342061 
 2062 1e1c 01       		.byte	0x1
 2063 1e1d 09       		.uleb128 0x9
 2064 1e1e 6F735F69 		.ascii "os_interrupt_swi_5 asm(\"swi 5\")\0"
 2064      6E746572 
 2064      72757074 
 2064      5F737769 
 2064      5F352061 
 2065 1e3e 04       		.byte	0x4
 2066              		.file 13 "E:/NeuOrga/Programmieren/c_cpp/github_os/input/src/os_sim/../os_base/../os_sim/lld_mmu.h
 2067 1e3f 03       		.byte	0x3
 2068 1e40 09       		.uleb128 0x9
 2069 1e41 0D       		.uleb128 0xd
 2070 1e42 01       		.byte	0x1
 2071 1e43 02       		.uleb128 0x2
 2072 1e44 5F6C6C64 		.ascii "_lld_mmu_h_ \0"
 2072      5F6D6D75 
 2072      5F685F20 
 2072      00
 2073 1e51 03       		.byte	0x3
 2074 1e52 04       		.uleb128 0x4
 2075 1e53 06       		.uleb128 0x6
 2076 1e54 04       		.byte	0x4
 2077 1e55 04       		.byte	0x4
GAS LISTING C:\Users\PRESID~1\AppData\Local\Temp\ccPzc4yS.s 			page 60


 2078              		.file 14 "E:/NeuOrga/Programmieren/c_cpp/github_os/input/src/os_sim/../os_base/../os_sim/lld_timer
 2079 1e56 03       		.byte	0x3
 2080 1e57 0A       		.uleb128 0xa
 2081 1e58 0E       		.uleb128 0xe
 2082 1e59 01       		.byte	0x1
 2083 1e5a 02       		.uleb128 0x2
 2084 1e5b 5F6C6C64 		.ascii "_lld_timer_h_ \0"
 2084      5F74696D 
 2084      65725F68 
 2084      5F2000
 2085 1e6a 04       		.byte	0x4
 2086              		.file 15 "E:/NeuOrga/Programmieren/c_cpp/github_os/input/src/os_sim/../os_base/../os_sim/lld_power
 2087 1e6b 03       		.byte	0x3
 2088 1e6c 0B       		.uleb128 0xb
 2089 1e6d 0F       		.uleb128 0xf
 2090 1e6e 01       		.byte	0x1
 2091 1e6f 02       		.uleb128 0x2
 2092 1e70 5F6C6C64 		.ascii "_lld_power_h_ \0"
 2092      5F706F77 
 2092      65725F68 
 2092      5F2000
 2093 1e7f 04       		.byte	0x4
 2094              		.file 16 "E:/NeuOrga/Programmieren/c_cpp/github_os/input/src/os_sim/../os_base/../os_sim/lld_ram.h
 2095 1e80 03       		.byte	0x3
 2096 1e81 0C       		.uleb128 0xc
 2097 1e82 10       		.uleb128 0x10
 2098 1e83 01       		.byte	0x1
 2099 1e84 02       		.uleb128 0x2
 2100 1e85 5F6C6C64 		.ascii "_lld_ram_h_ \0"
 2100      5F72616D 
 2100      5F685F20 
 2100      00
 2101 1e92 04       		.byte	0x4
 2102              		.file 17 "E:/NeuOrga/Programmieren/c_cpp/github_os/input/src/os_sim/../os_base/../os_sim/lld_watch
 2103 1e93 03       		.byte	0x3
 2104 1e94 0D       		.uleb128 0xd
 2105 1e95 11       		.uleb128 0x11
 2106 1e96 01       		.byte	0x1
 2107 1e97 02       		.uleb128 0x2
 2108 1e98 5F6C6C64 		.ascii "_lld_watchdog_h_ \0"
 2108      5F776174 
 2108      6368646F 
 2108      675F685F 
 2108      2000
 2109 1eaa 04       		.byte	0x4
 2110              		.file 18 "E:/NeuOrga/Programmieren/c_cpp/github_os/input/src/os_sim/../os_base/../os_sim/../os_bas
 2111 1eab 03       		.byte	0x3
 2112 1eac 0E       		.uleb128 0xe
 2113 1ead 12       		.uleb128 0x12
 2114 1eae 01       		.byte	0x1
 2115 1eaf 02       		.uleb128 0x2
 2116 1eb0 5F6F735F 		.ascii "_os_task_common_h_ \0"
 2116      7461736B 
 2116      5F636F6D 
 2116      6D6F6E5F 
 2116      685F2000 
 2117              		.file 19 "E:/NeuOrga/Programmieren/c_cpp/github_os/input/src/os_sim/../os_base/../os_sim/../os_bas
GAS LISTING C:\Users\PRESID~1\AppData\Local\Temp\ccPzc4yS.s 			page 61


 2118 1ec4 03       		.byte	0x3
 2119 1ec5 04       		.uleb128 0x4
 2120 1ec6 13       		.uleb128 0x13
 2121 1ec7 01       		.byte	0x1
 2122 1ec8 02       		.uleb128 0x2
 2123 1ec9 5F6F735F 		.ascii "_os_task_config_h_ \0"
 2123      7461736B 
 2123      5F636F6E 
 2123      6669675F 
 2123      685F2000 
 2124 1edd 01       		.byte	0x1
 2125 1ede 05       		.uleb128 0x5
 2126 1edf 53636865 		.ascii "SchedulerFrequency (1.0e3)\0"
 2126      64756C65 
 2126      72467265 
 2126      7175656E 
 2126      63792028 
 2127 1efa 01       		.byte	0x1
 2128 1efb 06       		.uleb128 0x6
 2129 1efc 4D696E54 		.ascii "MinTimeSlice_s (1.0/SchedulerFrequency)\0"
 2129      696D6553 
 2129      6C696365 
 2129      5F732028 
 2129      312E302F 
 2130 1f24 01       		.byte	0x1
 2131 1f25 07       		.uleb128 0x7
 2132 1f26 4D696E54 		.ascii "MinTimeSlice_us ((1.0/SchedulerFrequency)*1e6)\0"
 2132      696D6553 
 2132      6C696365 
 2132      5F757320 
 2132      2828312E 
 2133 1f55 01       		.byte	0x1
 2134 1f56 08       		.uleb128 0x8
 2135 1f57 5461736B 		.ascii "Task_min_time (1e0)\0"
 2135      5F6D696E 
 2135      5F74696D 
 2135      65202831 
 2135      65302900 
 2136 1f6b 01       		.byte	0x1
 2137 1f6c 09       		.uleb128 0x9
 2138 1f6d 4E554D42 		.ascii "NUMBER_OF_TASKS 5\0"
 2138      45525F4F 
 2138      465F5441 
 2138      534B5320 
 2138      3500
 2139 1f7f 01       		.byte	0x1
 2140 1f80 0A       		.uleb128 0xa
 2141 1f81 4D41585F 		.ascii "MAX_RUN_QUEUE_SIZE (NUMBER_OF_TASKS)\0"
 2141      52554E5F 
 2141      51554555 
 2141      455F5349 
 2141      5A452028 
 2142 1fa6 01       		.byte	0x1
 2143 1fa7 0B       		.uleb128 0xb
 2144 1fa8 4D41585F 		.ascii "MAX_RUN_PQUEUE_SIZE MAX_RUN_QUEUE_SIZE\0"
 2144      52554E5F 
 2144      50515545 
GAS LISTING C:\Users\PRESID~1\AppData\Local\Temp\ccPzc4yS.s 			page 62


 2144      55455F53 
 2144      495A4520 
 2145 1fcf 01       		.byte	0x1
 2146 1fd0 0D       		.uleb128 0xd
 2147 1fd1 5441534B 		.ascii "TASK_STACK_SIZE 200\0"
 2147      5F535441 
 2147      434B5F53 
 2147      495A4520 
 2147      32303000 
 2148 1fe5 01       		.byte	0x1
 2149 1fe6 10       		.uleb128 0x10
 2150 1fe7 4D535F50 		.ascii "MS_PER_SEC (1000)\0"
 2150      45525F53 
 2150      45432028 
 2150      31303030 
 2150      2900
 2151 1ff9 01       		.byte	0x1
 2152 1ffa 11       		.uleb128 0x11
 2153 1ffb 5553455F 		.ascii "USE_STATIC_CREATED_TASKS True\0"
 2153      53544154 
 2153      49435F43 
 2153      52454154 
 2153      45445F54 
 2154 2019 04       		.byte	0x4
 2155              		.file 20 "E:/NeuOrga/Programmieren/c_cpp/github_os/input/src/os_sim/../os_base/../os_sim/../os_bas
 2156 201a 03       		.byte	0x3
 2157 201b 05       		.uleb128 0x5
 2158 201c 14       		.uleb128 0x14
 2159 201d 01       		.byte	0x1
 2160 201e 02       		.uleb128 0x2
 2161 201f 5F6F735F 		.ascii "_os_init_task_system_h_ \0"
 2161      696E6974 
 2161      5F746173 
 2161      6B5F7379 
 2161      7374656D 
 2162 2038 04       		.byte	0x4
 2163 2039 01       		.byte	0x1
 2164 203a 5C       		.uleb128 0x5c
 2165 203b 6F735F53 		.ascii "os_SaveTaskPtr(task_ptr,task_name) (TASK_PTR[(task_name)] = (task_ptr))\0"
 2165      61766554 
 2165      61736B50 
 2165      74722874 
 2165      61736B5F 
 2166 2083 01       		.byte	0x1
 2167 2084 5D       		.uleb128 0x5d
 2168 2085 6F735F47 		.ascii "os_GetTaskPtr(task_name) ((task_t*) TASK_PTR[(task_name)])\0"
 2168      65745461 
 2168      736B5074 
 2168      72287461 
 2168      736B5F6E 
 2169 20c0 04       		.byte	0x4
 2170 20c1 04       		.byte	0x4
 2171 20c2 04       		.byte	0x4
 2172 20c3 03       		.byte	0x3
 2173 20c4 02       		.uleb128 0x2
 2174 20c5 03       		.uleb128 0x3
 2175 20c6 01       		.byte	0x1
GAS LISTING C:\Users\PRESID~1\AppData\Local\Temp\ccPzc4yS.s 			page 63


 2176 20c7 02       		.uleb128 0x2
 2177 20c8 5F68616C 		.ascii "_hal_driver_fs_fat_h_ \0"
 2177      5F647269 
 2177      7665725F 
 2177      66735F66 
 2177      61745F68 
 2178              		.file 21 "E:/NeuOrga/Programmieren/c_cpp/github_os/input/src/os_sim/../os_drivers/../os_base/os_fi
 2179 20df 03       		.byte	0x3
 2180 20e0 03       		.uleb128 0x3
 2181 20e1 15       		.uleb128 0x15
 2182 20e2 04       		.byte	0x4
 2183 20e3 04       		.byte	0x4
 2184 20e4 01       		.byte	0x1
 2185 20e5 04       		.uleb128 0x4
 2186 20e6 4E525F4F 		.ascii "NR_OF_FILE_HANDLERS 5\0"
 2186      465F4649 
 2186      4C455F48 
 2186      414E444C 
 2186      45525320 
 2187 20fc 04       		.byte	0x4
 2188 20fd 00       		.byte	0
 2189              		.section	.debug_line,"dr"
 2190              	Ldebug_line0:
 2191 0000 26040000 		.section	.debug_str,"dr"
 2191      02008D03 
 2191      00000101 
 2191      FB0E0D00 
 2191      01010101 
 2192              	LASF1:
 2193 0000 66696C65 		.ascii "file_ptr\0"
 2193      5F707472 
 2193      00
 2194              	LASF0:
 2195 0009 66696C65 		.ascii "filename\0"
 2195      6E616D65 
 2195      00
 2196              	LASF2:
 2197 0012 73747265 		.ascii "stream\0"
 2197      616D00
 2198              		.ident	"GCC: (GNU) 4.9.3"
GAS LISTING C:\Users\PRESID~1\AppData\Local\Temp\ccPzc4yS.s 			page 64


DEFINED SYMBOLS
                            *ABS*:00000000 hal_driver_fs_fat.c
                            *COM*:00000014 _FILE_HANDLER_POOL
C:\Users\PRESID~1\AppData\Local\Temp\ccPzc4yS.s:5      .bss:00000000 _FILE_HANDLER_POOL_USED
C:\Users\PRESID~1\AppData\Local\Temp\ccPzc4yS.s:7      .text:00000000 _fopen
C:\Users\PRESID~1\AppData\Local\Temp\ccPzc4yS.s:191    .text:0000014b _freopen
C:\Users\PRESID~1\AppData\Local\Temp\ccPzc4yS.s:220    .text:00000170 _fflush
C:\Users\PRESID~1\AppData\Local\Temp\ccPzc4yS.s:237    .text:00000175 _fclose
C:\Users\PRESID~1\AppData\Local\Temp\ccPzc4yS.s:312    .text:000001f5 _remove
C:\Users\PRESID~1\AppData\Local\Temp\ccPzc4yS.s:330    .text:000001fa _rename
C:\Users\PRESID~1\AppData\Local\Temp\ccPzc4yS.s:348    .text:000001ff _fread
C:\Users\PRESID~1\AppData\Local\Temp\ccPzc4yS.s:366    .text:00000204 _fwrite

NO UNDEFINED SYMBOLS
