GAS LISTING C:\Users\PRESID~1\AppData\Local\Temp\ccHlv0Rz.s 			page 1


   1              		.file	"hal_driver_adc.c"
   2              		.text
   3              	Ltext0:
   4              		.globl	_GET_RAW_ADC_VALUE
   6              	_GET_RAW_ADC_VALUE:
   7              	LFB0:
   8              		.file 1 "E:/NeuOrga/Programmieren/c_cpp/github_os/input/src/os_sim/hal_driver_adc.c"
   1:E:/NeuOrga/Programmieren/c_cpp/github_os/input/src/os_sim\hal_driver_adc.c **** #include "..\os_base\os_firstinc.h"
   2:E:/NeuOrga/Programmieren/c_cpp/github_os/input/src/os_sim\hal_driver_adc.c **** #include "hal_driver_adc.h"
   3:E:/NeuOrga/Programmieren/c_cpp/github_os/input/src/os_sim\hal_driver_adc.c **** unsigned_int16_t GET_RAW_ADC_VALUE(adc_channel_t adc_channel)
   4:E:/NeuOrga/Programmieren/c_cpp/github_os/input/src/os_sim\hal_driver_adc.c **** {
   9              		.loc 1 4 0
  10              		.cfi_startproc
  11 0000 55       		pushl	%ebp
  12              		.cfi_def_cfa_offset 8
  13              		.cfi_offset 5, -8
  14 0001 89E5     		movl	%esp, %ebp
  15              		.cfi_def_cfa_register 5
  16 0003 83EC04   		subl	$4, %esp
  17 0006 8B4508   		movl	8(%ebp), %eax
  18 0009 668945FC 		movw	%ax, -4(%ebp)
   5:E:/NeuOrga/Programmieren/c_cpp/github_os/input/src/os_sim\hal_driver_adc.c ****    ReferenceUnusedParameter(adc_channel);
   6:E:/NeuOrga/Programmieren/c_cpp/github_os/input/src/os_sim\hal_driver_adc.c ****    /*#warn "GET_RAW_ADC_VALUE not supported on windows"*/
   7:E:/NeuOrga/Programmieren/c_cpp/github_os/input/src/os_sim\hal_driver_adc.c ****    return 0;
  19              		.loc 1 7 0
  20 000d B8000000 		movl	$0, %eax
  20      00
   8:E:/NeuOrga/Programmieren/c_cpp/github_os/input/src/os_sim\hal_driver_adc.c **** }...
  21              		.loc 1 8 0
  22 0012 C9       		leave
  23              		.cfi_restore 5
  24              		.cfi_def_cfa 4, 4
  25 0013 C3       		ret
  26              		.cfi_endproc
  27              	LFE0:
  28              	Letext0:
  29              		.file 2 "E:/NeuOrga/Programmieren/c_cpp/github_os/input/src/os_sim/../os_base/../os_base/os_base_t
  30              		.file 3 "E:/NeuOrga/Programmieren/c_cpp/github_os/input/src/os_sim/hal_driver_adc.h"