GAS LISTING C:\Users\PRESID~1\AppData\Local\Temp\ccPzc4yS.s 			page 1


   1              		.file	"hal_driver_fs_fat.c"
   2              		.text
   3              	Ltext0:
   4              		.comm	_FILE_HANDLER_POOL, 20, 2
   5              	.lcomm _FILE_HANDLER_POOL_USED,20,4
   7              	_fopen:
   8              	LFB0:
   9              		.file 1 "E:/NeuOrga/Programmieren/c_cpp/github_os/input/src/os_sim/hal_driver_fs_fat.c"
   1:E:/NeuOrga/Programmieren/c_cpp/github_os/input/src/os_sim\hal_driver_fs_fat.c **** #include "..\os_base\os_firstinc.h"
   2:E:/NeuOrga/Programmieren/c_cpp/github_os/input/src/os_sim\hal_driver_fs_fat.c **** #include "..\os_drivers\hal_driver_fs_fat.h"
   3:E:/NeuOrga/Programmieren/c_cpp/github_os/input/src/os_sim\hal_driver_fs_fat.c **** 
   4:E:/NeuOrga/Programmieren/c_cpp/github_os/input/src/os_sim\hal_driver_fs_fat.c **** #define NR_OF_FILE_HANDLERS 5
   5:E:/NeuOrga/Programmieren/c_cpp/github_os/input/src/os_sim\hal_driver_fs_fat.c **** 
   6:E:/NeuOrga/Programmieren/c_cpp/github_os/input/src/os_sim\hal_driver_fs_fat.c **** FILE* FILE_HANDLER_POOL[NR_OF_FILE_HANDLERS];
   7:E:/NeuOrga/Programmieren/c_cpp/github_os/input/src/os_sim\hal_driver_fs_fat.c **** static unsigned FILE_HANDLER_POOL_USED[NR_OF_FILE_HANDLERS];
   8:E:/NeuOrga/Programmieren/c_cpp/github_os/input/src/os_sim\hal_driver_fs_fat.c **** Local FILE* fopen(const char *filename, const char *mode);
   9:E:/NeuOrga/Programmieren/c_cpp/github_os/input/src/os_sim\hal_driver_fs_fat.c **** Local int fclose(FILE* file_ptr);
  10:E:/NeuOrga/Programmieren/c_cpp/github_os/input/src/os_sim\hal_driver_fs_fat.c **** 
  11:E:/NeuOrga/Programmieren/c_cpp/github_os/input/src/os_sim\hal_driver_fs_fat.c **** FILE* fopen(const char *filename, const char *mode)
  12:E:/NeuOrga/Programmieren/c_cpp/github_os/input/src/os_sim\hal_driver_fs_fat.c **** {
  10              		.loc 1 12 0
  11              		.cfi_startproc
  12 0000 55       		pushl	%ebp
  13              		.cfi_def_cfa_offset 8
  14              		.cfi_offset 5, -8
  15 0001 89E5     		movl	%esp, %ebp
  16              		.cfi_def_cfa_register 5
  17 0003 83EC10   		subl	$16, %esp
  13:E:/NeuOrga/Programmieren/c_cpp/github_os/input/src/os_sim\hal_driver_fs_fat.c ****    uint32 i;
  14:E:/NeuOrga/Programmieren/c_cpp/github_os/input/src/os_sim\hal_driver_fs_fat.c ****    FILE* file_ptr = 0;
  18              		.loc 1 14 0
  19 0006 C745F800 		movl	$0, -8(%ebp)
  19      000000
  15:E:/NeuOrga/Programmieren/c_cpp/github_os/input/src/os_sim\hal_driver_fs_fat.c ****    uint32 current_file_obj_number = 0;
  20              		.loc 1 15 0
  21 000d C745F400 		movl	$0, -12(%ebp)
  21      000000
  16:E:/NeuOrga/Programmieren/c_cpp/github_os/input/src/os_sim\hal_driver_fs_fat.c **** 
  17:E:/NeuOrga/Programmieren/c_cpp/github_os/input/src/os_sim\hal_driver_fs_fat.c ****    for(i = 0; i < NR_OF_FILE_HANDLERS; i++)
  22              		.loc 1 17 0
  23 0014 C745FC00 		movl	$0, -4(%ebp)
  23      000000
  24 001b E91C0100 		jmp	L2
  24      00
  25              	L21:
  18:E:/NeuOrga/Programmieren/c_cpp/github_os/input/src/os_sim\hal_driver_fs_fat.c ****    {
  19:E:/NeuOrga/Programmieren/c_cpp/github_os/input/src/os_sim\hal_driver_fs_fat.c ****       if(FILE_HANDLER_POOL_USED[i] == False)
  26              		.loc 1 19 0
  27 0020 8B45FC   		movl	-4(%ebp), %eax
  28 0023 8B048500 		movl	_FILE_HANDLER_POOL_USED(,%eax,4), %eax
  28      000000
  29 002a 85C0     		testl	%eax, %eax
  30 002c 0F850701 		jne	L3
  30      0000
  20:E:/NeuOrga/Programmieren/c_cpp/github_os/input/src/os_sim\hal_driver_fs_fat.c ****       {
  21:E:/NeuOrga/Programmieren/c_cpp/github_os/input/src/os_sim\hal_driver_fs_fat.c ****          /* get the next free object number */
  22:E:/NeuOrga/Programmieren/c_cpp/github_os/input/src/os_sim\hal_driver_fs_fat.c ****          FILE_HANDLER_POOL_USED[i] = True;
GAS LISTING C:\Users\PRESID~1\AppData\Local\Temp\ccPzc4yS.s 			page 2


  31              		.loc 1 22 0
  32 0032 8B45FC   		movl	-4(%ebp), %eax
  33 0035 C7048500 		movl	$1, _FILE_HANDLER_POOL_USED(,%eax,4)
  33      00000001 
  33      000000
  23:E:/NeuOrga/Programmieren/c_cpp/github_os/input/src/os_sim\hal_driver_fs_fat.c ****          current_file_obj_number   = i;
  34              		.loc 1 23 0
  35 0040 8B45FC   		movl	-4(%ebp), %eax
  36 0043 8945F4   		movl	%eax, -12(%ebp)
  24:E:/NeuOrga/Programmieren/c_cpp/github_os/input/src/os_sim\hal_driver_fs_fat.c **** 
  25:E:/NeuOrga/Programmieren/c_cpp/github_os/input/src/os_sim\hal_driver_fs_fat.c ****          /* get the next free object (via ptr)*/
  26:E:/NeuOrga/Programmieren/c_cpp/github_os/input/src/os_sim\hal_driver_fs_fat.c ****          file_ptr = FILE_HANDLER_POOL[current_file_obj_number];
  37              		.loc 1 26 0
  38 0046 8B45F4   		movl	-12(%ebp), %eax
  39 0049 8B048500 		movl	_FILE_HANDLER_POOL(,%eax,4), %eax
  39      000000
  40 0050 8945F8   		movl	%eax, -8(%ebp)
  27:E:/NeuOrga/Programmieren/c_cpp/github_os/input/src/os_sim\hal_driver_fs_fat.c **** 
  28:E:/NeuOrga/Programmieren/c_cpp/github_os/input/src/os_sim\hal_driver_fs_fat.c ****          /* set the mode:
  29:E:/NeuOrga/Programmieren/c_cpp/github_os/input/src/os_sim\hal_driver_fs_fat.c ****          "r"	Textdatei zum lesen und eröffnen
  30:E:/NeuOrga/Programmieren/c_cpp/github_os/input/src/os_sim\hal_driver_fs_fat.c ****          "w"	Textdatei zum Schreiben erzeugen; gegebenenfalls alten Inhalt wegwerfen
  31:E:/NeuOrga/Programmieren/c_cpp/github_os/input/src/os_sim\hal_driver_fs_fat.c ****          "a"	anfügen; Textdatei zum Schreiben am Dateiende eröffnen oder erzeugen
  32:E:/NeuOrga/Programmieren/c_cpp/github_os/input/src/os_sim\hal_driver_fs_fat.c ****          "r+"	Textdatei zum Ändern eröffnen (Lesen und Schreiben)
  33:E:/NeuOrga/Programmieren/c_cpp/github_os/input/src/os_sim\hal_driver_fs_fat.c ****          "w+"	Textdatei zum Ändern erzeugen; gegebenenfalls alten Inhalt wegwerfen
  34:E:/NeuOrga/Programmieren/c_cpp/github_os/input/src/os_sim\hal_driver_fs_fat.c ****          "a+"	anfügen; Textdatei zum Ändern eröffnen oder erzeugen, Schreiben am Ende*/
  35:E:/NeuOrga/Programmieren/c_cpp/github_os/input/src/os_sim\hal_driver_fs_fat.c ****          switch(*mode)
  41              		.loc 1 35 0
  42 0053 8B450C   		movl	12(%ebp), %eax
  43 0056 8A00     		movb	(%eax), %al
  44 0058 0FBEC0   		movsbl	%al, %eax
  45 005b 83F872   		cmpl	$114, %eax
  46 005e 740C     		je	L5
  47 0060 83F877   		cmpl	$119, %eax
  48 0063 7429     		je	L6
  49 0065 83F861   		cmpl	$97, %eax
  50 0068 7446     		je	L7
  36:E:/NeuOrga/Programmieren/c_cpp/github_os/input/src/os_sim\hal_driver_fs_fat.c ****          {
  37:E:/NeuOrga/Programmieren/c_cpp/github_os/input/src/os_sim\hal_driver_fs_fat.c ****          case 'r':
  38:E:/NeuOrga/Programmieren/c_cpp/github_os/input/src/os_sim\hal_driver_fs_fat.c ****             if(*(mode+1) == '+')
  39:E:/NeuOrga/Programmieren/c_cpp/github_os/input/src/os_sim\hal_driver_fs_fat.c ****             {
  40:E:/NeuOrga/Programmieren/c_cpp/github_os/input/src/os_sim\hal_driver_fs_fat.c ****                file_ptr->mode_rplus = True;
  41:E:/NeuOrga/Programmieren/c_cpp/github_os/input/src/os_sim\hal_driver_fs_fat.c ****             }
  42:E:/NeuOrga/Programmieren/c_cpp/github_os/input/src/os_sim\hal_driver_fs_fat.c ****             else
  43:E:/NeuOrga/Programmieren/c_cpp/github_os/input/src/os_sim\hal_driver_fs_fat.c ****             {
  44:E:/NeuOrga/Programmieren/c_cpp/github_os/input/src/os_sim\hal_driver_fs_fat.c ****                file_ptr->mode_r = True;
  45:E:/NeuOrga/Programmieren/c_cpp/github_os/input/src/os_sim\hal_driver_fs_fat.c ****             }
  46:E:/NeuOrga/Programmieren/c_cpp/github_os/input/src/os_sim\hal_driver_fs_fat.c ****             break;
  47:E:/NeuOrga/Programmieren/c_cpp/github_os/input/src/os_sim\hal_driver_fs_fat.c ****          case 'w':
  48:E:/NeuOrga/Programmieren/c_cpp/github_os/input/src/os_sim\hal_driver_fs_fat.c ****             if(*(mode+1) == '+')
  49:E:/NeuOrga/Programmieren/c_cpp/github_os/input/src/os_sim\hal_driver_fs_fat.c ****             {
  50:E:/NeuOrga/Programmieren/c_cpp/github_os/input/src/os_sim\hal_driver_fs_fat.c ****                file_ptr->mode_wplus = True;
  51:E:/NeuOrga/Programmieren/c_cpp/github_os/input/src/os_sim\hal_driver_fs_fat.c ****             }
  52:E:/NeuOrga/Programmieren/c_cpp/github_os/input/src/os_sim\hal_driver_fs_fat.c ****             else
  53:E:/NeuOrga/Programmieren/c_cpp/github_os/input/src/os_sim\hal_driver_fs_fat.c ****             {
  54:E:/NeuOrga/Programmieren/c_cpp/github_os/input/src/os_sim\hal_driver_fs_fat.c ****                file_ptr->mode_w = True;
  55:E:/NeuOrga/Programmieren/c_cpp/github_os/input/src/os_sim\hal_driver_fs_fat.c ****             }
  56:E:/NeuOrga/Programmieren/c_cpp/github_os/input/src/os_sim\hal_driver_fs_fat.c ****             break;
GAS LISTING C:\Users\PRESID~1\AppData\Local\Temp\ccPzc4yS.s 			page 3


  57:E:/NeuOrga/Programmieren/c_cpp/github_os/input/src/os_sim\hal_driver_fs_fat.c ****          case 'a':
  58:E:/NeuOrga/Programmieren/c_cpp/github_os/input/src/os_sim\hal_driver_fs_fat.c ****             if(*(mode+1) == '+')
  59:E:/NeuOrga/Programmieren/c_cpp/github_os/input/src/os_sim\hal_driver_fs_fat.c ****             {
  60:E:/NeuOrga/Programmieren/c_cpp/github_os/input/src/os_sim\hal_driver_fs_fat.c ****                file_ptr->mode_aplus = True;
  61:E:/NeuOrga/Programmieren/c_cpp/github_os/input/src/os_sim\hal_driver_fs_fat.c ****             }
  62:E:/NeuOrga/Programmieren/c_cpp/github_os/input/src/os_sim\hal_driver_fs_fat.c ****             else
  63:E:/NeuOrga/Programmieren/c_cpp/github_os/input/src/os_sim\hal_driver_fs_fat.c ****             {
  64:E:/NeuOrga/Programmieren/c_cpp/github_os/input/src/os_sim\hal_driver_fs_fat.c ****                file_ptr->mode_a = True;
  65:E:/NeuOrga/Programmieren/c_cpp/github_os/input/src/os_sim\hal_driver_fs_fat.c ****             }
  66:E:/NeuOrga/Programmieren/c_cpp/github_os/input/src/os_sim\hal_driver_fs_fat.c ****             break;
  67:E:/NeuOrga/Programmieren/c_cpp/github_os/input/src/os_sim\hal_driver_fs_fat.c ****          default:
  68:E:/NeuOrga/Programmieren/c_cpp/github_os/input/src/os_sim\hal_driver_fs_fat.c ****             break;
  51              		.loc 1 68 0
  52 006a EB65     		jmp	L10
  53              	L5:
  38:E:/NeuOrga/Programmieren/c_cpp/github_os/input/src/os_sim\hal_driver_fs_fat.c ****             {
  54              		.loc 1 38 0
  55 006c 8B450C   		movl	12(%ebp), %eax
  56 006f 40       		incl	%eax
  57 0070 8A00     		movb	(%eax), %al
  58 0072 3C2B     		cmpb	$43, %al
  59 0074 750C     		jne	L8
  40:E:/NeuOrga/Programmieren/c_cpp/github_os/input/src/os_sim\hal_driver_fs_fat.c ****             }
  60              		.loc 1 40 0
  61 0076 8B45F8   		movl	-8(%ebp), %eax
  62 0079 8A10     		movb	(%eax), %dl
  63 007b 83CA08   		orl	$8, %edx
  64 007e 8810     		movb	%dl, (%eax)
  46:E:/NeuOrga/Programmieren/c_cpp/github_os/input/src/os_sim\hal_driver_fs_fat.c ****          case 'w':
  65              		.loc 1 46 0
  66 0080 EB4F     		jmp	L10
  67              	L8:
  44:E:/NeuOrga/Programmieren/c_cpp/github_os/input/src/os_sim\hal_driver_fs_fat.c ****             }
  68              		.loc 1 44 0
  69 0082 8B45F8   		movl	-8(%ebp), %eax
  70 0085 8A10     		movb	(%eax), %dl
  71 0087 83CA01   		orl	$1, %edx
  72 008a 8810     		movb	%dl, (%eax)
  46:E:/NeuOrga/Programmieren/c_cpp/github_os/input/src/os_sim\hal_driver_fs_fat.c ****          case 'w':
  73              		.loc 1 46 0
  74 008c EB43     		jmp	L10
  75              	L6:
  48:E:/NeuOrga/Programmieren/c_cpp/github_os/input/src/os_sim\hal_driver_fs_fat.c ****             {
  76              		.loc 1 48 0
  77 008e 8B450C   		movl	12(%ebp), %eax
  78 0091 40       		incl	%eax
  79 0092 8A00     		movb	(%eax), %al
  80 0094 3C2B     		cmpb	$43, %al
  81 0096 750C     		jne	L11
  50:E:/NeuOrga/Programmieren/c_cpp/github_os/input/src/os_sim\hal_driver_fs_fat.c ****             }
  82              		.loc 1 50 0
  83 0098 8B45F8   		movl	-8(%ebp), %eax
  84 009b 8A10     		movb	(%eax), %dl
  85 009d 83CA10   		orl	$16, %edx
  86 00a0 8810     		movb	%dl, (%eax)
  56:E:/NeuOrga/Programmieren/c_cpp/github_os/input/src/os_sim\hal_driver_fs_fat.c ****          case 'a':
  87              		.loc 1 56 0
GAS LISTING C:\Users\PRESID~1\AppData\Local\Temp\ccPzc4yS.s 			page 4


  88 00a2 EB2D     		jmp	L10
  89              	L11:
  54:E:/NeuOrga/Programmieren/c_cpp/github_os/input/src/os_sim\hal_driver_fs_fat.c ****             }
  90              		.loc 1 54 0
  91 00a4 8B45F8   		movl	-8(%ebp), %eax
  92 00a7 8A10     		movb	(%eax), %dl
  93 00a9 83CA02   		orl	$2, %edx
  94 00ac 8810     		movb	%dl, (%eax)
  56:E:/NeuOrga/Programmieren/c_cpp/github_os/input/src/os_sim\hal_driver_fs_fat.c ****          case 'a':
  95              		.loc 1 56 0
  96 00ae EB21     		jmp	L10
  97              	L7:
  58:E:/NeuOrga/Programmieren/c_cpp/github_os/input/src/os_sim\hal_driver_fs_fat.c ****             {
  98              		.loc 1 58 0
  99 00b0 8B450C   		movl	12(%ebp), %eax
 100 00b3 40       		incl	%eax
 101 00b4 8A00     		movb	(%eax), %al
 102 00b6 3C2B     		cmpb	$43, %al
 103 00b8 750C     		jne	L13
  60:E:/NeuOrga/Programmieren/c_cpp/github_os/input/src/os_sim\hal_driver_fs_fat.c ****             }
 104              		.loc 1 60 0
 105 00ba 8B45F8   		movl	-8(%ebp), %eax
 106 00bd 8A10     		movb	(%eax), %dl
 107 00bf 83CA20   		orl	$32, %edx
 108 00c2 8810     		movb	%dl, (%eax)
  66:E:/NeuOrga/Programmieren/c_cpp/github_os/input/src/os_sim\hal_driver_fs_fat.c ****          default:
 109              		.loc 1 66 0
 110 00c4 EB0A     		jmp	L23
 111              	L13:
  64:E:/NeuOrga/Programmieren/c_cpp/github_os/input/src/os_sim\hal_driver_fs_fat.c ****             }
 112              		.loc 1 64 0
 113 00c6 8B45F8   		movl	-8(%ebp), %eax
 114 00c9 8A10     		movb	(%eax), %dl
 115 00cb 83CA04   		orl	$4, %edx
 116 00ce 8810     		movb	%dl, (%eax)
 117              	L23:
  66:E:/NeuOrga/Programmieren/c_cpp/github_os/input/src/os_sim\hal_driver_fs_fat.c ****          default:
 118              		.loc 1 66 0
 119 00d0 90       		nop
 120              	L10:
  69:E:/NeuOrga/Programmieren/c_cpp/github_os/input/src/os_sim\hal_driver_fs_fat.c ****          }
  70:E:/NeuOrga/Programmieren/c_cpp/github_os/input/src/os_sim\hal_driver_fs_fat.c ****          /* copy the file name */
  71:E:/NeuOrga/Programmieren/c_cpp/github_os/input/src/os_sim\hal_driver_fs_fat.c ****          for(i = 0; (i < file_ptr->max_file_name_size); i++ )
 121              		.loc 1 71 0
 122 00d1 C745FC00 		movl	$0, -4(%ebp)
 122      000000
 123 00d8 EB1F     		jmp	L15
 124              	L18:
  72:E:/NeuOrga/Programmieren/c_cpp/github_os/input/src/os_sim\hal_driver_fs_fat.c ****          {
  73:E:/NeuOrga/Programmieren/c_cpp/github_os/input/src/os_sim\hal_driver_fs_fat.c ****             if( *(filename+i)=='\0' )
 125              		.loc 1 73 0
 126 00da 8B5508   		movl	8(%ebp), %edx
 127 00dd 8B45FC   		movl	-4(%ebp), %eax
 128 00e0 01D0     		addl	%edx, %eax
 129 00e2 8A00     		movb	(%eax), %al
 130 00e4 84C0     		testb	%al, %al
 131 00e6 750E     		jne	L16
GAS LISTING C:\Users\PRESID~1\AppData\Local\Temp\ccPzc4yS.s 			page 5


  74:E:/NeuOrga/Programmieren/c_cpp/github_os/input/src/os_sim\hal_driver_fs_fat.c ****             {
  75:E:/NeuOrga/Programmieren/c_cpp/github_os/input/src/os_sim\hal_driver_fs_fat.c ****                file_ptr->used_file_name_size = i+1;
 132              		.loc 1 75 0
 133 00e8 8B45FC   		movl	-4(%ebp), %eax
 134 00eb 8D5001   		leal	1(%eax), %edx
 135 00ee 8B45F8   		movl	-8(%ebp), %eax
 136 00f1 895008   		movl	%edx, 8(%eax)
  76:E:/NeuOrga/Programmieren/c_cpp/github_os/input/src/os_sim\hal_driver_fs_fat.c ****                break;
 137              		.loc 1 76 0
 138 00f4 EB0E     		jmp	L17
 139              	L16:
  71:E:/NeuOrga/Programmieren/c_cpp/github_os/input/src/os_sim\hal_driver_fs_fat.c ****          {
 140              		.loc 1 71 0 discriminator 2
 141 00f6 FF45FC   		incl	-4(%ebp)
 142              	L15:
  71:E:/NeuOrga/Programmieren/c_cpp/github_os/input/src/os_sim\hal_driver_fs_fat.c ****          {
 143              		.loc 1 71 0 is_stmt 0 discriminator 1
 144 00f9 8B45F8   		movl	-8(%ebp), %eax
 145 00fc 8B4004   		movl	4(%eax), %eax
 146 00ff 3B45FC   		cmpl	-4(%ebp), %eax
 147 0102 77D6     		ja	L18
 148              	L17:
  77:E:/NeuOrga/Programmieren/c_cpp/github_os/input/src/os_sim\hal_driver_fs_fat.c ****             }
  78:E:/NeuOrga/Programmieren/c_cpp/github_os/input/src/os_sim\hal_driver_fs_fat.c ****          }
  79:E:/NeuOrga/Programmieren/c_cpp/github_os/input/src/os_sim\hal_driver_fs_fat.c ****          for(i = 0; (i < file_ptr->used_file_name_size); i++ )
 149              		.loc 1 79 0 is_stmt 1
 150 0104 C745FC00 		movl	$0, -4(%ebp)
 150      000000
 151 010b EB1A     		jmp	L19
 152              	L20:
  80:E:/NeuOrga/Programmieren/c_cpp/github_os/input/src/os_sim\hal_driver_fs_fat.c ****          {
  81:E:/NeuOrga/Programmieren/c_cpp/github_os/input/src/os_sim\hal_driver_fs_fat.c ****             *(file_ptr->name+i) = *(filename+i);
 153              		.loc 1 81 0 discriminator 3
 154 010d 8B5508   		movl	8(%ebp), %edx
 155 0110 8B45FC   		movl	-4(%ebp), %eax
 156 0113 01D0     		addl	%edx, %eax
 157 0115 8A00     		movb	(%eax), %al
 158 0117 88C2     		movb	%al, %dl
 159 0119 8B4DF8   		movl	-8(%ebp), %ecx
 160 011c 8B45FC   		movl	-4(%ebp), %eax
 161 011f 01C8     		addl	%ecx, %eax
 162 0121 88500C   		movb	%dl, 12(%eax)
  79:E:/NeuOrga/Programmieren/c_cpp/github_os/input/src/os_sim\hal_driver_fs_fat.c ****          {
 163              		.loc 1 79 0 discriminator 3
 164 0124 FF45FC   		incl	-4(%ebp)
 165              	L19:
  79:E:/NeuOrga/Programmieren/c_cpp/github_os/input/src/os_sim\hal_driver_fs_fat.c ****          {
 166              		.loc 1 79 0 is_stmt 0 discriminator 1
 167 0127 8B45F8   		movl	-8(%ebp), %eax
 168 012a 8B4008   		movl	8(%eax), %eax
 169 012d 3B45FC   		cmpl	-4(%ebp), %eax
 170 0130 77DB     		ja	L20
  82:E:/NeuOrga/Programmieren/c_cpp/github_os/input/src/os_sim\hal_driver_fs_fat.c ****          }
  83:E:/NeuOrga/Programmieren/c_cpp/github_os/input/src/os_sim\hal_driver_fs_fat.c ****          if(1/*FS_FILE_EXISTS(file_ptr) == False*/)
  84:E:/NeuOrga/Programmieren/c_cpp/github_os/input/src/os_sim\hal_driver_fs_fat.c ****          {
  85:E:/NeuOrga/Programmieren/c_cpp/github_os/input/src/os_sim\hal_driver_fs_fat.c ****             file_ptr = 0;
 171              		.loc 1 85 0 is_stmt 1
GAS LISTING C:\Users\PRESID~1\AppData\Local\Temp\ccPzc4yS.s 			page 6


 172 0132 C745F800 		movl	$0, -8(%ebp)
 172      000000
 173              	L3:
  17:E:/NeuOrga/Programmieren/c_cpp/github_os/input/src/os_sim\hal_driver_fs_fat.c ****    {
 174              		.loc 1 17 0 discriminator 2
 175 0139 FF45FC   		incl	-4(%ebp)
 176              	L2:
  17:E:/NeuOrga/Programmieren/c_cpp/github_os/input/src/os_sim\hal_driver_fs_fat.c ****    {
 177              		.loc 1 17 0 is_stmt 0 discriminator 1
 178 013c 837DFC04 		cmpl	$4, -4(%ebp)
 179 0140 0F86DAFE 		jbe	L21
 179      FFFF
  86:E:/NeuOrga/Programmieren/c_cpp/github_os/input/src/os_sim\hal_driver_fs_fat.c ****          }
  87:E:/NeuOrga/Programmieren/c_cpp/github_os/input/src/os_sim\hal_driver_fs_fat.c ****       }
  88:E:/NeuOrga/Programmieren/c_cpp/github_os/input/src/os_sim\hal_driver_fs_fat.c ****    }
  89:E:/NeuOrga/Programmieren/c_cpp/github_os/input/src/os_sim\hal_driver_fs_fat.c ****    return file_ptr;
 180              		.loc 1 89 0 is_stmt 1
 181 0146 8B45F8   		movl	-8(%ebp), %eax
  90:E:/NeuOrga/Programmieren/c_cpp/github_os/input/src/os_sim\hal_driver_fs_fat.c **** }
 182              		.loc 1 90 0
 183 0149 C9       		leave
 184              		.cfi_restore 5
 185              		.cfi_def_cfa 4, 4
 186 014a C3       		ret
 187              		.cfi_endproc
 188              	LFE0:
 189              		.globl	_freopen
 191              	_freopen:
 192              	LFB1:
  91:E:/NeuOrga/Programmieren/c_cpp/github_os/input/src/os_sim\hal_driver_fs_fat.c **** FILE* freopen(const char *filename, const char *mode, FILE *stream)
  92:E:/NeuOrga/Programmieren/c_cpp/github_os/input/src/os_sim\hal_driver_fs_fat.c **** {
 193              		.loc 1 92 0
 194              		.cfi_startproc
 195 014b 55       		pushl	%ebp
 196              		.cfi_def_cfa_offset 8
 197              		.cfi_offset 5, -8
 198 014c 89E5     		movl	%esp, %ebp
 199              		.cfi_def_cfa_register 5
 200 014e 83EC18   		subl	$24, %esp
  93:E:/NeuOrga/Programmieren/c_cpp/github_os/input/src/os_sim\hal_driver_fs_fat.c ****    fclose(stream);
 201              		.loc 1 93 0
 202 0151 8B4510   		movl	16(%ebp), %eax
 203 0154 890424   		movl	%eax, (%esp)
 204 0157 E8190000 		call	_fclose
 204      00
  94:E:/NeuOrga/Programmieren/c_cpp/github_os/input/src/os_sim\hal_driver_fs_fat.c ****    return fopen(filename, mode);
 205              		.loc 1 94 0
 206 015c 8B450C   		movl	12(%ebp), %eax
 207 015f 89442404 		movl	%eax, 4(%esp)
 208 0163 8B4508   		movl	8(%ebp), %eax
 209 0166 890424   		movl	%eax, (%esp)
 210 0169 E892FEFF 		call	_fopen
 210      FF
  95:E:/NeuOrga/Programmieren/c_cpp/github_os/input/src/os_sim\hal_driver_fs_fat.c **** }
 211              		.loc 1 95 0
 212 016e C9       		leave
 213              		.cfi_restore 5
GAS LISTING C:\Users\PRESID~1\AppData\Local\Temp\ccPzc4yS.s 			page 7


 214              		.cfi_def_cfa 4, 4
 215 016f C3       		ret
 216              		.cfi_endproc
 217              	LFE1:
 218              		.globl	_fflush
 220              	_fflush:
 221              	LFB2:
  96:E:/NeuOrga/Programmieren/c_cpp/github_os/input/src/os_sim\hal_driver_fs_fat.c **** int fflush(FILE* stream)
  97:E:/NeuOrga/Programmieren/c_cpp/github_os/input/src/os_sim\hal_driver_fs_fat.c **** {
 222              		.loc 1 97 0
 223              		.cfi_startproc
 224 0170 55       		pushl	%ebp
 225              		.cfi_def_cfa_offset 8
 226              		.cfi_offset 5, -8
 227 0171 89E5     		movl	%esp, %ebp
 228              		.cfi_def_cfa_register 5
  98:E:/NeuOrga/Programmieren/c_cpp/github_os/input/src/os_sim\hal_driver_fs_fat.c ****    /* no buffering implemented -> no need for flush */
  99:E:/NeuOrga/Programmieren/c_cpp/github_os/input/src/os_sim\hal_driver_fs_fat.c **** }
 229              		.loc 1 99 0
 230 0173 5D       		popl	%ebp
 231              		.cfi_restore 5
 232              		.cfi_def_cfa 4, 4
 233 0174 C3       		ret
 234              		.cfi_endproc
 235              	LFE2:
 237              	_fclose:
 238              	LFB3:
 100:E:/NeuOrga/Programmieren/c_cpp/github_os/input/src/os_sim\hal_driver_fs_fat.c **** int fclose(FILE* file_ptr)
 101:E:/NeuOrga/Programmieren/c_cpp/github_os/input/src/os_sim\hal_driver_fs_fat.c **** {
 239              		.loc 1 101 0
 240              		.cfi_startproc
 241 0175 55       		pushl	%ebp
 242              		.cfi_def_cfa_offset 8
 243              		.cfi_offset 5, -8
 244 0176 89E5     		movl	%esp, %ebp
 245              		.cfi_def_cfa_register 5
 246 0178 83EC10   		subl	$16, %esp
 102:E:/NeuOrga/Programmieren/c_cpp/github_os/input/src/os_sim\hal_driver_fs_fat.c ****    uint8 i = 0;
 247              		.loc 1 102 0
 248 017b C645FF00 		movb	$0, -1(%ebp)
 103:E:/NeuOrga/Programmieren/c_cpp/github_os/input/src/os_sim\hal_driver_fs_fat.c **** 
 104:E:/NeuOrga/Programmieren/c_cpp/github_os/input/src/os_sim\hal_driver_fs_fat.c ****    file_ptr->mode_r = False;
 249              		.loc 1 104 0
 250 017f 8B4508   		movl	8(%ebp), %eax
 251 0182 8A10     		movb	(%eax), %dl
 252 0184 83E2FE   		andl	$-2, %edx
 253 0187 8810     		movb	%dl, (%eax)
 105:E:/NeuOrga/Programmieren/c_cpp/github_os/input/src/os_sim\hal_driver_fs_fat.c ****    file_ptr->mode_w = False;
 254              		.loc 1 105 0
 255 0189 8B4508   		movl	8(%ebp), %eax
 256 018c 8A10     		movb	(%eax), %dl
 257 018e 83E2FD   		andl	$-3, %edx
 258 0191 8810     		movb	%dl, (%eax)
 106:E:/NeuOrga/Programmieren/c_cpp/github_os/input/src/os_sim\hal_driver_fs_fat.c ****    file_ptr->mode_a = False;
 259              		.loc 1 106 0
 260 0193 8B4508   		movl	8(%ebp), %eax
 261 0196 8A10     		movb	(%eax), %dl
GAS LISTING C:\Users\PRESID~1\AppData\Local\Temp\ccPzc4yS.s 			page 8


 262 0198 83E2FB   		andl	$-5, %edx
 263 019b 8810     		movb	%dl, (%eax)
 107:E:/NeuOrga/Programmieren/c_cpp/github_os/input/src/os_sim\hal_driver_fs_fat.c ****    file_ptr->mode_rplus = False;
 264              		.loc 1 107 0
 265 019d 8B4508   		movl	8(%ebp), %eax
 266 01a0 8A10     		movb	(%eax), %dl
 267 01a2 83E2F7   		andl	$-9, %edx
 268 01a5 8810     		movb	%dl, (%eax)
 108:E:/NeuOrga/Programmieren/c_cpp/github_os/input/src/os_sim\hal_driver_fs_fat.c ****    file_ptr->mode_wplus = False;
 269              		.loc 1 108 0
 270 01a7 8B4508   		movl	8(%ebp), %eax
 271 01aa 8A10     		movb	(%eax), %dl
 272 01ac 83E2EF   		andl	$-17, %edx
 273 01af 8810     		movb	%dl, (%eax)
 109:E:/NeuOrga/Programmieren/c_cpp/github_os/input/src/os_sim\hal_driver_fs_fat.c ****    file_ptr->mode_aplus = False;
 274              		.loc 1 109 0
 275 01b1 8B4508   		movl	8(%ebp), %eax
 276 01b4 8A10     		movb	(%eax), %dl
 277 01b6 83E2DF   		andl	$-33, %edx
 278 01b9 8810     		movb	%dl, (%eax)
 110:E:/NeuOrga/Programmieren/c_cpp/github_os/input/src/os_sim\hal_driver_fs_fat.c ****    for(i = 0; (i < file_ptr->max_file_name_size); i++ )
 279              		.loc 1 110 0
 280 01bb C645FF00 		movb	$0, -1(%ebp)
 281 01bf EB13     		jmp	L28
 282              	L29:
 111:E:/NeuOrga/Programmieren/c_cpp/github_os/input/src/os_sim\hal_driver_fs_fat.c ****    {
 112:E:/NeuOrga/Programmieren/c_cpp/github_os/input/src/os_sim\hal_driver_fs_fat.c ****       *(file_ptr->name+i) = 0x00;
 283              		.loc 1 112 0 discriminator 3
 284 01c1 0FB645FF 		movzbl	-1(%ebp), %eax
 285 01c5 8B5508   		movl	8(%ebp), %edx
 286 01c8 C644020C 		movb	$0, 12(%edx,%eax)
 286      00
 110:E:/NeuOrga/Programmieren/c_cpp/github_os/input/src/os_sim\hal_driver_fs_fat.c ****    for(i = 0; (i < file_ptr->max_file_name_size); i++ )
 287              		.loc 1 110 0 discriminator 3
 288 01cd 8A45FF   		movb	-1(%ebp), %al
 289 01d0 40       		incl	%eax
 290 01d1 8845FF   		movb	%al, -1(%ebp)
 291              	L28:
 110:E:/NeuOrga/Programmieren/c_cpp/github_os/input/src/os_sim\hal_driver_fs_fat.c ****    for(i = 0; (i < file_ptr->max_file_name_size); i++ )
 292              		.loc 1 110 0 is_stmt 0 discriminator 1
 293 01d4 0FB655FF 		movzbl	-1(%ebp), %edx
 294 01d8 8B4508   		movl	8(%ebp), %eax
 295 01db 8B4004   		movl	4(%eax), %eax
 296 01de 39C2     		cmpl	%eax, %edx
 297 01e0 72DF     		jb	L29
 113:E:/NeuOrga/Programmieren/c_cpp/github_os/input/src/os_sim\hal_driver_fs_fat.c ****    }
 114:E:/NeuOrga/Programmieren/c_cpp/github_os/input/src/os_sim\hal_driver_fs_fat.c ****    file_ptr->used_file_name_size = 0;
 298              		.loc 1 114 0 is_stmt 1
 299 01e2 8B4508   		movl	8(%ebp), %eax
 300 01e5 C7400800 		movl	$0, 8(%eax)
 300      000000
 115:E:/NeuOrga/Programmieren/c_cpp/github_os/input/src/os_sim\hal_driver_fs_fat.c ****    file_ptr = 0;
 301              		.loc 1 115 0
 302 01ec C7450800 		movl	$0, 8(%ebp)
 302      000000
 116:E:/NeuOrga/Programmieren/c_cpp/github_os/input/src/os_sim\hal_driver_fs_fat.c **** }
 303              		.loc 1 116 0
GAS LISTING C:\Users\PRESID~1\AppData\Local\Temp\ccPzc4yS.s 			page 9


 304 01f3 C9       		leave
 305              		.cfi_restore 5
 306              		.cfi_def_cfa 4, 4
 307 01f4 C3       		ret
 308              		.cfi_endproc
 309              	LFE3:
 310              		.globl	_remove
 312              	_remove:
 313              	LFB4:
 117:E:/NeuOrga/Programmieren/c_cpp/github_os/input/src/os_sim\hal_driver_fs_fat.c **** int remove(const char *filename)
 118:E:/NeuOrga/Programmieren/c_cpp/github_os/input/src/os_sim\hal_driver_fs_fat.c **** {
 314              		.loc 1 118 0
 315              		.cfi_startproc
 316 01f5 55       		pushl	%ebp
 317              		.cfi_def_cfa_offset 8
 318              		.cfi_offset 5, -8
 319 01f6 89E5     		movl	%esp, %ebp
 320              		.cfi_def_cfa_register 5
 119:E:/NeuOrga/Programmieren/c_cpp/github_os/input/src/os_sim\hal_driver_fs_fat.c ****    /*#warn "fopen"*/
 120:E:/NeuOrga/Programmieren/c_cpp/github_os/input/src/os_sim\hal_driver_fs_fat.c **** }
 321              		.loc 1 120 0
 322 01f8 5D       		popl	%ebp
 323              		.cfi_restore 5
 324              		.cfi_def_cfa 4, 4
 325 01f9 C3       		ret
 326              		.cfi_endproc
 327              	LFE4:
 328              		.globl	_rename
 330              	_rename:
 331              	LFB5:
 121:E:/NeuOrga/Programmieren/c_cpp/github_os/input/src/os_sim\hal_driver_fs_fat.c **** int rename(const char *oldname, const char *newname)
 122:E:/NeuOrga/Programmieren/c_cpp/github_os/input/src/os_sim\hal_driver_fs_fat.c **** {
 332              		.loc 1 122 0
 333              		.cfi_startproc
 334 01fa 55       		pushl	%ebp
 335              		.cfi_def_cfa_offset 8
 336              		.cfi_offset 5, -8
 337 01fb 89E5     		movl	%esp, %ebp
 338              		.cfi_def_cfa_register 5
 123:E:/NeuOrga/Programmieren/c_cpp/github_os/input/src/os_sim\hal_driver_fs_fat.c ****    /*#warn "fopen"*/
 124:E:/NeuOrga/Programmieren/c_cpp/github_os/input/src/os_sim\hal_driver_fs_fat.c **** }
 339              		.loc 1 124 0
 340 01fd 5D       		popl	%ebp
 341              		.cfi_restore 5
 342              		.cfi_def_cfa 4, 4
 343 01fe C3       		ret
 344              		.cfi_endproc
 345              	LFE5:
 346              		.globl	_fread
 348              	_fread:
 349              	LFB6:
 125:E:/NeuOrga/Programmieren/c_cpp/github_os/input/src/os_sim\hal_driver_fs_fat.c **** uint32 fread(void *ptr, uint32 size, uint32 nobj, FILE *stream)
 126:E:/NeuOrga/Programmieren/c_cpp/github_os/input/src/os_sim\hal_driver_fs_fat.c **** {
 350              		.loc 1 126 0
 351              		.cfi_startproc
 352 01ff 55       		pushl	%ebp
 353              		.cfi_def_cfa_offset 8
GAS LISTING C:\Users\PRESID~1\AppData\Local\Temp\ccPzc4yS.s 			page 10


 354              		.cfi_offset 5, -8
 355 0200 89E5     		movl	%esp, %ebp
 356              		.cfi_def_cfa_register 5
 127:E:/NeuOrga/Programmieren/c_cpp/github_os/input/src/os_sim\hal_driver_fs_fat.c ****    /*#warn "fopen"*/
 128:E:/NeuOrga/Programmieren/c_cpp/github_os/input/src/os_sim\hal_driver_fs_fat.c **** }
 357              		.loc 1 128 0
 358 0202 5D       		popl	%ebp
 359              		.cfi_restore 5
 360              		.cfi_def_cfa 4, 4
 361 0203 C3       		ret
 362              		.cfi_endproc
 363              	LFE6:
 364              		.globl	_fwrite
 366              	_fwrite:
 367              	LFB7:
 129:E:/NeuOrga/Programmieren/c_cpp/github_os/input/src/os_sim\hal_driver_fs_fat.c **** uint32 fwrite(const void *ptr, uint32 size, uint32 nobj, FILE *stream)
 130:E:/NeuOrga/Programmieren/c_cpp/github_os/input/src/os_sim\hal_driver_fs_fat.c **** {
 368              		.loc 1 130 0
 369              		.cfi_startproc
 370 0204 55       		pushl	%ebp
 371              		.cfi_def_cfa_offset 8
 372              		.cfi_offset 5, -8
 373 0205 89E5     		movl	%esp, %ebp
 374              		.cfi_def_cfa_register 5
 131:E:/NeuOrga/Programmieren/c_cpp/github_os/input/src/os_sim\hal_driver_fs_fat.c ****    /*#warn "fopen"*/
 132:E:/NeuOrga/Programmieren/c_cpp/github_os/input/src/os_sim\hal_driver_fs_fat.c **** }
 375              		.loc 1 132 0
 376 0207 5D       		popl	%ebp
 377              		.cfi_restore 5
 378              		.cfi_def_cfa 4, 4
 379 0208 C3       		ret
 380              		.cfi_endproc
 381              	LFE7:
 382              	Letext0:
 383              		.file 2 "E:/NeuOrga/Programmieren/c_cpp/github_os/input/src/os_sim/../os_base/../os_base/os_base_t
 384              		.file 3 "E:/NeuOrga/Programmieren/c_cpp/github_os/input/src/os_sim/../os_drivers/hal_driver_fs_fat