GAS LISTING C:\Users\PRESID~1\AppData\Local\Temp\ccBnENx4.s 			page 1


   1              		.file	"lld_global.c"
   2              		.text
   3              	Ltext0:
   4              		.globl	_GET_CORE_ID
   6              	_GET_CORE_ID:
   7              	LFB0:
   8              		.file 1 "E:/NeuOrga/Programmieren/c_cpp/github_os/input/src/os_sim/lld_global.c"
   1:E:/NeuOrga/Programmieren/c_cpp/github_os/input/src/os_sim\lld_global.c **** #include "..\os_base\os_firstinc.h"
   2:E:/NeuOrga/Programmieren/c_cpp/github_os/input/src/os_sim\lld_global.c **** CoreID_t GET_CORE_ID(void)
   3:E:/NeuOrga/Programmieren/c_cpp/github_os/input/src/os_sim\lld_global.c **** {
   9              		.loc 1 3 0
  10              		.cfi_startproc
  11 0000 55       		pushl	%ebp
  12              		.cfi_def_cfa_offset 8
  13              		.cfi_offset 5, -8
  14 0001 89E5     		movl	%esp, %ebp
  15              		.cfi_def_cfa_register 5
  16 0003 83EC10   		subl	$16, %esp
   4:E:/NeuOrga/Programmieren/c_cpp/github_os/input/src/os_sim\lld_global.c ****    /* the Coretex M4 process has just one core-> use static assignement of core id */
   5:E:/NeuOrga/Programmieren/c_cpp/github_os/input/src/os_sim\lld_global.c ****    /*
   6:E:/NeuOrga/Programmieren/c_cpp/github_os/input/src/os_sim\lld_global.c ****    14.1.1. Determining which core the code is running on
   7:E:/NeuOrga/Programmieren/c_cpp/github_os/input/src/os_sim\lld_global.c **** 
   8:E:/NeuOrga/Programmieren/c_cpp/github_os/input/src/os_sim\lld_global.c ****    Some software operations are dependent on which core the code is running on. For example, global
   9:E:/NeuOrga/Programmieren/c_cpp/github_os/input/src/os_sim\lld_global.c **** 
  10:E:/NeuOrga/Programmieren/c_cpp/github_os/input/src/os_sim\lld_global.c ****    The Multi-Processor Affinity Register (MPIDR_EL1) enables software to determine on which core it
  11:E:/NeuOrga/Programmieren/c_cpp/github_os/input/src/os_sim\lld_global.c **** 
  12:E:/NeuOrga/Programmieren/c_cpp/github_os/input/src/os_sim\lld_global.c ****    The U bit in some processor configurations indicates whether this is a single core or a multi-co
  13:E:/NeuOrga/Programmieren/c_cpp/github_os/input/src/os_sim\lld_global.c ****    Note
  14:E:/NeuOrga/Programmieren/c_cpp/github_os/input/src/os_sim\lld_global.c **** 
  15:E:/NeuOrga/Programmieren/c_cpp/github_os/input/src/os_sim\lld_global.c ****    Software running at EL1 may be running inside a virtual machine managed by a hypervisor. In orde
  16:E:/NeuOrga/Programmieren/c_cpp/github_os/input/src/os_sim\lld_global.c **** 
  17:E:/NeuOrga/Programmieren/c_cpp/github_os/input/src/os_sim\lld_global.c ****    MIPDR_EL3 contains the unchangeable ID of each physical core. No two cores share the same MPIDR_
  18:E:/NeuOrga/Programmieren/c_cpp/github_os/input/src/os_sim\lld_global.c ****    */
  19:E:/NeuOrga/Programmieren/c_cpp/github_os/input/src/os_sim\lld_global.c ****    /* Cortex M7 seems to be always single core */
  20:E:/NeuOrga/Programmieren/c_cpp/github_os/input/src/os_sim\lld_global.c ****    CoreID_t ret_val = 0;
  17              		.loc 1 20 0
  18 0006 C745FC00 		movl	$0, -4(%ebp)
  18      000000
  21:E:/NeuOrga/Programmieren/c_cpp/github_os/input/src/os_sim\lld_global.c ****    return (ret_val);
  19              		.loc 1 21 0
  20 000d 8B45FC   		movl	-4(%ebp), %eax
  22:E:/NeuOrga/Programmieren/c_cpp/github_os/input/src/os_sim\lld_global.c **** }
  21              		.loc 1 22 0
  22 0010 C9       		leave
  23              		.cfi_restore 5
  24              		.cfi_def_cfa 4, 4
  25 0011 C3       		ret
  26              		.cfi_endproc
  27              	LFE0:
  28              		.globl	_LLF_SAVE_TASK_STACK
  30              	_LLF_SAVE_TASK_STACK:
  31              	LFB1:
  23:E:/NeuOrga/Programmieren/c_cpp/github_os/input/src/os_sim\lld_global.c **** void LLF_SAVE_TASK_STACK(unsigned_char_t* StackPointer)
  24:E:/NeuOrga/Programmieren/c_cpp/github_os/input/src/os_sim\lld_global.c **** {
  32              		.loc 1 24 0
  33              		.cfi_startproc
  34 0012 55       		pushl	%ebp
GAS LISTING C:\Users\PRESID~1\AppData\Local\Temp\ccBnENx4.s 			page 2


  35              		.cfi_def_cfa_offset 8
  36              		.cfi_offset 5, -8
  37 0013 89E5     		movl	%esp, %ebp
  38              		.cfi_def_cfa_register 5
  25:E:/NeuOrga/Programmieren/c_cpp/github_os/input/src/os_sim\lld_global.c ****    /* 1. read the stack pointer register
  26:E:/NeuOrga/Programmieren/c_cpp/github_os/input/src/os_sim\lld_global.c ****       2. save it the correct task context
  27:E:/NeuOrga/Programmieren/c_cpp/github_os/input/src/os_sim\lld_global.c ****       3. invalidate the register (==0)
  28:E:/NeuOrga/Programmieren/c_cpp/github_os/input/src/os_sim\lld_global.c ****    */
  29:E:/NeuOrga/Programmieren/c_cpp/github_os/input/src/os_sim\lld_global.c ****    ReferenceUnusedParameter(*StackPointer);
  39              		.loc 1 29 0
  40 0015 8B4508   		movl	8(%ebp), %eax
  41 0018 8A10     		movb	(%eax), %dl
  42 001a 8B4508   		movl	8(%ebp), %eax
  43 001d 8810     		movb	%dl, (%eax)
  30:E:/NeuOrga/Programmieren/c_cpp/github_os/input/src/os_sim\lld_global.c **** /*TODO*/
  31:E:/NeuOrga/Programmieren/c_cpp/github_os/input/src/os_sim\lld_global.c **** }
  44              		.loc 1 31 0
  45 001f 5D       		popl	%ebp
  46              		.cfi_restore 5
  47              		.cfi_def_cfa 4, 4
  48 0020 C3       		ret
  49              		.cfi_endproc
  50              	LFE1:
  51              		.globl	_LLF_SAVE_REGISTERS
  53              	_LLF_SAVE_REGISTERS:
  54              	LFB2:
  32:E:/NeuOrga/Programmieren/c_cpp/github_os/input/src/os_sim\lld_global.c **** void LLF_SAVE_REGISTERS(uint32 r0, uint32 r1, uint32 r2, uint32 r3)
  33:E:/NeuOrga/Programmieren/c_cpp/github_os/input/src/os_sim\lld_global.c **** {
  55              		.loc 1 33 0
  56              		.cfi_startproc
  57 0021 55       		pushl	%ebp
  58              		.cfi_def_cfa_offset 8
  59              		.cfi_offset 5, -8
  60 0022 89E5     		movl	%esp, %ebp
  61              		.cfi_def_cfa_register 5
  34:E:/NeuOrga/Programmieren/c_cpp/github_os/input/src/os_sim\lld_global.c **** 
  35:E:/NeuOrga/Programmieren/c_cpp/github_os/input/src/os_sim\lld_global.c **** }
  62              		.loc 1 35 0
  63 0024 5D       		popl	%ebp
  64              		.cfi_restore 5
  65              		.cfi_def_cfa 4, 4
  66 0025 C3       		ret
  67              		.cfi_endproc
  68              	LFE2:
  69              		.globl	_LLF_RESTORE_TASK_STACK
  71              	_LLF_RESTORE_TASK_STACK:
  72              	LFB3:
  36:E:/NeuOrga/Programmieren/c_cpp/github_os/input/src/os_sim\lld_global.c **** void LLF_RESTORE_TASK_STACK(uint8* StackPointer)
  37:E:/NeuOrga/Programmieren/c_cpp/github_os/input/src/os_sim\lld_global.c **** {
  73              		.loc 1 37 0
  74              		.cfi_startproc
  75 0026 55       		pushl	%ebp
  76              		.cfi_def_cfa_offset 8
  77              		.cfi_offset 5, -8
  78 0027 89E5     		movl	%esp, %ebp
  79              		.cfi_def_cfa_register 5
  38:E:/NeuOrga/Programmieren/c_cpp/github_os/input/src/os_sim\lld_global.c ****    ReferenceUnusedParameter(*StackPointer);
GAS LISTING C:\Users\PRESID~1\AppData\Local\Temp\ccBnENx4.s 			page 3


  80              		.loc 1 38 0
  81 0029 8B4508   		movl	8(%ebp), %eax
  82 002c 8A10     		movb	(%eax), %dl
  83 002e 8B4508   		movl	8(%ebp), %eax
  84 0031 8810     		movb	%dl, (%eax)
  39:E:/NeuOrga/Programmieren/c_cpp/github_os/input/src/os_sim\lld_global.c **** }
  85              		.loc 1 39 0
  86 0033 5D       		popl	%ebp
  87              		.cfi_restore 5
  88              		.cfi_def_cfa 4, 4
  89 0034 C3       		ret
  90              		.cfi_endproc
  91              	LFE3:
  92              		.globl	_LLF_RESTORE_REGISTERS
  94              	_LLF_RESTORE_REGISTERS:
  95              	LFB4:
  40:E:/NeuOrga/Programmieren/c_cpp/github_os/input/src/os_sim\lld_global.c **** void LLF_RESTORE_REGISTERS(task_t* task)
  41:E:/NeuOrga/Programmieren/c_cpp/github_os/input/src/os_sim\lld_global.c **** {
  96              		.loc 1 41 0
  97              		.cfi_startproc
  98 0035 55       		pushl	%ebp
  99              		.cfi_def_cfa_offset 8
 100              		.cfi_offset 5, -8
 101 0036 89E5     		movl	%esp, %ebp
 102              		.cfi_def_cfa_register 5
  42:E:/NeuOrga/Programmieren/c_cpp/github_os/input/src/os_sim\lld_global.c ****    ReferenceUnusedParameter(*task);
  43:E:/NeuOrga/Programmieren/c_cpp/github_os/input/src/os_sim\lld_global.c ****    /*TODO*/
  44:E:/NeuOrga/Programmieren/c_cpp/github_os/input/src/os_sim\lld_global.c **** }
 103              		.loc 1 44 0
 104 0038 5D       		popl	%ebp
 105              		.cfi_restore 5
 106              		.cfi_def_cfa 4, 4
 107 0039 C3       		ret
 108              		.cfi_endproc
 109              	LFE4:
 110              		.globl	_LLF_RESTORE_SYSTEM_STACK
 112              	_LLF_RESTORE_SYSTEM_STACK:
 113              	LFB5:
  45:E:/NeuOrga/Programmieren/c_cpp/github_os/input/src/os_sim\lld_global.c **** void LLF_RESTORE_SYSTEM_STACK(uint8* system_stack_ptr)
  46:E:/NeuOrga/Programmieren/c_cpp/github_os/input/src/os_sim\lld_global.c **** {
 114              		.loc 1 46 0
 115              		.cfi_startproc
 116 003a 55       		pushl	%ebp
 117              		.cfi_def_cfa_offset 8
 118              		.cfi_offset 5, -8
 119 003b 89E5     		movl	%esp, %ebp
 120              		.cfi_def_cfa_register 5
  47:E:/NeuOrga/Programmieren/c_cpp/github_os/input/src/os_sim\lld_global.c ****    ReferenceUnusedParameter(*system_stack_ptr);
 121              		.loc 1 47 0
 122 003d 8B4508   		movl	8(%ebp), %eax
 123 0040 8A10     		movb	(%eax), %dl
 124 0042 8B4508   		movl	8(%ebp), %eax
 125 0045 8810     		movb	%dl, (%eax)
  48:E:/NeuOrga/Programmieren/c_cpp/github_os/input/src/os_sim\lld_global.c ****    /*TODO*/
  49:E:/NeuOrga/Programmieren/c_cpp/github_os/input/src/os_sim\lld_global.c **** }
 126              		.loc 1 49 0
 127 0047 5D       		popl	%ebp
GAS LISTING C:\Users\PRESID~1\AppData\Local\Temp\ccBnENx4.s 			page 4


 128              		.cfi_restore 5
 129              		.cfi_def_cfa 4, 4
 130 0048 C3       		ret
 131              		.cfi_endproc
 132              	LFE5:
 133              		.globl	_LLF_SAVE_SYSTEM_STACK
 135              	_LLF_SAVE_SYSTEM_STACK:
 136              	LFB6:
  50:E:/NeuOrga/Programmieren/c_cpp/github_os/input/src/os_sim\lld_global.c **** void LLF_SAVE_SYSTEM_STACK(uint8* system_stack_ptr)
  51:E:/NeuOrga/Programmieren/c_cpp/github_os/input/src/os_sim\lld_global.c **** {
 137              		.loc 1 51 0
 138              		.cfi_startproc
 139 0049 55       		pushl	%ebp
 140              		.cfi_def_cfa_offset 8
 141              		.cfi_offset 5, -8
 142 004a 89E5     		movl	%esp, %ebp
 143              		.cfi_def_cfa_register 5
  52:E:/NeuOrga/Programmieren/c_cpp/github_os/input/src/os_sim\lld_global.c ****    ReferenceUnusedParameter(*system_stack_ptr);
 144              		.loc 1 52 0
 145 004c 8B4508   		movl	8(%ebp), %eax
 146 004f 8A10     		movb	(%eax), %dl
 147 0051 8B4508   		movl	8(%ebp), %eax
 148 0054 8810     		movb	%dl, (%eax)
  53:E:/NeuOrga/Programmieren/c_cpp/github_os/input/src/os_sim\lld_global.c ****    /*TODO*/
  54:E:/NeuOrga/Programmieren/c_cpp/github_os/input/src/os_sim\lld_global.c **** }
 149              		.loc 1 54 0
 150 0056 5D       		popl	%ebp
 151              		.cfi_restore 5
 152              		.cfi_def_cfa 4, 4
 153 0057 C3       		ret
 154              		.cfi_endproc
 155              	LFE6:
 156              		.globl	_LLF_CLEAR_ALL_GP_REGISTERS
 158              	_LLF_CLEAR_ALL_GP_REGISTERS:
 159              	LFB7:
  55:E:/NeuOrga/Programmieren/c_cpp/github_os/input/src/os_sim\lld_global.c **** void LLF_CLEAR_ALL_GP_REGISTERS(void)
  56:E:/NeuOrga/Programmieren/c_cpp/github_os/input/src/os_sim\lld_global.c **** { 
 160              		.loc 1 56 0
 161              		.cfi_startproc
 162 0058 55       		pushl	%ebp
 163              		.cfi_def_cfa_offset 8
 164              		.cfi_offset 5, -8
 165 0059 89E5     		movl	%esp, %ebp
 166              		.cfi_def_cfa_register 5
  57:E:/NeuOrga/Programmieren/c_cpp/github_os/input/src/os_sim\lld_global.c **** /*TODO*/
  58:E:/NeuOrga/Programmieren/c_cpp/github_os/input/src/os_sim\lld_global.c **** }
 167              		.loc 1 58 0
 168 005b 5D       		popl	%ebp
 169              		.cfi_restore 5
 170              		.cfi_def_cfa 4, 4
 171 005c C3       		ret
 172              		.cfi_endproc
 173              	LFE7:
 174              		.globl	_LLF_PERFORM_RAM_CHECK
 176              	_LLF_PERFORM_RAM_CHECK:
 177              	LFB8:
  59:E:/NeuOrga/Programmieren/c_cpp/github_os/input/src/os_sim\lld_global.c **** void LLF_PERFORM_RAM_CHECK(void)
GAS LISTING C:\Users\PRESID~1\AppData\Local\Temp\ccBnENx4.s 			page 5


  60:E:/NeuOrga/Programmieren/c_cpp/github_os/input/src/os_sim\lld_global.c **** {
 178              		.loc 1 60 0
 179              		.cfi_startproc
 180 005d 55       		pushl	%ebp
 181              		.cfi_def_cfa_offset 8
 182              		.cfi_offset 5, -8
 183 005e 89E5     		movl	%esp, %ebp
 184              		.cfi_def_cfa_register 5
  61:E:/NeuOrga/Programmieren/c_cpp/github_os/input/src/os_sim\lld_global.c ****    /*TODO*/
  62:E:/NeuOrga/Programmieren/c_cpp/github_os/input/src/os_sim\lld_global.c **** }
 185              		.loc 1 62 0
 186 0060 5D       		popl	%ebp
 187              		.cfi_restore 5
 188              		.cfi_def_cfa 4, 4
 189 0061 C3       		ret
 190              		.cfi_endproc
 191              	LFE8:
 192              		.globl	_LLF_CHANGE_TO_USER_MODE
 194              	_LLF_CHANGE_TO_USER_MODE:
 195              	LFB9:
  63:E:/NeuOrga/Programmieren/c_cpp/github_os/input/src/os_sim\lld_global.c **** void LLF_CHANGE_TO_USER_MODE(void)
  64:E:/NeuOrga/Programmieren/c_cpp/github_os/input/src/os_sim\lld_global.c **** {
 196              		.loc 1 64 0
 197              		.cfi_startproc
 198 0062 55       		pushl	%ebp
 199              		.cfi_def_cfa_offset 8
 200              		.cfi_offset 5, -8
 201 0063 89E5     		movl	%esp, %ebp
 202              		.cfi_def_cfa_register 5
  65:E:/NeuOrga/Programmieren/c_cpp/github_os/input/src/os_sim\lld_global.c ****    /*TODO*/
  66:E:/NeuOrga/Programmieren/c_cpp/github_os/input/src/os_sim\lld_global.c **** }...
 203              		.loc 1 66 0
 204 0065 5D       		popl	%ebp
 205              		.cfi_restore 5
 206              		.cfi_def_cfa 4, 4
 207 0066 C3       		ret
 208              		.cfi_endproc
 209              	LFE9:
 210              	Letext0:
 211              		.file 2 "E:/NeuOrga/Programmieren/c_cpp/github_os/input/src/os_sim/../os_base/../os_base/os_base_t
 212              		.file 3 "E:/NeuOrga/Programmieren/c_cpp/github_os/input/src/os_sim/../os_base/../os_sim/lld_core.h
 213              		.file 4 "E:/NeuOrga/Programmieren/c_cpp/github_os/input/src/os_sim/../os_base/../os_sim/../os_base