GAS LISTING C:\Users\PRESID~1\AppData\Local\Temp\ccQ12PkS.s 			page 1


   1              		.file	"lld_mmu.c"
   2              		.text
   3              	Ltext0:
   4              		.globl	_LLF_MPU_DISABLE
   6              	_LLF_MPU_DISABLE:
   7              	LFB0:
   8              		.file 1 "E:/NeuOrga/Programmieren/c_cpp/github_os/input/src/os_sim/lld_mmu.c"
   1:E:/NeuOrga/Programmieren/c_cpp/github_os/input/src/os_sim\lld_mmu.c **** #include "..\os_base\os_firstinc.h"
   2:E:/NeuOrga/Programmieren/c_cpp/github_os/input/src/os_sim\lld_mmu.c **** 
   3:E:/NeuOrga/Programmieren/c_cpp/github_os/input/src/os_sim\lld_mmu.c **** void LLF_MPU_DISABLE(void)
   4:E:/NeuOrga/Programmieren/c_cpp/github_os/input/src/os_sim\lld_mmu.c **** {
   9              		.loc 1 4 0
  10              		.cfi_startproc
  11 0000 55       		pushl	%ebp
  12              		.cfi_def_cfa_offset 8
  13              		.cfi_offset 5, -8
  14 0001 89E5     		movl	%esp, %ebp
  15              		.cfi_def_cfa_register 5
   5:E:/NeuOrga/Programmieren/c_cpp/github_os/input/src/os_sim\lld_mmu.c ****    /*#warn "LLF_MPU_DISABLE not yet implemented"*/
   6:E:/NeuOrga/Programmieren/c_cpp/github_os/input/src/os_sim\lld_mmu.c **** }
  16              		.loc 1 6 0
  17 0003 5D       		popl	%ebp
  18              		.cfi_restore 5
  19              		.cfi_def_cfa 4, 4
  20 0004 C3       		ret
  21              		.cfi_endproc
  22              	LFE0:
  23              		.globl	_LLF_MPU_ENABLE
  25              	_LLF_MPU_ENABLE:
  26              	LFB1:
   7:E:/NeuOrga/Programmieren/c_cpp/github_os/input/src/os_sim\lld_mmu.c **** 
   8:E:/NeuOrga/Programmieren/c_cpp/github_os/input/src/os_sim\lld_mmu.c **** void LLF_MPU_ENABLE(void)
   9:E:/NeuOrga/Programmieren/c_cpp/github_os/input/src/os_sim\lld_mmu.c **** {
  27              		.loc 1 9 0
  28              		.cfi_startproc
  29 0005 55       		pushl	%ebp
  30              		.cfi_def_cfa_offset 8
  31              		.cfi_offset 5, -8
  32 0006 89E5     		movl	%esp, %ebp
  33              		.cfi_def_cfa_register 5
  10:E:/NeuOrga/Programmieren/c_cpp/github_os/input/src/os_sim\lld_mmu.c ****    /*#warn "LLF_MPU_ENABLE not yet implemented"*/
  11:E:/NeuOrga/Programmieren/c_cpp/github_os/input/src/os_sim\lld_mmu.c **** }
  34              		.loc 1 11 0
  35 0008 5D       		popl	%ebp
  36              		.cfi_restore 5
  37              		.cfi_def_cfa 4, 4
  38 0009 C3       		ret
  39              		.cfi_endproc
  40              	LFE1:
  41              		.globl	_LLF_MPU_SET_REGION
  43              	_LLF_MPU_SET_REGION:
  44              	LFB2:
  12:E:/NeuOrga/Programmieren/c_cpp/github_os/input/src/os_sim\lld_mmu.c **** 
  13:E:/NeuOrga/Programmieren/c_cpp/github_os/input/src/os_sim\lld_mmu.c **** void LLF_MPU_SET_REGION(CoreID_t core_id, void* startAddr, void* endAddr)
  14:E:/NeuOrga/Programmieren/c_cpp/github_os/input/src/os_sim\lld_mmu.c **** {
  45              		.loc 1 14 0
  46              		.cfi_startproc
GAS LISTING C:\Users\PRESID~1\AppData\Local\Temp\ccQ12PkS.s 			page 2


  47 000a 55       		pushl	%ebp
  48              		.cfi_def_cfa_offset 8
  49              		.cfi_offset 5, -8
  50 000b 89E5     		movl	%esp, %ebp
  51              		.cfi_def_cfa_register 5
  15:E:/NeuOrga/Programmieren/c_cpp/github_os/input/src/os_sim\lld_mmu.c ****    ReferenceUnusedParameter(core_id);
  16:E:/NeuOrga/Programmieren/c_cpp/github_os/input/src/os_sim\lld_mmu.c ****    ReferenceUnusedParameter(startAddr);
  17:E:/NeuOrga/Programmieren/c_cpp/github_os/input/src/os_sim\lld_mmu.c ****    ReferenceUnusedParameter(endAddr);
  18:E:/NeuOrga/Programmieren/c_cpp/github_os/input/src/os_sim\lld_mmu.c ****    /* OS_SIM: no MMU implemented, always assume switched off MMU */
  19:E:/NeuOrga/Programmieren/c_cpp/github_os/input/src/os_sim\lld_mmu.c **** }
  52              		.loc 1 19 0
  53 000d 5D       		popl	%ebp
  54              		.cfi_restore 5
  55              		.cfi_def_cfa 4, 4
  56 000e C3       		ret
  57              		.cfi_endproc
  58              	LFE2:
  59              		.globl	_LLF_MPU_SWITCH_OFF_ALL_REGIONS
  61              	_LLF_MPU_SWITCH_OFF_ALL_REGIONS:
  62              	LFB3:
  20:E:/NeuOrga/Programmieren/c_cpp/github_os/input/src/os_sim\lld_mmu.c **** 
  21:E:/NeuOrga/Programmieren/c_cpp/github_os/input/src/os_sim\lld_mmu.c **** void LLF_MPU_SWITCH_OFF_ALL_REGIONS(CoreID_t core_id)
  22:E:/NeuOrga/Programmieren/c_cpp/github_os/input/src/os_sim\lld_mmu.c **** {
  63              		.loc 1 22 0
  64              		.cfi_startproc
  65 000f 55       		pushl	%ebp
  66              		.cfi_def_cfa_offset 8
  67              		.cfi_offset 5, -8
  68 0010 89E5     		movl	%esp, %ebp
  69              		.cfi_def_cfa_register 5
  23:E:/NeuOrga/Programmieren/c_cpp/github_os/input/src/os_sim\lld_mmu.c ****    ReferenceUnusedParameter(core_id);   
  24:E:/NeuOrga/Programmieren/c_cpp/github_os/input/src/os_sim\lld_mmu.c ****       /* OS_SIM: no MMU implemented, always assume switched off MMU */
  25:E:/NeuOrga/Programmieren/c_cpp/github_os/input/src/os_sim\lld_mmu.c **** }
  70              		.loc 1 25 0
  71 0012 5D       		popl	%ebp
  72              		.cfi_restore 5
  73              		.cfi_def_cfa 4, 4
  74 0013 C3       		ret
  75              		.cfi_endproc
  76              	LFE3:
  77              		.globl	_LLF_GET_MPU_PRESENT
  79              	_LLF_GET_MPU_PRESENT:
  80              	LFB4:
  26:E:/NeuOrga/Programmieren/c_cpp/github_os/input/src/os_sim\lld_mmu.c **** unsigned_char_t LLF_GET_MPU_PRESENT(void)
  27:E:/NeuOrga/Programmieren/c_cpp/github_os/input/src/os_sim\lld_mmu.c **** {
  81              		.loc 1 27 0
  82              		.cfi_startproc
  83 0014 55       		pushl	%ebp
  84              		.cfi_def_cfa_offset 8
  85              		.cfi_offset 5, -8
  86 0015 89E5     		movl	%esp, %ebp
  87              		.cfi_def_cfa_register 5
  28:E:/NeuOrga/Programmieren/c_cpp/github_os/input/src/os_sim\lld_mmu.c ****    /* OS_SIM: no MMU implemented, always assume switched off MMU */
  29:E:/NeuOrga/Programmieren/c_cpp/github_os/input/src/os_sim\lld_mmu.c ****    return False;
  88              		.loc 1 29 0
  89 0017 B000     		movb	$0, %al
  30:E:/NeuOrga/Programmieren/c_cpp/github_os/input/src/os_sim\lld_mmu.c **** }
GAS LISTING C:\Users\PRESID~1\AppData\Local\Temp\ccQ12PkS.s 			page 3


  90              		.loc 1 30 0
  91 0019 5D       		popl	%ebp
  92              		.cfi_restore 5
  93              		.cfi_def_cfa 4, 4
  94 001a C3       		ret
  95              		.cfi_endproc
  96              	LFE4:
  97              	Letext0:
  98              		.file 2 "E:/NeuOrga/Programmieren/c_cpp/github_os/input/src/os_sim/../os_base/../os_base/os_base_t
  99              		.file 3 "E:/NeuOrga/Programmieren/c_cpp/github_os/input/src/os_sim/../os_base/../os_sim/lld_core.h