GAS LISTING C:\Users\PRESID~1\AppData\Local\Temp\ccrpDnXF.s 			page 1


   1              		.file	"lld_interrupt.c"
   2              		.text
   3              	Ltext0:
   4              		.globl	_LLF_INT_DISABLE
   6              	_LLF_INT_DISABLE:
   7              	LFB0:
   8              		.file 1 "E:/NeuOrga/Programmieren/c_cpp/github_os/input/src/os_sim/lld_interrupt.c"
   1:E:/NeuOrga/Programmieren/c_cpp/github_os/input/src/os_sim\lld_interrupt.c **** #include "..\os_base\os_firstinc.h"
   2:E:/NeuOrga/Programmieren/c_cpp/github_os/input/src/os_sim\lld_interrupt.c **** #include "..\os_drivers\lld_interrupt.h"
   3:E:/NeuOrga/Programmieren/c_cpp/github_os/input/src/os_sim\lld_interrupt.c **** 
   4:E:/NeuOrga/Programmieren/c_cpp/github_os/input/src/os_sim\lld_interrupt.c **** 
   5:E:/NeuOrga/Programmieren/c_cpp/github_os/input/src/os_sim\lld_interrupt.c **** void LLF_INT_DISABLE(void)
   6:E:/NeuOrga/Programmieren/c_cpp/github_os/input/src/os_sim\lld_interrupt.c **** {
   9              		.loc 1 6 0
  10              		.cfi_startproc
  11 0000 55       		pushl	%ebp
  12              		.cfi_def_cfa_offset 8
  13              		.cfi_offset 5, -8
  14 0001 89E5     		movl	%esp, %ebp
  15              		.cfi_def_cfa_register 5
   7:E:/NeuOrga/Programmieren/c_cpp/github_os/input/src/os_sim\lld_interrupt.c **** #if(CFG_PROCESSOR == cMCU_X86)
   8:E:/NeuOrga/Programmieren/c_cpp/github_os/input/src/os_sim\lld_interrupt.c **** #else
   9:E:/NeuOrga/Programmieren/c_cpp/github_os/input/src/os_sim\lld_interrupt.c ****    /* enable interrupts via setting i bit */
  10:E:/NeuOrga/Programmieren/c_cpp/github_os/input/src/os_sim\lld_interrupt.c ****    __asm__ __volatile__ ("cpsid i");
  11:E:/NeuOrga/Programmieren/c_cpp/github_os/input/src/os_sim\lld_interrupt.c **** #endif
  12:E:/NeuOrga/Programmieren/c_cpp/github_os/input/src/os_sim\lld_interrupt.c **** }
  16              		.loc 1 12 0
  17 0003 5D       		popl	%ebp
  18              		.cfi_restore 5
  19              		.cfi_def_cfa 4, 4
  20 0004 C3       		ret
  21              		.cfi_endproc
  22              	LFE0:
  23              		.globl	_LLF_INT_ENABLE
  25              	_LLF_INT_ENABLE:
  26              	LFB1:
  13:E:/NeuOrga/Programmieren/c_cpp/github_os/input/src/os_sim\lld_interrupt.c **** void LLF_INT_ENABLE(void)
  14:E:/NeuOrga/Programmieren/c_cpp/github_os/input/src/os_sim\lld_interrupt.c **** {
  27              		.loc 1 14 0
  28              		.cfi_startproc
  29 0005 55       		pushl	%ebp
  30              		.cfi_def_cfa_offset 8
  31              		.cfi_offset 5, -8
  32 0006 89E5     		movl	%esp, %ebp
  33              		.cfi_def_cfa_register 5
  15:E:/NeuOrga/Programmieren/c_cpp/github_os/input/src/os_sim\lld_interrupt.c **** #if(CFG_PROCESSOR == cMCU_X86)
  16:E:/NeuOrga/Programmieren/c_cpp/github_os/input/src/os_sim\lld_interrupt.c **** #else
  17:E:/NeuOrga/Programmieren/c_cpp/github_os/input/src/os_sim\lld_interrupt.c ****    /* enable interrupts via clearing i bit */
  18:E:/NeuOrga/Programmieren/c_cpp/github_os/input/src/os_sim\lld_interrupt.c ****    __asm__ __volatile__ ("cpsie i");
  19:E:/NeuOrga/Programmieren/c_cpp/github_os/input/src/os_sim\lld_interrupt.c **** #endif
  20:E:/NeuOrga/Programmieren/c_cpp/github_os/input/src/os_sim\lld_interrupt.c **** }
  34              		.loc 1 20 0
  35 0008 5D       		popl	%ebp
  36              		.cfi_restore 5
  37              		.cfi_def_cfa 4, 4
  38 0009 C3       		ret
  39              		.cfi_endproc
GAS LISTING C:\Users\PRESID~1\AppData\Local\Temp\ccrpDnXF.s 			page 2


  40              	LFE1:
  41              		.globl	_LLF_DISABLE_INTERRUPTS_ALL_CORES
  43              	_LLF_DISABLE_INTERRUPTS_ALL_CORES:
  44              	LFB2:
  21:E:/NeuOrga/Programmieren/c_cpp/github_os/input/src/os_sim\lld_interrupt.c **** void LLF_DISABLE_INTERRUPTS_ALL_CORES(void)
  22:E:/NeuOrga/Programmieren/c_cpp/github_os/input/src/os_sim\lld_interrupt.c **** {
  45              		.loc 1 22 0
  46              		.cfi_startproc
  47 000a 55       		pushl	%ebp
  48              		.cfi_def_cfa_offset 8
  49              		.cfi_offset 5, -8
  50 000b 89E5     		movl	%esp, %ebp
  51              		.cfi_def_cfa_register 5
  23:E:/NeuOrga/Programmieren/c_cpp/github_os/input/src/os_sim\lld_interrupt.c ****    /* just single core is supported */
  24:E:/NeuOrga/Programmieren/c_cpp/github_os/input/src/os_sim\lld_interrupt.c ****    LLF_INT_DISABLE();
  52              		.loc 1 24 0
  53 000d E8EEFFFF 		call	_LLF_INT_DISABLE
  53      FF
  25:E:/NeuOrga/Programmieren/c_cpp/github_os/input/src/os_sim\lld_interrupt.c **** }...
  54              		.loc 1 25 0
  55 0012 5D       		popl	%ebp
  56              		.cfi_restore 5
  57              		.cfi_def_cfa 4, 4
  58 0013 C3       		ret
  59              		.cfi_endproc
  60              	LFE2:
  61              	Letext0: